
./zig-cache/test:     file format elf64-x86-64


Disassembly of section .text:

000000000020b000 <assert>:
/// This function invokes undefined behavior when `ok` is `false`.
/// In Debug and ReleaseSafe modes, calls to this function are always
/// generated, and the `unreachable` statement triggers a panic.
/// In ReleaseFast and ReleaseSmall modes, calls to this function can be
/// optimized away.
pub fn assert(ok: bool) void {
  20b000:	55                   	push   rbp
  20b001:	48 89 e5             	mov    rbp,rsp
  20b004:	48 83 ec 10          	sub    rsp,0x10
  20b008:	40 88 f8             	mov    al,dil
  20b00b:	24 01                	and    al,0x1
  20b00d:	88 45 ff             	mov    BYTE PTR [rbp-0x1],al
    if (!ok) {
  20b010:	8a 45 ff             	mov    al,BYTE PTR [rbp-0x1]
  20b013:	84 c0                	test   al,al
  20b015:	75 12                	jne    20b029 <assert+0x29>
  20b017:	eb 00                	jmp    20b019 <assert+0x19>
  20b019:	48 8d 3d 60 83 03 00 	lea    rdi,[rip+0x38360]        # 243380 <__unnamed_1>
  20b020:	31 c0                	xor    eax,eax
  20b022:	89 c6                	mov    esi,eax
        // In ReleaseFast test mode, we still want assert(false) to crash, so
        // we insert an explicit call to @panic instead of unreachable.
        // TODO we should use `assertOrPanic` in tests and remove this logic.
        if (builtin.is_test) {
            @panic("assertion failure");
  20b024:	e8 d7 05 00 00       	call   20b600 <panic>
    if (!ok) {
  20b029:	eb 00                	jmp    20b02b <assert+0x2b>
pub fn assert(ok: bool) void {
  20b02b:	48 83 c4 10          	add    rsp,0x10
  20b02f:	5d                   	pop    rbp
  20b030:	c3                   	ret    
  20b031:	66 66 66 66 66 66 2e 	data16 data16 data16 data16 data16 nop WORD PTR cs:[rax+rax*1+0x0]
  20b038:	0f 1f 84 00 00 00 00 
  20b03f:	00 

000000000020b040 <Timer_clockLinux>:

    fn clockDarwin() u64 {
        return darwin.mach_absolute_time();
    }

    fn clockLinux() u64 {
  20b040:	55                   	push   rbp
  20b041:	48 89 e5             	mov    rbp,rsp
  20b044:	48 83 ec 50          	sub    rsp,0x50
  20b048:	bf 01 00 00 00       	mov    edi,0x1
  20b04d:	48 8d 75 f0          	lea    rsi,[rbp-0x10]
        var ts: posix.timespec = undefined;
  20b051:	48 8b 05 58 52 ff ff 	mov    rax,QWORD PTR [rip+0xffffffffffff5258]        # 2002b0 <__unnamed_100>
  20b058:	48 89 45 f0          	mov    QWORD PTR [rbp-0x10],rax
  20b05c:	48 8b 05 55 52 ff ff 	mov    rax,QWORD PTR [rip+0xffffffffffff5255]        # 2002b8 <__unnamed_100+0x8>
  20b063:	48 89 45 f8          	mov    QWORD PTR [rbp-0x8],rax
        var result = posix.clock_gettime(monotonic_clock_id, &ts);
  20b067:	e8 d4 20 00 00       	call   20d140 <clock_gettime>
  20b06c:	48 89 45 e8          	mov    QWORD PTR [rbp-0x18],rax
        debug.assert(posix.getErrno(result) == 0);
  20b070:	48 8b 7d e8          	mov    rdi,QWORD PTR [rbp-0x18]
  20b074:	e8 07 20 00 00       	call   20d080 <getErrno>
  20b079:	48 83 f8 00          	cmp    rax,0x0
  20b07d:	0f 94 c1             	sete   cl
  20b080:	0f b6 f9             	movzx  edi,cl
  20b083:	e8 78 ff ff ff       	call   20b000 <assert>
        return @intCast(u64, ts.tv_sec) * u64(ns_per_s) + @intCast(u64, ts.tv_nsec);
  20b088:	48 8b 45 f0          	mov    rax,QWORD PTR [rbp-0x10]
  20b08c:	48 83 f8 00          	cmp    rax,0x0
  20b090:	48 89 45 e0          	mov    QWORD PTR [rbp-0x20],rax
  20b094:	7c 1e                	jl     20b0b4 <Timer_clockLinux+0x74>
  20b096:	b8 00 ca 9a 3b       	mov    eax,0x3b9aca00
  20b09b:	89 c1                	mov    ecx,eax
  20b09d:	48 8b 45 e0          	mov    rax,QWORD PTR [rbp-0x20]
  20b0a1:	48 f7 e1             	mul    rcx
  20b0a4:	40 0f 90 c6          	seto   sil
  20b0a8:	48 89 45 d8          	mov    QWORD PTR [rbp-0x28],rax
  20b0ac:	40 88 75 d7          	mov    BYTE PTR [rbp-0x29],sil
  20b0b0:	70 12                	jo     20b0c4 <Timer_clockLinux+0x84>
  20b0b2:	eb 20                	jmp    20b0d4 <Timer_clockLinux+0x94>
  20b0b4:	48 8d 3d cd 81 03 00 	lea    rdi,[rip+0x381cd]        # 243288 <__unnamed_3>
  20b0bb:	31 c0                	xor    eax,eax
  20b0bd:	89 c6                	mov    esi,eax
  20b0bf:	e8 3c 05 00 00       	call   20b600 <panic>
  20b0c4:	48 8d 3d fd 80 03 00 	lea    rdi,[rip+0x380fd]        # 2431c8 <__unnamed_4>
  20b0cb:	31 c0                	xor    eax,eax
  20b0cd:	89 c6                	mov    esi,eax
  20b0cf:	e8 2c 05 00 00       	call   20b600 <panic>
  20b0d4:	48 8b 45 f8          	mov    rax,QWORD PTR [rbp-0x8]
  20b0d8:	48 83 f8 00          	cmp    rax,0x0
  20b0dc:	48 89 45 c8          	mov    QWORD PTR [rbp-0x38],rax
  20b0e0:	7c 19                	jl     20b0fb <Timer_clockLinux+0xbb>
  20b0e2:	48 8b 45 d8          	mov    rax,QWORD PTR [rbp-0x28]
  20b0e6:	48 8b 4d c8          	mov    rcx,QWORD PTR [rbp-0x38]
  20b0ea:	48 01 c8             	add    rax,rcx
  20b0ed:	0f 92 c2             	setb   dl
  20b0f0:	48 89 45 c0          	mov    QWORD PTR [rbp-0x40],rax
  20b0f4:	88 55 bf             	mov    BYTE PTR [rbp-0x41],dl
  20b0f7:	72 12                	jb     20b10b <Timer_clockLinux+0xcb>
  20b0f9:	eb 20                	jmp    20b11b <Timer_clockLinux+0xdb>
  20b0fb:	48 8d 3d 86 81 03 00 	lea    rdi,[rip+0x38186]        # 243288 <__unnamed_3>
  20b102:	31 c0                	xor    eax,eax
  20b104:	89 c6                	mov    esi,eax
  20b106:	e8 f5 04 00 00       	call   20b600 <panic>
  20b10b:	48 8d 3d b6 80 03 00 	lea    rdi,[rip+0x380b6]        # 2431c8 <__unnamed_4>
  20b112:	31 c0                	xor    eax,eax
  20b114:	89 c6                	mov    esi,eax
  20b116:	e8 e5 04 00 00       	call   20b600 <panic>
  20b11b:	48 8b 45 c0          	mov    rax,QWORD PTR [rbp-0x40]
  20b11f:	48 83 c4 50          	add    rsp,0x50
  20b123:	5d                   	pop    rbp
  20b124:	c3                   	ret    
  20b125:	66 66 2e 0f 1f 84 00 	data16 nop WORD PTR cs:[rax+rax*1+0x0]
  20b12c:	00 00 00 00 

000000000020b130 <init_vdso_clock_gettime>:
        }
    }
    return syscall2(SYS_clock_gettime, @bitCast(usize, isize(clk_id)), @ptrToInt(tp));
}
var vdso_clock_gettime = init_vdso_clock_gettime;
extern fn init_vdso_clock_gettime(clk: i32, ts: *timespec) usize {
  20b130:	55                   	push   rbp
  20b131:	48 89 e5             	mov    rbp,rsp
  20b134:	48 83 ec 30          	sub    rsp,0x30
  20b138:	89 7d fc             	mov    DWORD PTR [rbp-0x4],edi
  20b13b:	48 89 75 f0          	mov    QWORD PTR [rbp-0x10],rsi
    const addr = vdso.lookup(VDSO_CGT_VER, VDSO_CGT_SYM);
  20b13f:	48 8d 3d 32 87 03 00 	lea    rdi,[rip+0x38732]        # 243878 <__unnamed_5>
  20b146:	48 8d 35 43 87 03 00 	lea    rsi,[rip+0x38743]        # 243890 <__unnamed_6>
  20b14d:	e8 2e a7 01 00       	call   225880 <lookup>
  20b152:	48 89 45 e8          	mov    QWORD PTR [rbp-0x18],rax
    var f = @intToPtr(@typeOf(init_vdso_clock_gettime), addr);
  20b156:	48 8b 45 e8          	mov    rax,QWORD PTR [rbp-0x18]
  20b15a:	48 89 45 e0          	mov    QWORD PTR [rbp-0x20],rax
    _ = @cmpxchgStrong(@typeOf(init_vdso_clock_gettime), &vdso_clock_gettime, init_vdso_clock_gettime, f, builtin.AtomicOrder.Monotonic, builtin.AtomicOrder.Monotonic);
  20b15e:	48 8b 45 e0          	mov    rax,QWORD PTR [rbp-0x20]
  20b162:	48 8d 35 c7 ff ff ff 	lea    rsi,[rip+0xffffffffffffffc7]        # 20b130 <init_vdso_clock_gettime>
  20b169:	48 89 45 d8          	mov    QWORD PTR [rbp-0x28],rax
  20b16d:	48 89 f0             	mov    rax,rsi
  20b170:	48 8b 75 d8          	mov    rsi,QWORD PTR [rbp-0x28]
  20b174:	f0 48 0f b1 35 bb 0e 	lock cmpxchg QWORD PTR [rip+0x30ebb],rsi        # 23c038 <vdso_clock_gettime>
  20b17b:	03 00 
    if (@ptrToInt(f) == 0) return @bitCast(usize, isize(-ENOSYS));
  20b17d:	48 8b 75 e0          	mov    rsi,QWORD PTR [rbp-0x20]
  20b181:	48 83 fe 00          	cmp    rsi,0x0
  20b185:	48 89 45 d0          	mov    QWORD PTR [rbp-0x30],rax
  20b189:	75 0d                	jne    20b198 <init_vdso_clock_gettime+0x68>
  20b18b:	48 c7 c0 da ff ff ff 	mov    rax,0xffffffffffffffda
  20b192:	48 83 c4 30          	add    rsp,0x30
  20b196:	5d                   	pop    rbp
  20b197:	c3                   	ret    
  20b198:	eb 00                	jmp    20b19a <init_vdso_clock_gettime+0x6a>
    return f(clk, ts);
  20b19a:	48 8b 45 e0          	mov    rax,QWORD PTR [rbp-0x20]
  20b19e:	8b 7d fc             	mov    edi,DWORD PTR [rbp-0x4]
  20b1a1:	48 8b 75 f0          	mov    rsi,QWORD PTR [rbp-0x10]
  20b1a5:	ff d0                	call   rax
  20b1a7:	48 83 c4 30          	add    rsp,0x30
  20b1ab:	5d                   	pop    rbp
  20b1ac:	c3                   	ret    
  20b1ad:	0f 1f 00             	nop    DWORD PTR [rax]

000000000020b1b0 <Futex>:
        _ = @atomicRmw(@typeOf(gCounter), &gCounter, AtomicRmwOp.Add, 1, AtomicOrder.SeqCst);
        pContext.counter += 1;
    }
}

test "Futex" {
  20b1b0:	55                   	push   rbp
  20b1b1:	48 89 e5             	mov    rbp,rsp
    warn("\ntest Futex:+\n");
  20b1b4:	48 81 ec 60 01 00 00 	sub    rsp,0x160
  20b1bb:	48 89 bd 50 ff ff ff 	mov    QWORD PTR [rbp-0xb0],rdi
  20b1c2:	e8 79 05 00 00       	call   20b740 <warn>
  20b1c7:	48 8d 3d 32 0e 03 00 	lea    rdi,[rip+0x30e32]        # 23c000 <gProducer_context>
    defer warn("test Futex:- futex_wait counts={} futex_wake counts={}\n",
        gProducer_wait_count + gConsumer_wait_count, gProducer_wake_count + gConsumer_wake_count);

    gProducer_context.init();
  20b1ce:	e8 1d 06 00 00       	call   20b7f0 <ThreadContext_init>
  20b1d3:	48 8d 3d 36 0e 03 00 	lea    rdi,[rip+0x30e36]        # 23c010 <gConsumer_context>
    gConsumer_context.init();
  20b1da:	e8 11 06 00 00       	call   20b7f0 <ThreadContext_init>
  20b1df:	48 8d 7d e8          	lea    rdi,[rbp-0x18]

    var timer = try Timer.start();
  20b1e3:	48 8b b5 50 ff ff ff 	mov    rsi,QWORD PTR [rbp-0xb0]
  20b1ea:	e8 21 06 00 00       	call   20b810 <Timer_start>
  20b1ef:	66 83 7d e8 00       	cmp    WORD PTR [rbp-0x18],0x0
  20b1f4:	74 29                	je     20b21f <Futex+0x6f>
        gProducer_wait_count + gConsumer_wait_count, gProducer_wake_count + gConsumer_wake_count);
  20b1f6:	48 8b 05 03 8e 03 00 	mov    rax,QWORD PTR [rip+0x38e03]        # 244000 <gProducer_wait_count>
  20b1fd:	48 03 05 04 8e 03 00 	add    rax,QWORD PTR [rip+0x38e04]        # 244008 <gConsumer_wait_count>
  20b204:	0f 92 c1             	setb   cl
  20b207:	48 89 85 48 ff ff ff 	mov    QWORD PTR [rbp-0xb8],rax
  20b20e:	88 8d 47 ff ff ff    	mov    BYTE PTR [rbp-0xb9],cl
  20b214:	0f 82 1a 01 00 00    	jb     20b334 <Futex+0x184>
  20b21a:	e9 25 01 00 00       	jmp    20b344 <Futex+0x194>
  20b21f:	48 8d 7d 80          	lea    rdi,[rbp-0x80]
    var timer = try Timer.start();
  20b223:	48 8b 45 f0          	mov    rax,QWORD PTR [rbp-0x10]
  20b227:	48 89 45 80          	mov    QWORD PTR [rbp-0x80],rax
  20b22b:	48 8b 45 f8          	mov    rax,QWORD PTR [rbp-0x8]
  20b22f:	48 89 45 88          	mov    QWORD PTR [rbp-0x78],rax
    var start_time = timer.read();
  20b233:	e8 98 0a 00 00       	call   20bcd0 <Timer_read>
  20b238:	48 8d 7d c0          	lea    rdi,[rbp-0x40]
  20b23c:	48 8d 15 bd 0d 03 00 	lea    rdx,[rip+0x30dbd]        # 23c000 <gProducer_context>
  20b243:	48 89 85 78 ff ff ff 	mov    QWORD PTR [rbp-0x88],rax

    var producer_thread = try std.os.spawnThread(&gProducer_context, producer);
  20b24a:	48 8b b5 50 ff ff ff 	mov    rsi,QWORD PTR [rbp-0xb0]
  20b251:	e8 ca 0a 00 00       	call   20bd20 <spawnThread>
  20b256:	66 83 7d c0 00       	cmp    WORD PTR [rbp-0x40],0x0
  20b25b:	74 29                	je     20b286 <Futex+0xd6>
        gProducer_wait_count + gConsumer_wait_count, gProducer_wake_count + gConsumer_wake_count);
  20b25d:	48 8b 05 9c 8d 03 00 	mov    rax,QWORD PTR [rip+0x38d9c]        # 244000 <gProducer_wait_count>
  20b264:	48 03 05 9d 8d 03 00 	add    rax,QWORD PTR [rip+0x38d9d]        # 244008 <gConsumer_wait_count>
  20b26b:	0f 92 c1             	setb   cl
  20b26e:	48 89 85 38 ff ff ff 	mov    QWORD PTR [rbp-0xc8],rax
  20b275:	88 8d 37 ff ff ff    	mov    BYTE PTR [rbp-0xc9],cl
  20b27b:	0f 82 2f 01 00 00    	jb     20b3b0 <Futex+0x200>
  20b281:	e9 3a 01 00 00       	jmp    20b3c0 <Futex+0x210>
  20b286:	48 8d 7d a0          	lea    rdi,[rbp-0x60]
  20b28a:	48 8d 15 7f 0d 03 00 	lea    rdx,[rip+0x30d7f]        # 23c010 <gConsumer_context>
    var producer_thread = try std.os.spawnThread(&gProducer_context, producer);
  20b291:	48 8b 45 c8          	mov    rax,QWORD PTR [rbp-0x38]
  20b295:	48 89 85 70 ff ff ff 	mov    QWORD PTR [rbp-0x90],rax
    var consumer_thread = try std.os.spawnThread(&gConsumer_context, consumer);
  20b29c:	48 8b b5 50 ff ff ff 	mov    rsi,QWORD PTR [rbp-0xb0]
  20b2a3:	e8 b8 0f 00 00       	call   20c260 <spawnThread.17>
  20b2a8:	66 83 7d a0 00       	cmp    WORD PTR [rbp-0x60],0x0
  20b2ad:	74 29                	je     20b2d8 <Futex+0x128>
        gProducer_wait_count + gConsumer_wait_count, gProducer_wake_count + gConsumer_wake_count);
  20b2af:	48 8b 05 4a 8d 03 00 	mov    rax,QWORD PTR [rip+0x38d4a]        # 244000 <gProducer_wait_count>
  20b2b6:	48 03 05 4b 8d 03 00 	add    rax,QWORD PTR [rip+0x38d4b]        # 244008 <gConsumer_wait_count>
  20b2bd:	0f 92 c1             	setb   cl
  20b2c0:	48 89 85 28 ff ff ff 	mov    QWORD PTR [rbp-0xd8],rax
  20b2c7:	88 8d 27 ff ff ff    	mov    BYTE PTR [rbp-0xd9],cl
  20b2cd:	0f 82 59 01 00 00    	jb     20b42c <Futex+0x27c>
  20b2d3:	e9 64 01 00 00       	jmp    20b43c <Futex+0x28c>
    var consumer_thread = try std.os.spawnThread(&gConsumer_context, consumer);
  20b2d8:	48 8b 45 a8          	mov    rax,QWORD PTR [rbp-0x58]
  20b2dc:	48 89 85 68 ff ff ff 	mov    QWORD PTR [rbp-0x98],rax

    producer_thread.wait();
  20b2e3:	48 8b bd 70 ff ff ff 	mov    rdi,QWORD PTR [rbp-0x90]
  20b2ea:	e8 b1 14 00 00       	call   20c7a0 <Thread_wait>
    consumer_thread.wait();
  20b2ef:	48 8b bd 68 ff ff ff 	mov    rdi,QWORD PTR [rbp-0x98]
  20b2f6:	e8 a5 14 00 00       	call   20c7a0 <Thread_wait>
  20b2fb:	48 8d 7d 80          	lea    rdi,[rbp-0x80]

    var end_time = timer.read();
  20b2ff:	e8 cc 09 00 00       	call   20bcd0 <Timer_read>
  20b304:	48 89 85 60 ff ff ff 	mov    QWORD PTR [rbp-0xa0],rax
    var duration = end_time - start_time;
  20b30b:	48 8b 85 60 ff ff ff 	mov    rax,QWORD PTR [rbp-0xa0]
  20b312:	48 2b 85 78 ff ff ff 	sub    rax,QWORD PTR [rbp-0x88]
  20b319:	0f 92 c1             	setb   cl
  20b31c:	48 89 85 18 ff ff ff 	mov    QWORD PTR [rbp-0xe8],rax
  20b323:	88 8d 17 ff ff ff    	mov    BYTE PTR [rbp-0xe9],cl
  20b329:	0f 82 79 01 00 00    	jb     20b4a8 <Futex+0x2f8>
  20b32f:	e9 84 01 00 00       	jmp    20b4b8 <Futex+0x308>
  20b334:	48 8d 3d 8d 7e 03 00 	lea    rdi,[rip+0x37e8d]        # 2431c8 <__unnamed_4>
  20b33b:	31 c0                	xor    eax,eax
  20b33d:	89 c6                	mov    esi,eax
        gProducer_wait_count + gConsumer_wait_count, gProducer_wake_count + gConsumer_wake_count);
  20b33f:	e8 bc 02 00 00       	call   20b600 <panic>
  20b344:	48 8b 05 c5 8c 03 00 	mov    rax,QWORD PTR [rip+0x38cc5]        # 244010 <gProducer_wake_count>
  20b34b:	48 03 05 c6 8c 03 00 	add    rax,QWORD PTR [rip+0x38cc6]        # 244018 <gConsumer_wake_count>
  20b352:	0f 92 c1             	setb   cl
  20b355:	48 89 85 08 ff ff ff 	mov    QWORD PTR [rbp-0xf8],rax
  20b35c:	88 8d 07 ff ff ff    	mov    BYTE PTR [rbp-0xf9],cl
  20b362:	72 02                	jb     20b366 <Futex+0x1b6>
  20b364:	eb 10                	jmp    20b376 <Futex+0x1c6>
  20b366:	48 8d 3d 5b 7e 03 00 	lea    rdi,[rip+0x37e5b]        # 2431c8 <__unnamed_4>
  20b36d:	31 c0                	xor    eax,eax
  20b36f:	89 c6                	mov    esi,eax
  20b371:	e8 8a 02 00 00       	call   20b600 <panic>
    defer warn("test Futex:- futex_wait counts={} futex_wake counts={}\n",
  20b376:	48 8b bd 48 ff ff ff 	mov    rdi,QWORD PTR [rbp-0xb8]
  20b37d:	48 8b b5 08 ff ff ff 	mov    rsi,QWORD PTR [rbp-0xf8]
  20b384:	e8 37 08 00 00       	call   20bbc0 <warn.16>
    var timer = try Timer.start();
  20b389:	66 8b 45 e8          	mov    ax,WORD PTR [rbp-0x18]
  20b38d:	48 8b bd 50 ff ff ff 	mov    rdi,QWORD PTR [rbp-0xb0]
  20b394:	66 89 85 04 ff ff ff 	mov    WORD PTR [rbp-0xfc],ax
  20b39b:	e8 f0 08 00 00       	call   20bc90 <__zig_return_error>
  20b3a0:	66 8b 85 04 ff ff ff 	mov    ax,WORD PTR [rbp-0xfc]
  20b3a7:	48 81 c4 60 01 00 00 	add    rsp,0x160
  20b3ae:	5d                   	pop    rbp
  20b3af:	c3                   	ret    
  20b3b0:	48 8d 3d 11 7e 03 00 	lea    rdi,[rip+0x37e11]        # 2431c8 <__unnamed_4>
  20b3b7:	31 c0                	xor    eax,eax
  20b3b9:	89 c6                	mov    esi,eax
        gProducer_wait_count + gConsumer_wait_count, gProducer_wake_count + gConsumer_wake_count);
  20b3bb:	e8 40 02 00 00       	call   20b600 <panic>
  20b3c0:	48 8b 05 49 8c 03 00 	mov    rax,QWORD PTR [rip+0x38c49]        # 244010 <gProducer_wake_count>
  20b3c7:	48 03 05 4a 8c 03 00 	add    rax,QWORD PTR [rip+0x38c4a]        # 244018 <gConsumer_wake_count>
  20b3ce:	0f 92 c1             	setb   cl
  20b3d1:	48 89 85 f8 fe ff ff 	mov    QWORD PTR [rbp-0x108],rax
  20b3d8:	88 8d f7 fe ff ff    	mov    BYTE PTR [rbp-0x109],cl
  20b3de:	72 02                	jb     20b3e2 <Futex+0x232>
  20b3e0:	eb 10                	jmp    20b3f2 <Futex+0x242>
  20b3e2:	48 8d 3d df 7d 03 00 	lea    rdi,[rip+0x37ddf]        # 2431c8 <__unnamed_4>
  20b3e9:	31 c0                	xor    eax,eax
  20b3eb:	89 c6                	mov    esi,eax
  20b3ed:	e8 0e 02 00 00       	call   20b600 <panic>
    defer warn("test Futex:- futex_wait counts={} futex_wake counts={}\n",
  20b3f2:	48 8b bd 38 ff ff ff 	mov    rdi,QWORD PTR [rbp-0xc8]
  20b3f9:	48 8b b5 f8 fe ff ff 	mov    rsi,QWORD PTR [rbp-0x108]
  20b400:	e8 bb 07 00 00       	call   20bbc0 <warn.16>
    var producer_thread = try std.os.spawnThread(&gProducer_context, producer);
  20b405:	66 8b 45 c0          	mov    ax,WORD PTR [rbp-0x40]
  20b409:	48 8b bd 50 ff ff ff 	mov    rdi,QWORD PTR [rbp-0xb0]
  20b410:	66 89 85 f4 fe ff ff 	mov    WORD PTR [rbp-0x10c],ax
  20b417:	e8 74 08 00 00       	call   20bc90 <__zig_return_error>
  20b41c:	66 8b 85 f4 fe ff ff 	mov    ax,WORD PTR [rbp-0x10c]
  20b423:	48 81 c4 60 01 00 00 	add    rsp,0x160
  20b42a:	5d                   	pop    rbp
  20b42b:	c3                   	ret    
  20b42c:	48 8d 3d 95 7d 03 00 	lea    rdi,[rip+0x37d95]        # 2431c8 <__unnamed_4>
  20b433:	31 c0                	xor    eax,eax
  20b435:	89 c6                	mov    esi,eax
        gProducer_wait_count + gConsumer_wait_count, gProducer_wake_count + gConsumer_wake_count);
  20b437:	e8 c4 01 00 00       	call   20b600 <panic>
  20b43c:	48 8b 05 cd 8b 03 00 	mov    rax,QWORD PTR [rip+0x38bcd]        # 244010 <gProducer_wake_count>
  20b443:	48 03 05 ce 8b 03 00 	add    rax,QWORD PTR [rip+0x38bce]        # 244018 <gConsumer_wake_count>
  20b44a:	0f 92 c1             	setb   cl
  20b44d:	48 89 85 e8 fe ff ff 	mov    QWORD PTR [rbp-0x118],rax
  20b454:	88 8d e7 fe ff ff    	mov    BYTE PTR [rbp-0x119],cl
  20b45a:	72 02                	jb     20b45e <Futex+0x2ae>
  20b45c:	eb 10                	jmp    20b46e <Futex+0x2be>
  20b45e:	48 8d 3d 63 7d 03 00 	lea    rdi,[rip+0x37d63]        # 2431c8 <__unnamed_4>
  20b465:	31 c0                	xor    eax,eax
  20b467:	89 c6                	mov    esi,eax
  20b469:	e8 92 01 00 00       	call   20b600 <panic>
    defer warn("test Futex:- futex_wait counts={} futex_wake counts={}\n",
  20b46e:	48 8b bd 28 ff ff ff 	mov    rdi,QWORD PTR [rbp-0xd8]
  20b475:	48 8b b5 e8 fe ff ff 	mov    rsi,QWORD PTR [rbp-0x118]
  20b47c:	e8 3f 07 00 00       	call   20bbc0 <warn.16>
    var consumer_thread = try std.os.spawnThread(&gConsumer_context, consumer);
  20b481:	66 8b 45 a0          	mov    ax,WORD PTR [rbp-0x60]
  20b485:	48 8b bd 50 ff ff ff 	mov    rdi,QWORD PTR [rbp-0xb0]
  20b48c:	66 89 85 e4 fe ff ff 	mov    WORD PTR [rbp-0x11c],ax
  20b493:	e8 f8 07 00 00       	call   20bc90 <__zig_return_error>
  20b498:	66 8b 85 e4 fe ff ff 	mov    ax,WORD PTR [rbp-0x11c]
  20b49f:	48 81 c4 60 01 00 00 	add    rsp,0x160
  20b4a6:	5d                   	pop    rbp
  20b4a7:	c3                   	ret    
  20b4a8:	48 8d 3d 19 7d 03 00 	lea    rdi,[rip+0x37d19]        # 2431c8 <__unnamed_4>
  20b4af:	31 c0                	xor    eax,eax
  20b4b1:	89 c6                	mov    esi,eax
    var duration = end_time - start_time;
  20b4b3:	e8 48 01 00 00       	call   20b600 <panic>
  20b4b8:	48 8b 85 18 ff ff ff 	mov    rax,QWORD PTR [rbp-0xe8]
  20b4bf:	48 89 85 58 ff ff ff 	mov    QWORD PTR [rbp-0xa8],rax
    warn("test Futex: time={.6}\n", @intToFloat(f64, end_time - start_time) / @intToFloat(f64, std.os.time.ns_per_s));
  20b4c6:	48 8b 8d 60 ff ff ff 	mov    rcx,QWORD PTR [rbp-0xa0]
  20b4cd:	48 2b 8d 78 ff ff ff 	sub    rcx,QWORD PTR [rbp-0x88]
  20b4d4:	0f 92 c2             	setb   dl
  20b4d7:	48 89 8d d8 fe ff ff 	mov    QWORD PTR [rbp-0x128],rcx
  20b4de:	88 95 d7 fe ff ff    	mov    BYTE PTR [rbp-0x129],dl
  20b4e4:	72 02                	jb     20b4e8 <Futex+0x338>
  20b4e6:	eb 10                	jmp    20b4f8 <Futex+0x348>
  20b4e8:	48 8d 3d d9 7c 03 00 	lea    rdi,[rip+0x37cd9]        # 2431c8 <__unnamed_4>
  20b4ef:	31 c0                	xor    eax,eax
  20b4f1:	89 c6                	mov    esi,eax
  20b4f3:	e8 08 01 00 00       	call   20b600 <panic>
  20b4f8:	31 c0                	xor    eax,eax
  20b4fa:	88 c1                	mov    cl,al
  20b4fc:	48 8b 95 d8 fe ff ff 	mov    rdx,QWORD PTR [rbp-0x128]
  20b503:	c4 e1 f9 6e c2       	vmovq  xmm0,rdx
  20b508:	c5 f9 6f 0d 90 4c ff 	vmovdqa xmm1,XMMWORD PTR [rip+0xffffffffffff4c90]        # 2001a0 <__unnamed_313-0x10>
  20b50f:	ff 
  20b510:	c5 f9 62 c1          	vpunpckldq xmm0,xmm0,xmm1
  20b514:	c5 f9 28 0d c4 51 ff 	vmovapd xmm1,XMMWORD PTR [rip+0xffffffffffff51c4]        # 2006e0 <__unnamed_69+0x10>
  20b51b:	ff 
  20b51c:	c5 f9 5c c1          	vsubpd xmm0,xmm0,xmm1
  20b520:	c5 f9 7c c0          	vhaddpd xmm0,xmm0,xmm0
  20b524:	f6 c1 01             	test   cl,0x1
  20b527:	c5 fb 11 85 c8 fe ff 	vmovsd QWORD PTR [rbp-0x138],xmm0
  20b52e:	ff 
  20b52f:	75 51                	jne    20b582 <Futex+0x3d2>
  20b531:	c5 fb 10 05 9f 56 ff 	vmovsd xmm0,QWORD PTR [rip+0xffffffffffff569f]        # 200bd8 <__unnamed_185+0x8>
  20b538:	ff 
  20b539:	c5 fb 10 8d c8 fe ff 	vmovsd xmm1,QWORD PTR [rbp-0x138]
  20b540:	ff 
  20b541:	c5 f3 5e c0          	vdivsd xmm0,xmm1,xmm0
  20b545:	e8 16 13 00 00       	call   20c860 <warn.18>

    assert(gCounter == max_counter * 2);
  20b54a:	48 81 3d cb 8a 03 00 	cmp    QWORD PTR [rip+0x38acb],0x1312d00        # 244020 <gCounter>
  20b551:	00 2d 31 01 
  20b555:	0f 94 c0             	sete   al
  20b558:	0f b6 f8             	movzx  edi,al
  20b55b:	e8 a0 fa ff ff       	call   20b000 <assert>
        gProducer_wait_count + gConsumer_wait_count, gProducer_wake_count + gConsumer_wake_count);
  20b560:	48 8b 0d 99 8a 03 00 	mov    rcx,QWORD PTR [rip+0x38a99]        # 244000 <gProducer_wait_count>
  20b567:	48 03 0d 9a 8a 03 00 	add    rcx,QWORD PTR [rip+0x38a9a]        # 244008 <gConsumer_wait_count>
  20b56e:	0f 92 c0             	setb   al
  20b571:	48 89 8d c0 fe ff ff 	mov    QWORD PTR [rbp-0x140],rcx
  20b578:	88 85 bf fe ff ff    	mov    BYTE PTR [rbp-0x141],al
  20b57e:	72 12                	jb     20b592 <Futex+0x3e2>
  20b580:	eb 20                	jmp    20b5a2 <Futex+0x3f2>
  20b582:	48 8d 3d b7 7c 03 00 	lea    rdi,[rip+0x37cb7]        # 243240 <__unnamed_7>
  20b589:	31 c0                	xor    eax,eax
  20b58b:	89 c6                	mov    esi,eax
    warn("test Futex: time={.6}\n", @intToFloat(f64, end_time - start_time) / @intToFloat(f64, std.os.time.ns_per_s));
  20b58d:	e8 6e 00 00 00       	call   20b600 <panic>
  20b592:	48 8d 3d 2f 7c 03 00 	lea    rdi,[rip+0x37c2f]        # 2431c8 <__unnamed_4>
  20b599:	31 c0                	xor    eax,eax
  20b59b:	89 c6                	mov    esi,eax
        gProducer_wait_count + gConsumer_wait_count, gProducer_wake_count + gConsumer_wake_count);
  20b59d:	e8 5e 00 00 00       	call   20b600 <panic>
  20b5a2:	48 8b 05 67 8a 03 00 	mov    rax,QWORD PTR [rip+0x38a67]        # 244010 <gProducer_wake_count>
  20b5a9:	48 03 05 68 8a 03 00 	add    rax,QWORD PTR [rip+0x38a68]        # 244018 <gConsumer_wake_count>
  20b5b0:	0f 92 c1             	setb   cl
  20b5b3:	48 89 85 b0 fe ff ff 	mov    QWORD PTR [rbp-0x150],rax
  20b5ba:	88 8d af fe ff ff    	mov    BYTE PTR [rbp-0x151],cl
  20b5c0:	72 02                	jb     20b5c4 <Futex+0x414>
  20b5c2:	eb 10                	jmp    20b5d4 <Futex+0x424>
  20b5c4:	48 8d 3d fd 7b 03 00 	lea    rdi,[rip+0x37bfd]        # 2431c8 <__unnamed_4>
  20b5cb:	31 c0                	xor    eax,eax
  20b5cd:	89 c6                	mov    esi,eax
  20b5cf:	e8 2c 00 00 00       	call   20b600 <panic>
    defer warn("test Futex:- futex_wait counts={} futex_wake counts={}\n",
  20b5d4:	48 8b bd c0 fe ff ff 	mov    rdi,QWORD PTR [rbp-0x140]
  20b5db:	48 8b b5 b0 fe ff ff 	mov    rsi,QWORD PTR [rbp-0x150]
  20b5e2:	e8 d9 05 00 00       	call   20bbc0 <warn.16>
  20b5e7:	31 c0                	xor    eax,eax
  20b5e9:	66 89 c1             	mov    cx,ax
test "Futex" {
  20b5ec:	66 89 c8             	mov    ax,cx
  20b5ef:	48 81 c4 60 01 00 00 	add    rsp,0x160
  20b5f6:	5d                   	pop    rbp
  20b5f7:	c3                   	ret    
  20b5f8:	0f 1f 84 00 00 00 00 	nop    DWORD PTR [rax+rax*1+0x0]
  20b5ff:	00 

000000000020b600 <panic>:
// have to be added in the compiler.

const builtin = @import("builtin");
const std = @import("std");

pub fn panic(msg: []const u8, error_return_trace: ?*builtin.StackTrace) noreturn {
  20b600:	55                   	push   rbp
  20b601:	48 89 e5             	mov    rbp,rsp
  20b604:	48 83 ec 30          	sub    rsp,0x30
  20b608:	48 8d 45 f0          	lea    rax,[rbp-0x10]
  20b60c:	48 89 75 e8          	mov    QWORD PTR [rbp-0x18],rsi
        // TODO: fix panic in zen.
        builtin.Os.freestanding, builtin.Os.zen => {
            while (true) {}
        },
        else => {
            const first_trace_addr = @ptrToInt(@returnAddress());
  20b610:	48 8b 75 08          	mov    rsi,QWORD PTR [rbp+0x8]
  20b614:	48 89 75 e0          	mov    QWORD PTR [rbp-0x20],rsi
            std.debug.panicExtra(error_return_trace, first_trace_addr, "{}", msg);
  20b618:	48 8b 75 e8          	mov    rsi,QWORD PTR [rbp-0x18]
  20b61c:	48 8b 4d e0          	mov    rcx,QWORD PTR [rbp-0x20]
  20b620:	48 89 4d f0          	mov    QWORD PTR [rbp-0x10],rcx
  20b624:	c6 45 f8 01          	mov    BYTE PTR [rbp-0x8],0x1
  20b628:	48 89 7d d8          	mov    QWORD PTR [rbp-0x28],rdi
  20b62c:	48 89 f7             	mov    rdi,rsi
  20b62f:	48 89 c6             	mov    rsi,rax
  20b632:	48 8b 55 d8          	mov    rdx,QWORD PTR [rbp-0x28]
  20b636:	e8 05 00 00 00       	call   20b640 <panicExtra>
  20b63b:	0f 1f 44 00 00       	nop    DWORD PTR [rax+rax*1+0x0]

000000000020b640 <panicExtra>:
    panicExtra(null, first_trace_addr, format, args);
}

var panicking: u8 = 0; // TODO make this a bool

pub fn panicExtra(trace: ?*const builtin.StackTrace, first_trace_addr: ?usize, comptime format: []const u8, args: ...) noreturn {
  20b640:	55                   	push   rbp
  20b641:	48 89 e5             	mov    rbp,rsp
  20b644:	48 81 ec 60 01 00 00 	sub    rsp,0x160
  20b64b:	48 c7 85 f8 fe ff ff 	mov    QWORD PTR [rbp-0x108],0x0
  20b652:	00 00 00 00 
  20b656:	48 8d 85 10 ff ff ff 	lea    rax,[rbp-0xf0]
  20b65d:	48 89 85 00 ff ff ff 	mov    QWORD PTR [rbp-0x100],rax
  20b664:	48 c7 85 08 ff ff ff 	mov    QWORD PTR [rbp-0xf8],0x1e
  20b66b:	1e 00 00 00 
  20b66f:	48 89 bd c8 fe ff ff 	mov    QWORD PTR [rbp-0x138],rdi
    @setCold(true);

    if (@atomicRmw(u8, &panicking, builtin.AtomicRmwOp.Xchg, 1, builtin.AtomicOrder.SeqCst) == 1) {
  20b676:	b1 01                	mov    cl,0x1
  20b678:	86 0d aa 89 03 00    	xchg   BYTE PTR [rip+0x389aa],cl        # 244028 <panicking>
  20b67e:	80 f9 01             	cmp    cl,0x1
  20b681:	48 89 b5 b0 fe ff ff 	mov    QWORD PTR [rbp-0x150],rsi
  20b688:	48 89 95 a8 fe ff ff 	mov    QWORD PTR [rbp-0x158],rdx
  20b68f:	75 05                	jne    20b696 <panicExtra+0x56>
        // Panicked during a panic.

        // TODO detect if a different thread caused the panic, because in that case
        // we would want to return here instead of calling abort, so that the thread
        // which first called panic can finish printing a stack trace.
        os.abort();
  20b691:	e8 8a 12 00 00       	call   20c920 <abort>
    if (@atomicRmw(u8, &panicking, builtin.AtomicRmwOp.Xchg, 1, builtin.AtomicOrder.SeqCst) == 1) {
  20b696:	eb 00                	jmp    20b698 <panicExtra+0x58>
  20b698:	48 8d bd e8 fe ff ff 	lea    rdi,[rbp-0x118]
  20b69f:	48 8d b5 f8 fe ff ff 	lea    rsi,[rbp-0x108]
    }
    const stderr = getStderrStream() catch os.abort();
  20b6a6:	e8 a5 12 00 00       	call   20c950 <getStderrStream>
  20b6ab:	66 83 bd e8 fe ff ff 	cmp    WORD PTR [rbp-0x118],0x0
  20b6b2:	00 
  20b6b3:	74 05                	je     20b6ba <panicExtra+0x7a>
  20b6b5:	e8 66 12 00 00       	call   20c920 <abort>
  20b6ba:	48 8b 85 f0 fe ff ff 	mov    rax,QWORD PTR [rbp-0x110]
  20b6c1:	48 89 85 a0 fe ff ff 	mov    QWORD PTR [rbp-0x160],rax
  20b6c8:	48 8d bd f8 fe ff ff 	lea    rdi,[rbp-0x108]
  20b6cf:	48 8b 85 a0 fe ff ff 	mov    rax,QWORD PTR [rbp-0x160]
  20b6d6:	48 89 85 c0 fe ff ff 	mov    QWORD PTR [rbp-0x140],rax
    stderr.print(format ++ "\n", args) catch os.abort();
  20b6dd:	48 8b b5 c0 fe ff ff 	mov    rsi,QWORD PTR [rbp-0x140]
  20b6e4:	48 8b 95 a8 fe ff ff 	mov    rdx,QWORD PTR [rbp-0x158]
  20b6eb:	e8 70 13 00 00       	call   20ca60 <OutStream(error{SystemResources,OperationAborted,IoPending,BrokenPipe,Unexpected,WouldBlock,FileClosed,DestinationAddressRequired,DiskQuota,FileTooBig,InputOutput,NoSpaceLeft,AccessDenied,})_print>
  20b6f0:	66 89 85 d6 fe ff ff 	mov    WORD PTR [rbp-0x12a],ax
  20b6f7:	66 83 bd d6 fe ff ff 	cmp    WORD PTR [rbp-0x12a],0x0
  20b6fe:	00 
  20b6ff:	74 05                	je     20b706 <panicExtra+0xc6>
  20b701:	e8 1a 12 00 00       	call   20c920 <abort>
    if (trace) |t| {
  20b706:	48 83 bd c8 fe ff ff 	cmp    QWORD PTR [rbp-0x138],0x0
  20b70d:	00 
  20b70e:	74 1c                	je     20b72c <panicExtra+0xec>
  20b710:	48 8b 85 c8 fe ff ff 	mov    rax,QWORD PTR [rbp-0x138]
  20b717:	48 89 85 b8 fe ff ff 	mov    QWORD PTR [rbp-0x148],rax
        dumpStackTrace(t);
  20b71e:	48 8b bd b8 fe ff ff 	mov    rdi,QWORD PTR [rbp-0x148]
  20b725:	e8 86 13 00 00       	call   20cab0 <dumpStackTrace>
    if (trace) |t| {
  20b72a:	eb 02                	jmp    20b72e <panicExtra+0xee>
  20b72c:	eb 00                	jmp    20b72e <panicExtra+0xee>
    }
    dumpCurrentStackTrace(first_trace_addr);
  20b72e:	48 8b bd b0 fe ff ff 	mov    rdi,QWORD PTR [rbp-0x150]
  20b735:	e8 26 16 00 00       	call   20cd60 <dumpCurrentStackTrace>

    os.abort();
  20b73a:	e8 e1 11 00 00       	call   20c920 <abort>
  20b73f:	90                   	nop

000000000020b740 <warn>:
pub fn warn(comptime fmt: []const u8, args: ...) void {
  20b740:	55                   	push   rbp
  20b741:	48 89 e5             	mov    rbp,rsp
  20b744:	48 81 ec 40 01 00 00 	sub    rsp,0x140
  20b74b:	48 8d bd e8 fe ff ff 	lea    rdi,[rbp-0x118]
  20b752:	48 8d b5 f8 fe ff ff 	lea    rsi,[rbp-0x108]
  20b759:	48 8d 85 10 ff ff ff 	lea    rax,[rbp-0xf0]
  20b760:	48 c7 85 f8 fe ff ff 	mov    QWORD PTR [rbp-0x108],0x0
  20b767:	00 00 00 00 
  20b76b:	48 89 85 00 ff ff ff 	mov    QWORD PTR [rbp-0x100],rax
  20b772:	48 c7 85 08 ff ff ff 	mov    QWORD PTR [rbp-0xf8],0x1e
  20b779:	1e 00 00 00 
    const stderr = getStderrStream() catch return;
  20b77d:	e8 ce 11 00 00       	call   20c950 <getStderrStream>
  20b782:	66 83 bd e8 fe ff ff 	cmp    WORD PTR [rbp-0x118],0x0
  20b789:	00 
  20b78a:	74 09                	je     20b795 <warn+0x55>
  20b78c:	48 81 c4 40 01 00 00 	add    rsp,0x140
  20b793:	5d                   	pop    rbp
  20b794:	c3                   	ret    
  20b795:	48 8b 85 f0 fe ff ff 	mov    rax,QWORD PTR [rbp-0x110]
  20b79c:	48 89 85 c0 fe ff ff 	mov    QWORD PTR [rbp-0x140],rax
  20b7a3:	48 8d bd f8 fe ff ff 	lea    rdi,[rbp-0x108]
  20b7aa:	48 8b 85 c0 fe ff ff 	mov    rax,QWORD PTR [rbp-0x140]
  20b7b1:	48 89 85 c8 fe ff ff 	mov    QWORD PTR [rbp-0x138],rax
    stderr.print(fmt, args) catch return;
  20b7b8:	48 8b b5 c8 fe ff ff 	mov    rsi,QWORD PTR [rbp-0x138]
  20b7bf:	e8 3c 18 00 00       	call   20d000 <OutStream(error{SystemResources,OperationAborted,IoPending,BrokenPipe,Unexpected,WouldBlock,FileClosed,DestinationAddressRequired,DiskQuota,FileTooBig,InputOutput,NoSpaceLeft,AccessDenied,})_print.19>
  20b7c4:	66 89 85 d6 fe ff ff 	mov    WORD PTR [rbp-0x12a],ax
  20b7cb:	66 83 bd d6 fe ff ff 	cmp    WORD PTR [rbp-0x12a],0x0
  20b7d2:	00 
  20b7d3:	74 09                	je     20b7de <warn+0x9e>
  20b7d5:	48 81 c4 40 01 00 00 	add    rsp,0x140
  20b7dc:	5d                   	pop    rbp
  20b7dd:	c3                   	ret    
pub fn warn(comptime fmt: []const u8, args: ...) void {
  20b7de:	48 81 c4 40 01 00 00 	add    rsp,0x140
  20b7e5:	5d                   	pop    rbp
  20b7e6:	c3                   	ret    
  20b7e7:	66 0f 1f 84 00 00 00 	nop    WORD PTR [rax+rax*1+0x0]
  20b7ee:	00 00 

000000000020b7f0 <ThreadContext_init>:
    pub fn init(pSelf: *Self) void {
  20b7f0:	55                   	push   rbp
  20b7f1:	48 89 e5             	mov    rbp,rsp
  20b7f4:	48 89 7d f8          	mov    QWORD PTR [rbp-0x8],rdi
        pSelf.counter = 0;
  20b7f8:	48 8b 7d f8          	mov    rdi,QWORD PTR [rbp-0x8]
  20b7fc:	48 c7 47 08 00 00 00 	mov    QWORD PTR [rdi+0x8],0x0
  20b803:	00 
  20b804:	48 c7 07 00 00 00 00 	mov    QWORD PTR [rdi],0x0
    pub fn init(pSelf: *Self) void {
  20b80b:	5d                   	pop    rbp
  20b80c:	c3                   	ret    
  20b80d:	0f 1f 00             	nop    DWORD PTR [rax]

000000000020b810 <Timer_start>:
    pub fn start() TimerError!Timer {
  20b810:	55                   	push   rbp
  20b811:	48 89 e5             	mov    rbp,rsp
  20b814:	48 81 ec 30 01 00 00 	sub    rsp,0x130
  20b81b:	48 89 f8             	mov    rax,rdi
        var self: Timer = undefined;
  20b81e:	c5 fa 6f 05 8a 4a ff 	vmovdqu xmm0,XMMWORD PTR [rip+0xffffffffffff4a8a]        # 2002b0 <__unnamed_100>
  20b825:	ff 
  20b826:	c5 f9 7f 45 a0       	vmovdqa XMMWORD PTR [rbp-0x60],xmm0
                var ts: posix.timespec = undefined;
  20b82b:	c5 fa 6f 05 7d 4a ff 	vmovdqu xmm0,XMMWORD PTR [rip+0xffffffffffff4a7d]        # 2002b0 <__unnamed_100>
  20b832:	ff 
  20b833:	c5 f9 7f 45 90       	vmovdqa XMMWORD PTR [rbp-0x70],xmm0
                var result = posix.clock_getres(monotonic_clock_id, &ts);
  20b838:	b9 01 00 00 00       	mov    ecx,0x1
  20b83d:	48 8d 55 90          	lea    rdx,[rbp-0x70]
  20b841:	48 89 bd 78 ff ff ff 	mov    QWORD PTR [rbp-0x88],rdi
  20b848:	89 cf                	mov    edi,ecx
  20b84a:	48 89 b5 70 ff ff ff 	mov    QWORD PTR [rbp-0x90],rsi
  20b851:	48 89 d6             	mov    rsi,rdx
  20b854:	48 89 85 68 ff ff ff 	mov    QWORD PTR [rbp-0x98],rax
  20b85b:	e8 f0 17 00 00       	call   20d050 <clock_getres>
  20b860:	48 89 45 88          	mov    QWORD PTR [rbp-0x78],rax
                var errno = posix.getErrno(result);
  20b864:	48 8b 7d 88          	mov    rdi,QWORD PTR [rbp-0x78]
  20b868:	e8 13 18 00 00       	call   20d080 <getErrno>
  20b86d:	48 89 45 80          	mov    QWORD PTR [rbp-0x80],rax
                switch (errno) {
  20b871:	48 8b 45 80          	mov    rax,QWORD PTR [rbp-0x80]
  20b875:	48 85 c0             	test   rax,rax
  20b878:	48 89 85 60 ff ff ff 	mov    QWORD PTR [rbp-0xa0],rax
  20b87f:	74 74                	je     20b8f5 <Timer_start+0xe5>
  20b881:	eb 00                	jmp    20b883 <Timer_start+0x73>
  20b883:	48 8b 85 60 ff ff ff 	mov    rax,QWORD PTR [rbp-0xa0]
  20b88a:	48 83 e8 16          	sub    rax,0x16
  20b88e:	48 89 85 58 ff ff ff 	mov    QWORD PTR [rbp-0xa8],rax
  20b895:	74 60                	je     20b8f7 <Timer_start+0xe7>
  20b897:	eb 00                	jmp    20b899 <Timer_start+0x89>
                    else => return std.os.unexpectedErrorPosix(errno),
  20b899:	48 8b 75 80          	mov    rsi,QWORD PTR [rbp-0x80]
  20b89d:	48 8b bd 70 ff ff ff 	mov    rdi,QWORD PTR [rbp-0x90]
  20b8a4:	e8 77 18 00 00       	call   20d120 <unexpectedErrorPosix>
  20b8a9:	48 8b bd 70 ff ff ff 	mov    rdi,QWORD PTR [rbp-0x90]
  20b8b0:	66 89 85 56 ff ff ff 	mov    WORD PTR [rbp-0xaa],ax
  20b8b7:	e8 d4 03 00 00       	call   20bc90 <__zig_return_error>
  20b8bc:	66 8b 85 56 ff ff ff 	mov    ax,WORD PTR [rbp-0xaa]
  20b8c3:	66 89 45 e8          	mov    WORD PTR [rbp-0x18],ax
  20b8c7:	48 8b 75 e8          	mov    rsi,QWORD PTR [rbp-0x18]
  20b8cb:	48 8b bd 78 ff ff ff 	mov    rdi,QWORD PTR [rbp-0x88]
  20b8d2:	48 89 37             	mov    QWORD PTR [rdi],rsi
  20b8d5:	48 8b 75 f0          	mov    rsi,QWORD PTR [rbp-0x10]
  20b8d9:	48 89 77 08          	mov    QWORD PTR [rdi+0x8],rsi
  20b8dd:	48 8b 75 f8          	mov    rsi,QWORD PTR [rbp-0x8]
  20b8e1:	48 89 77 10          	mov    QWORD PTR [rdi+0x10],rsi
  20b8e5:	48 8b 85 68 ff ff ff 	mov    rax,QWORD PTR [rbp-0x98]
  20b8ec:	48 81 c4 30 01 00 00 	add    rsp,0x130
  20b8f3:	5d                   	pop    rbp
  20b8f4:	c3                   	ret    
                switch (errno) {
  20b8f5:	eb 43                	jmp    20b93a <Timer_start+0x12a>
                    posix.EINVAL => return error.TimerUnsupported,
  20b8f7:	48 8b bd 70 ff ff ff 	mov    rdi,QWORD PTR [rbp-0x90]
  20b8fe:	e8 8d 03 00 00       	call   20bc90 <__zig_return_error>
  20b903:	48 8b 3d e6 d1 ff ff 	mov    rdi,QWORD PTR [rip+0xffffffffffffd1e6]        # 208af0 <__unnamed_10>
  20b90a:	48 8b 85 78 ff ff ff 	mov    rax,QWORD PTR [rbp-0x88]
  20b911:	48 89 38             	mov    QWORD PTR [rax],rdi
  20b914:	48 8b 3d dd d1 ff ff 	mov    rdi,QWORD PTR [rip+0xffffffffffffd1dd]        # 208af8 <__unnamed_10+0x8>
  20b91b:	48 89 78 08          	mov    QWORD PTR [rax+0x8],rdi
  20b91f:	48 8b 3d da d1 ff ff 	mov    rdi,QWORD PTR [rip+0xffffffffffffd1da]        # 208b00 <__unnamed_10+0x10>
  20b926:	48 89 78 10          	mov    QWORD PTR [rax+0x10],rdi
  20b92a:	48 8b 85 68 ff ff ff 	mov    rax,QWORD PTR [rbp-0x98]
  20b931:	48 81 c4 30 01 00 00 	add    rsp,0x130
  20b938:	5d                   	pop    rbp
  20b939:	c3                   	ret    
  20b93a:	48 8d 45 a0          	lea    rax,[rbp-0x60]
                self.resolution = @intCast(u64, ts.tv_sec) * u64(ns_per_s) + @intCast(u64, ts.tv_nsec);
  20b93e:	48 8b 4d 90          	mov    rcx,QWORD PTR [rbp-0x70]
  20b942:	48 83 f9 00          	cmp    rcx,0x0
  20b946:	48 89 85 48 ff ff ff 	mov    QWORD PTR [rbp-0xb8],rax
  20b94d:	48 89 8d 40 ff ff ff 	mov    QWORD PTR [rbp-0xc0],rcx
  20b954:	0f 8d 8c 00 00 00    	jge    20b9e6 <Timer_start+0x1d6>
  20b95a:	e9 ae 00 00 00       	jmp    20ba0d <Timer_start+0x1fd>
                if (errno != 0) return std.os.unexpectedErrorPosix(errno);
  20b95f:	48 8b 75 80          	mov    rsi,QWORD PTR [rbp-0x80]
  20b963:	48 8b bd 70 ff ff ff 	mov    rdi,QWORD PTR [rbp-0x90]
  20b96a:	e8 b1 17 00 00       	call   20d120 <unexpectedErrorPosix>
  20b96f:	48 8b bd 70 ff ff ff 	mov    rdi,QWORD PTR [rbp-0x90]
  20b976:	66 89 85 3e ff ff ff 	mov    WORD PTR [rbp-0xc2],ax
  20b97d:	e8 0e 03 00 00       	call   20bc90 <__zig_return_error>
  20b982:	66 8b 85 3e ff ff ff 	mov    ax,WORD PTR [rbp-0xc2]
  20b989:	66 89 45 d0          	mov    WORD PTR [rbp-0x30],ax
  20b98d:	48 8b 75 d0          	mov    rsi,QWORD PTR [rbp-0x30]
  20b991:	48 8b bd 78 ff ff ff 	mov    rdi,QWORD PTR [rbp-0x88]
  20b998:	48 89 37             	mov    QWORD PTR [rdi],rsi
  20b99b:	48 8b 75 d8          	mov    rsi,QWORD PTR [rbp-0x28]
  20b99f:	48 89 77 08          	mov    QWORD PTR [rdi+0x8],rsi
  20b9a3:	48 8b 75 e0          	mov    rsi,QWORD PTR [rbp-0x20]
  20b9a7:	48 89 77 10          	mov    QWORD PTR [rdi+0x10],rsi
  20b9ab:	48 8b 85 68 ff ff ff 	mov    rax,QWORD PTR [rbp-0x98]
  20b9b2:	48 81 c4 30 01 00 00 	add    rsp,0x130
  20b9b9:	5d                   	pop    rbp
  20b9ba:	c3                   	ret    
  20b9bb:	eb 00                	jmp    20b9bd <Timer_start+0x1ad>
  20b9bd:	48 8d 45 a0          	lea    rax,[rbp-0x60]
                self.start_time = @intCast(u64, ts.tv_sec) * u64(ns_per_s) + @intCast(u64, ts.tv_nsec);
  20b9c1:	48 83 c0 08          	add    rax,0x8
  20b9c5:	48 8b 4d 90          	mov    rcx,QWORD PTR [rbp-0x70]
  20b9c9:	48 83 f9 00          	cmp    rcx,0x0
  20b9cd:	48 89 85 30 ff ff ff 	mov    QWORD PTR [rbp-0xd0],rax
  20b9d4:	48 89 8d 28 ff ff ff 	mov    QWORD PTR [rbp-0xd8],rcx
  20b9db:	0f 8d e2 00 00 00    	jge    20bac3 <Timer_start+0x2b3>
  20b9e1:	e9 04 01 00 00       	jmp    20baea <Timer_start+0x2da>
  20b9e6:	b8 00 ca 9a 3b       	mov    eax,0x3b9aca00
  20b9eb:	89 c1                	mov    ecx,eax
                self.resolution = @intCast(u64, ts.tv_sec) * u64(ns_per_s) + @intCast(u64, ts.tv_nsec);
  20b9ed:	48 8b 85 40 ff ff ff 	mov    rax,QWORD PTR [rbp-0xc0]
  20b9f4:	48 f7 e1             	mul    rcx
  20b9f7:	40 0f 90 c6          	seto   sil
  20b9fb:	48 89 85 20 ff ff ff 	mov    QWORD PTR [rbp-0xe0],rax
  20ba02:	40 88 b5 1f ff ff ff 	mov    BYTE PTR [rbp-0xe1],sil
  20ba09:	70 12                	jo     20ba1d <Timer_start+0x20d>
  20ba0b:	eb 20                	jmp    20ba2d <Timer_start+0x21d>
  20ba0d:	48 8d 3d 74 78 03 00 	lea    rdi,[rip+0x37874]        # 243288 <__unnamed_3>
  20ba14:	31 c0                	xor    eax,eax
  20ba16:	89 c6                	mov    esi,eax
  20ba18:	e8 e3 fb ff ff       	call   20b600 <panic>
  20ba1d:	48 8d 3d a4 77 03 00 	lea    rdi,[rip+0x377a4]        # 2431c8 <__unnamed_4>
  20ba24:	31 c0                	xor    eax,eax
  20ba26:	89 c6                	mov    esi,eax
  20ba28:	e8 d3 fb ff ff       	call   20b600 <panic>
  20ba2d:	48 8b 45 98          	mov    rax,QWORD PTR [rbp-0x68]
  20ba31:	48 83 f8 00          	cmp    rax,0x0
  20ba35:	48 89 85 10 ff ff ff 	mov    QWORD PTR [rbp-0xf0],rax
  20ba3c:	7c 25                	jl     20ba63 <Timer_start+0x253>
  20ba3e:	48 8b 85 20 ff ff ff 	mov    rax,QWORD PTR [rbp-0xe0]
  20ba45:	48 8b 8d 10 ff ff ff 	mov    rcx,QWORD PTR [rbp-0xf0]
  20ba4c:	48 01 c8             	add    rax,rcx
  20ba4f:	0f 92 c2             	setb   dl
  20ba52:	48 89 85 08 ff ff ff 	mov    QWORD PTR [rbp-0xf8],rax
  20ba59:	88 95 07 ff ff ff    	mov    BYTE PTR [rbp-0xf9],dl
  20ba5f:	72 12                	jb     20ba73 <Timer_start+0x263>
  20ba61:	eb 20                	jmp    20ba83 <Timer_start+0x273>
  20ba63:	48 8d 3d 1e 78 03 00 	lea    rdi,[rip+0x3781e]        # 243288 <__unnamed_3>
  20ba6a:	31 c0                	xor    eax,eax
  20ba6c:	89 c6                	mov    esi,eax
  20ba6e:	e8 8d fb ff ff       	call   20b600 <panic>
  20ba73:	48 8d 3d 4e 77 03 00 	lea    rdi,[rip+0x3774e]        # 2431c8 <__unnamed_4>
  20ba7a:	31 c0                	xor    eax,eax
  20ba7c:	89 c6                	mov    esi,eax
  20ba7e:	e8 7d fb ff ff       	call   20b600 <panic>
  20ba83:	bf 01 00 00 00       	mov    edi,0x1
  20ba88:	48 8d 75 90          	lea    rsi,[rbp-0x70]
  20ba8c:	48 8b 85 48 ff ff ff 	mov    rax,QWORD PTR [rbp-0xb8]
  20ba93:	48 8b 8d 08 ff ff ff 	mov    rcx,QWORD PTR [rbp-0xf8]
  20ba9a:	48 89 08             	mov    QWORD PTR [rax],rcx
                result = posix.clock_gettime(monotonic_clock_id, &ts);
  20ba9d:	e8 9e 16 00 00       	call   20d140 <clock_gettime>
  20baa2:	48 89 45 88          	mov    QWORD PTR [rbp-0x78],rax
                errno = posix.getErrno(result);
  20baa6:	48 8b 7d 88          	mov    rdi,QWORD PTR [rbp-0x78]
  20baaa:	e8 d1 15 00 00       	call   20d080 <getErrno>
  20baaf:	48 89 45 80          	mov    QWORD PTR [rbp-0x80],rax
                if (errno != 0) return std.os.unexpectedErrorPosix(errno);
  20bab3:	48 83 7d 80 00       	cmp    QWORD PTR [rbp-0x80],0x0
  20bab8:	0f 85 a1 fe ff ff    	jne    20b95f <Timer_start+0x14f>
  20babe:	e9 f8 fe ff ff       	jmp    20b9bb <Timer_start+0x1ab>
  20bac3:	b8 00 ca 9a 3b       	mov    eax,0x3b9aca00
  20bac8:	89 c1                	mov    ecx,eax
                self.start_time = @intCast(u64, ts.tv_sec) * u64(ns_per_s) + @intCast(u64, ts.tv_nsec);
  20baca:	48 8b 85 28 ff ff ff 	mov    rax,QWORD PTR [rbp-0xd8]
  20bad1:	48 f7 e1             	mul    rcx
  20bad4:	40 0f 90 c6          	seto   sil
  20bad8:	48 89 85 f8 fe ff ff 	mov    QWORD PTR [rbp-0x108],rax
  20badf:	40 88 b5 f7 fe ff ff 	mov    BYTE PTR [rbp-0x109],sil
  20bae6:	70 12                	jo     20bafa <Timer_start+0x2ea>
  20bae8:	eb 20                	jmp    20bb0a <Timer_start+0x2fa>
  20baea:	48 8d 3d 97 77 03 00 	lea    rdi,[rip+0x37797]        # 243288 <__unnamed_3>
  20baf1:	31 c0                	xor    eax,eax
  20baf3:	89 c6                	mov    esi,eax
  20baf5:	e8 06 fb ff ff       	call   20b600 <panic>
  20bafa:	48 8d 3d c7 76 03 00 	lea    rdi,[rip+0x376c7]        # 2431c8 <__unnamed_4>
  20bb01:	31 c0                	xor    eax,eax
  20bb03:	89 c6                	mov    esi,eax
  20bb05:	e8 f6 fa ff ff       	call   20b600 <panic>
  20bb0a:	48 8b 45 98          	mov    rax,QWORD PTR [rbp-0x68]
  20bb0e:	48 83 f8 00          	cmp    rax,0x0
  20bb12:	48 89 85 e8 fe ff ff 	mov    QWORD PTR [rbp-0x118],rax
  20bb19:	7c 25                	jl     20bb40 <Timer_start+0x330>
  20bb1b:	48 8b 85 f8 fe ff ff 	mov    rax,QWORD PTR [rbp-0x108]
  20bb22:	48 8b 8d e8 fe ff ff 	mov    rcx,QWORD PTR [rbp-0x118]
  20bb29:	48 01 c8             	add    rax,rcx
  20bb2c:	0f 92 c2             	setb   dl
  20bb2f:	48 89 85 e0 fe ff ff 	mov    QWORD PTR [rbp-0x120],rax
  20bb36:	88 95 df fe ff ff    	mov    BYTE PTR [rbp-0x121],dl
  20bb3c:	72 12                	jb     20bb50 <Timer_start+0x340>
  20bb3e:	eb 20                	jmp    20bb60 <Timer_start+0x350>
  20bb40:	48 8d 3d 41 77 03 00 	lea    rdi,[rip+0x37741]        # 243288 <__unnamed_3>
  20bb47:	31 c0                	xor    eax,eax
  20bb49:	89 c6                	mov    esi,eax
  20bb4b:	e8 b0 fa ff ff       	call   20b600 <panic>
  20bb50:	48 8d 3d 71 76 03 00 	lea    rdi,[rip+0x37671]        # 2431c8 <__unnamed_4>
  20bb57:	31 c0                	xor    eax,eax
  20bb59:	89 c6                	mov    esi,eax
  20bb5b:	e8 a0 fa ff ff       	call   20b600 <panic>
  20bb60:	48 8b 85 30 ff ff ff 	mov    rax,QWORD PTR [rbp-0xd0]
  20bb67:	48 8b 8d e0 fe ff ff 	mov    rcx,QWORD PTR [rbp-0x120]
  20bb6e:	48 89 08             	mov    QWORD PTR [rax],rcx
        return self;
  20bb71:	66 c7 45 b8 00 00    	mov    WORD PTR [rbp-0x48],0x0
  20bb77:	48 8b 55 a0          	mov    rdx,QWORD PTR [rbp-0x60]
  20bb7b:	48 89 55 c0          	mov    QWORD PTR [rbp-0x40],rdx
  20bb7f:	48 8b 55 a8          	mov    rdx,QWORD PTR [rbp-0x58]
  20bb83:	48 89 55 c8          	mov    QWORD PTR [rbp-0x38],rdx
  20bb87:	48 8b 55 b8          	mov    rdx,QWORD PTR [rbp-0x48]
  20bb8b:	48 8b b5 78 ff ff ff 	mov    rsi,QWORD PTR [rbp-0x88]
  20bb92:	48 89 16             	mov    QWORD PTR [rsi],rdx
  20bb95:	48 8b 55 c0          	mov    rdx,QWORD PTR [rbp-0x40]
  20bb99:	48 89 56 08          	mov    QWORD PTR [rsi+0x8],rdx
  20bb9d:	48 8b 55 c8          	mov    rdx,QWORD PTR [rbp-0x38]
  20bba1:	48 89 56 10          	mov    QWORD PTR [rsi+0x10],rdx
  20bba5:	48 8b 85 68 ff ff ff 	mov    rax,QWORD PTR [rbp-0x98]
  20bbac:	48 81 c4 30 01 00 00 	add    rsp,0x130
  20bbb3:	5d                   	pop    rbp
  20bbb4:	c3                   	ret    
  20bbb5:	66 66 2e 0f 1f 84 00 	data16 nop WORD PTR cs:[rax+rax*1+0x0]
  20bbbc:	00 00 00 00 

000000000020bbc0 <warn.16>:
  20bbc0:	55                   	push   rbp
  20bbc1:	48 89 e5             	mov    rbp,rsp
  20bbc4:	48 81 ec 50 01 00 00 	sub    rsp,0x150
  20bbcb:	48 8d 85 e8 fe ff ff 	lea    rax,[rbp-0x118]
  20bbd2:	48 8d 8d f8 fe ff ff 	lea    rcx,[rbp-0x108]
  20bbd9:	48 8d 95 10 ff ff ff 	lea    rdx,[rbp-0xf0]
  20bbe0:	48 c7 85 f8 fe ff ff 	mov    QWORD PTR [rbp-0x108],0x0
  20bbe7:	00 00 00 00 
  20bbeb:	48 89 95 00 ff ff ff 	mov    QWORD PTR [rbp-0x100],rdx
  20bbf2:	48 c7 85 08 ff ff ff 	mov    QWORD PTR [rbp-0xf8],0x1e
  20bbf9:	1e 00 00 00 
  20bbfd:	48 89 bd c8 fe ff ff 	mov    QWORD PTR [rbp-0x138],rdi
  20bc04:	48 89 b5 c0 fe ff ff 	mov    QWORD PTR [rbp-0x140],rsi
    const stderr = getStderrStream() catch return;
  20bc0b:	48 89 c7             	mov    rdi,rax
  20bc0e:	48 89 ce             	mov    rsi,rcx
  20bc11:	e8 3a 0d 00 00       	call   20c950 <getStderrStream>
  20bc16:	66 83 bd e8 fe ff ff 	cmp    WORD PTR [rbp-0x118],0x0
  20bc1d:	00 
  20bc1e:	74 09                	je     20bc29 <warn.16+0x69>
  20bc20:	48 81 c4 50 01 00 00 	add    rsp,0x150
  20bc27:	5d                   	pop    rbp
  20bc28:	c3                   	ret    
  20bc29:	48 8b 85 f0 fe ff ff 	mov    rax,QWORD PTR [rbp-0x110]
  20bc30:	48 89 85 b0 fe ff ff 	mov    QWORD PTR [rbp-0x150],rax
  20bc37:	48 8d bd f8 fe ff ff 	lea    rdi,[rbp-0x108]
  20bc3e:	48 8b 85 b0 fe ff ff 	mov    rax,QWORD PTR [rbp-0x150]
  20bc45:	48 89 85 b8 fe ff ff 	mov    QWORD PTR [rbp-0x148],rax
    stderr.print(fmt, args) catch return;
  20bc4c:	48 8b b5 b8 fe ff ff 	mov    rsi,QWORD PTR [rbp-0x148]
  20bc53:	48 8b 95 c8 fe ff ff 	mov    rdx,QWORD PTR [rbp-0x138]
  20bc5a:	48 8b 8d c0 fe ff ff 	mov    rcx,QWORD PTR [rbp-0x140]
  20bc61:	e8 6a 15 00 00       	call   20d1d0 <OutStream(error{SystemResources,OperationAborted,IoPending,BrokenPipe,Unexpected,WouldBlock,FileClosed,DestinationAddressRequired,DiskQuota,FileTooBig,InputOutput,NoSpaceLeft,AccessDenied,})_print.20>
  20bc66:	66 89 85 d6 fe ff ff 	mov    WORD PTR [rbp-0x12a],ax
  20bc6d:	66 83 bd d6 fe ff ff 	cmp    WORD PTR [rbp-0x12a],0x0
  20bc74:	00 
  20bc75:	74 09                	je     20bc80 <warn.16+0xc0>
  20bc77:	48 81 c4 50 01 00 00 	add    rsp,0x150
  20bc7e:	5d                   	pop    rbp
  20bc7f:	c3                   	ret    
pub fn warn(comptime fmt: []const u8, args: ...) void {
  20bc80:	48 81 c4 50 01 00 00 	add    rsp,0x150
  20bc87:	5d                   	pop    rbp
  20bc88:	c3                   	ret    
  20bc89:	0f 1f 80 00 00 00 00 	nop    DWORD PTR [rax+0x0]

000000000020bc90 <__zig_return_error>:
  20bc90:	55                   	push   rbp
  20bc91:	48 89 e5             	mov    rbp,rsp
  20bc94:	48 8b 45 08          	mov    rax,QWORD PTR [rbp+0x8]
  20bc98:	48 8b 4f 10          	mov    rcx,QWORD PTR [rdi+0x10]
  20bc9c:	48 8b 17             	mov    rdx,QWORD PTR [rdi]
  20bc9f:	48 89 45 f8          	mov    QWORD PTR [rbp-0x8],rax
  20bca3:	48 89 d0             	mov    rax,rdx
  20bca6:	31 f6                	xor    esi,esi
  20bca8:	48 89 55 f0          	mov    QWORD PTR [rbp-0x10],rdx
  20bcac:	89 f2                	mov    edx,esi
  20bcae:	48 f7 f1             	div    rcx
  20bcb1:	48 8b 4f 08          	mov    rcx,QWORD PTR [rdi+0x8]
  20bcb5:	4c 8b 45 f8          	mov    r8,QWORD PTR [rbp-0x8]
  20bcb9:	4c 89 04 d1          	mov    QWORD PTR [rcx+rdx*8],r8
  20bcbd:	48 8b 4d f0          	mov    rcx,QWORD PTR [rbp-0x10]
  20bcc1:	48 83 c1 01          	add    rcx,0x1
  20bcc5:	48 89 0f             	mov    QWORD PTR [rdi],rcx
  20bcc8:	5d                   	pop    rbp
  20bcc9:	c3                   	ret    
  20bcca:	66 0f 1f 44 00 00    	nop    WORD PTR [rax+rax*1+0x0]

000000000020bcd0 <Timer_read>:
    pub fn read(self: *Timer) u64 {
  20bcd0:	55                   	push   rbp
  20bcd1:	48 89 e5             	mov    rbp,rsp
  20bcd4:	48 83 ec 20          	sub    rsp,0x20
  20bcd8:	48 89 7d f8          	mov    QWORD PTR [rbp-0x8],rdi
        var clock = clockNative() - self.start_time;
  20bcdc:	e8 5f f3 ff ff       	call   20b040 <Timer_clockLinux>
  20bce1:	48 8b 7d f8          	mov    rdi,QWORD PTR [rbp-0x8]
  20bce5:	48 2b 47 08          	sub    rax,QWORD PTR [rdi+0x8]
  20bce9:	0f 92 c1             	setb   cl
  20bcec:	48 89 45 e8          	mov    QWORD PTR [rbp-0x18],rax
  20bcf0:	88 4d e7             	mov    BYTE PTR [rbp-0x19],cl
  20bcf3:	72 02                	jb     20bcf7 <Timer_read+0x27>
  20bcf5:	eb 10                	jmp    20bd07 <Timer_read+0x37>
  20bcf7:	48 8d 3d ca 74 03 00 	lea    rdi,[rip+0x374ca]        # 2431c8 <__unnamed_4>
  20bcfe:	31 c0                	xor    eax,eax
  20bd00:	89 c6                	mov    esi,eax
  20bd02:	e8 f9 f8 ff ff       	call   20b600 <panic>
  20bd07:	48 8b 45 e8          	mov    rax,QWORD PTR [rbp-0x18]
  20bd0b:	48 89 45 f0          	mov    QWORD PTR [rbp-0x10],rax
            Os.linux => clock,
  20bd0f:	48 8b 45 f0          	mov    rax,QWORD PTR [rbp-0x10]
        return switch (builtin.os) {
  20bd13:	48 83 c4 20          	add    rsp,0x20
  20bd17:	5d                   	pop    rbp
  20bd18:	c3                   	ret    
  20bd19:	0f 1f 80 00 00 00 00 	nop    DWORD PTR [rax+0x0]

000000000020bd20 <spawnThread>:

/// caller must call wait on the returned thread
/// fn startFn(@typeOf(context)) T
/// where T is u8, noreturn, void, or !void
/// caller must call wait on the returned thread
pub fn spawnThread(context: var, comptime startFn: var) SpawnThreadError!*Thread {
  20bd20:	55                   	push   rbp
  20bd21:	48 89 e5             	mov    rbp,rsp
  20bd24:	48 81 ec 40 01 00 00 	sub    rsp,0x140
  20bd2b:	48 89 f8             	mov    rax,rdi
  20bd2e:	31 c9                	xor    ecx,ecx
  20bd30:	41 89 c8             	mov    r8d,ecx
  20bd33:	b9 00 00 80 00       	mov    ecx,0x800000
  20bd38:	41 89 c9             	mov    r9d,ecx
  20bd3b:	b9 03 00 00 00       	mov    ecx,0x3
  20bd40:	41 89 ca             	mov    r10d,ecx
  20bd43:	b9 22 01 00 00       	mov    ecx,0x122
  20bd48:	41 bb ff ff ff ff    	mov    r11d,0xffffffff
  20bd4e:	48 89 55 d8          	mov    QWORD PTR [rbp-0x28],rdx
    };

    const MAP_GROWSDOWN = if (builtin.os == builtin.Os.linux) linux.MAP_GROWSDOWN else 0;

    const mmap_len = default_stack_size;
    const stack_addr = posix.mmap(null, mmap_len, posix.PROT_READ | posix.PROT_WRITE, posix.MAP_PRIVATE | posix.MAP_ANONYMOUS | MAP_GROWSDOWN, -1, 0);
  20bd52:	48 89 7d 90          	mov    QWORD PTR [rbp-0x70],rdi
  20bd56:	4c 89 c7             	mov    rdi,r8
  20bd59:	48 89 75 88          	mov    QWORD PTR [rbp-0x78],rsi
  20bd5d:	4c 89 ce             	mov    rsi,r9
  20bd60:	4c 89 d2             	mov    rdx,r10
  20bd63:	4c 89 45 80          	mov    QWORD PTR [rbp-0x80],r8
  20bd67:	45 89 d8             	mov    r8d,r11d
  20bd6a:	4c 8b 4d 80          	mov    r9,QWORD PTR [rbp-0x80]
  20bd6e:	48 89 85 78 ff ff ff 	mov    QWORD PTR [rbp-0x88],rax
  20bd75:	e8 b6 17 00 00       	call   20d530 <mmap>
  20bd7a:	48 89 45 d0          	mov    QWORD PTR [rbp-0x30],rax
    if (stack_addr == posix.MAP_FAILED) return error.OutOfMemory;
  20bd7e:	48 83 7d d0 ff       	cmp    QWORD PTR [rbp-0x30],0xffffffffffffffff
  20bd83:	75 32                	jne    20bdb7 <spawnThread+0x97>
  20bd85:	48 8b 7d 88          	mov    rdi,QWORD PTR [rbp-0x78]
  20bd89:	e8 02 ff ff ff       	call   20bc90 <__zig_return_error>
  20bd8e:	48 8b 3d db 46 ff ff 	mov    rdi,QWORD PTR [rip+0xffffffffffff46db]        # 200470 <__unnamed_11>
  20bd95:	48 8b 45 90          	mov    rax,QWORD PTR [rbp-0x70]
  20bd99:	48 89 38             	mov    QWORD PTR [rax],rdi
  20bd9c:	48 8b 3d d5 46 ff ff 	mov    rdi,QWORD PTR [rip+0xffffffffffff46d5]        # 200478 <__unnamed_11+0x8>
  20bda3:	48 89 78 08          	mov    QWORD PTR [rax+0x8],rdi
  20bda7:	48 8b 85 78 ff ff ff 	mov    rax,QWORD PTR [rbp-0x88]
  20bdae:	48 81 c4 40 01 00 00 	add    rsp,0x140
  20bdb5:	5d                   	pop    rbp
  20bdb6:	c3                   	ret    
  20bdb7:	eb 00                	jmp    20bdb9 <spawnThread+0x99>
    errdefer assert(posix.munmap(stack_addr, mmap_len) == 0);

    var stack_end: usize = stack_addr + mmap_len;
  20bdb9:	48 8b 45 d0          	mov    rax,QWORD PTR [rbp-0x30]
  20bdbd:	48 05 00 00 80 00    	add    rax,0x800000
  20bdc3:	0f 92 c1             	setb   cl
  20bdc6:	48 89 85 70 ff ff ff 	mov    QWORD PTR [rbp-0x90],rax
  20bdcd:	88 8d 6f ff ff ff    	mov    BYTE PTR [rbp-0x91],cl
  20bdd3:	0f 82 84 01 00 00    	jb     20bf5d <spawnThread+0x23d>
  20bdd9:	e9 8f 01 00 00       	jmp    20bf6d <spawnThread+0x24d>
            posix.EINVAL => unreachable,
            posix.ENOMEM => return SpawnThreadError.SystemResources,
            posix.ENOSPC => unreachable,
            posix.EPERM => unreachable,
            posix.EUSERS => unreachable,
            else => return unexpectedErrorPosix(err),
  20bdde:	48 8b 75 98          	mov    rsi,QWORD PTR [rbp-0x68]
  20bde2:	48 8b 7d 88          	mov    rdi,QWORD PTR [rbp-0x78]
  20bde6:	e8 35 13 00 00       	call   20d120 <unexpectedErrorPosix>
  20bdeb:	b9 00 00 80 00       	mov    ecx,0x800000
  20bdf0:	89 ce                	mov    esi,ecx
    errdefer assert(posix.munmap(stack_addr, mmap_len) == 0);
  20bdf2:	48 8b 7d d0          	mov    rdi,QWORD PTR [rbp-0x30]
  20bdf6:	66 89 85 6c ff ff ff 	mov    WORD PTR [rbp-0x94],ax
  20bdfd:	e8 be 17 00 00       	call   20d5c0 <munmap>
  20be02:	48 83 f8 00          	cmp    rax,0x0
  20be06:	0f 94 c2             	sete   dl
  20be09:	0f b6 fa             	movzx  edi,dl
  20be0c:	e8 ef f1 ff ff       	call   20b000 <assert>
            else => return unexpectedErrorPosix(err),
  20be11:	48 8b 7d 88          	mov    rdi,QWORD PTR [rbp-0x78]
  20be15:	e8 76 fe ff ff       	call   20bc90 <__zig_return_error>
  20be1a:	66 44 8b 85 6c ff ff 	mov    r8w,WORD PTR [rbp-0x94]
  20be21:	ff 
  20be22:	66 44 89 45 f0       	mov    WORD PTR [rbp-0x10],r8w
  20be27:	48 8b 45 f0          	mov    rax,QWORD PTR [rbp-0x10]
  20be2b:	48 8b 75 90          	mov    rsi,QWORD PTR [rbp-0x70]
  20be2f:	48 89 06             	mov    QWORD PTR [rsi],rax
  20be32:	48 8b 45 f8          	mov    rax,QWORD PTR [rbp-0x8]
  20be36:	48 89 46 08          	mov    QWORD PTR [rsi+0x8],rax
  20be3a:	48 8b 85 78 ff ff ff 	mov    rax,QWORD PTR [rbp-0x88]
  20be41:	48 81 c4 40 01 00 00 	add    rsp,0x140
  20be48:	5d                   	pop    rbp
  20be49:	c3                   	ret    
            0 => return thread_ptr,
  20be4a:	48 8b 45 b0          	mov    rax,QWORD PTR [rbp-0x50]
  20be4e:	66 c7 45 e0 00 00    	mov    WORD PTR [rbp-0x20],0x0
  20be54:	48 89 45 e8          	mov    QWORD PTR [rbp-0x18],rax
  20be58:	48 8b 45 e0          	mov    rax,QWORD PTR [rbp-0x20]
  20be5c:	48 8b 4d 90          	mov    rcx,QWORD PTR [rbp-0x70]
  20be60:	48 89 01             	mov    QWORD PTR [rcx],rax
  20be63:	48 8b 45 e8          	mov    rax,QWORD PTR [rbp-0x18]
  20be67:	48 89 41 08          	mov    QWORD PTR [rcx+0x8],rax
  20be6b:	48 8b 85 78 ff ff ff 	mov    rax,QWORD PTR [rbp-0x88]
  20be72:	48 81 c4 40 01 00 00 	add    rsp,0x140
  20be79:	5d                   	pop    rbp
  20be7a:	c3                   	ret    
  20be7b:	b8 00 00 80 00       	mov    eax,0x800000
  20be80:	89 c6                	mov    esi,eax
    errdefer assert(posix.munmap(stack_addr, mmap_len) == 0);
  20be82:	48 8b 7d d0          	mov    rdi,QWORD PTR [rbp-0x30]
  20be86:	e8 35 17 00 00       	call   20d5c0 <munmap>
  20be8b:	48 83 f8 00          	cmp    rax,0x0
  20be8f:	0f 94 c1             	sete   cl
  20be92:	0f b6 f9             	movzx  edi,cl
  20be95:	e8 66 f1 ff ff       	call   20b000 <assert>
            posix.EAGAIN => return SpawnThreadError.ThreadQuotaExceeded,
  20be9a:	48 8b 7d 88          	mov    rdi,QWORD PTR [rbp-0x78]
  20be9e:	e8 ed fd ff ff       	call   20bc90 <__zig_return_error>
  20bea3:	48 8b 05 96 4a ff ff 	mov    rax,QWORD PTR [rip+0xffffffffffff4a96]        # 200940 <__unnamed_12>
  20beaa:	48 8b 75 90          	mov    rsi,QWORD PTR [rbp-0x70]
  20beae:	48 89 06             	mov    QWORD PTR [rsi],rax
  20beb1:	48 8b 05 90 4a ff ff 	mov    rax,QWORD PTR [rip+0xffffffffffff4a90]        # 200948 <__unnamed_12+0x8>
  20beb8:	48 89 46 08          	mov    QWORD PTR [rsi+0x8],rax
  20bebc:	48 8b 85 78 ff ff ff 	mov    rax,QWORD PTR [rbp-0x88]
  20bec3:	48 81 c4 40 01 00 00 	add    rsp,0x140
  20beca:	5d                   	pop    rbp
  20becb:	c3                   	ret    
  20becc:	48 8d 3d 3d 74 03 00 	lea    rdi,[rip+0x3743d]        # 243310 <__unnamed_13>
  20bed3:	31 c0                	xor    eax,eax
  20bed5:	89 c6                	mov    esi,eax
            posix.EINVAL => unreachable,
  20bed7:	e8 24 f7 ff ff       	call   20b600 <panic>
  20bedc:	b8 00 00 80 00       	mov    eax,0x800000
  20bee1:	89 c6                	mov    esi,eax
    errdefer assert(posix.munmap(stack_addr, mmap_len) == 0);
  20bee3:	48 8b 7d d0          	mov    rdi,QWORD PTR [rbp-0x30]
  20bee7:	e8 d4 16 00 00       	call   20d5c0 <munmap>
  20beec:	48 83 f8 00          	cmp    rax,0x0
  20bef0:	0f 94 c1             	sete   cl
  20bef3:	0f b6 f9             	movzx  edi,cl
  20bef6:	e8 05 f1 ff ff       	call   20b000 <assert>
            posix.ENOMEM => return SpawnThreadError.SystemResources,
  20befb:	48 8b 7d 88          	mov    rdi,QWORD PTR [rbp-0x78]
  20beff:	e8 8c fd ff ff       	call   20bc90 <__zig_return_error>
  20bf04:	48 8b 05 75 45 ff ff 	mov    rax,QWORD PTR [rip+0xffffffffffff4575]        # 200480 <__unnamed_14>
  20bf0b:	48 8b 75 90          	mov    rsi,QWORD PTR [rbp-0x70]
  20bf0f:	48 89 06             	mov    QWORD PTR [rsi],rax
  20bf12:	48 8b 05 6f 45 ff ff 	mov    rax,QWORD PTR [rip+0xffffffffffff456f]        # 200488 <__unnamed_14+0x8>
  20bf19:	48 89 46 08          	mov    QWORD PTR [rsi+0x8],rax
  20bf1d:	48 8b 85 78 ff ff ff 	mov    rax,QWORD PTR [rbp-0x88]
  20bf24:	48 81 c4 40 01 00 00 	add    rsp,0x140
  20bf2b:	5d                   	pop    rbp
  20bf2c:	c3                   	ret    
  20bf2d:	48 8d 3d dc 73 03 00 	lea    rdi,[rip+0x373dc]        # 243310 <__unnamed_13>
  20bf34:	31 c0                	xor    eax,eax
  20bf36:	89 c6                	mov    esi,eax
            posix.ENOSPC => unreachable,
  20bf38:	e8 c3 f6 ff ff       	call   20b600 <panic>
  20bf3d:	48 8d 3d cc 73 03 00 	lea    rdi,[rip+0x373cc]        # 243310 <__unnamed_13>
  20bf44:	31 c0                	xor    eax,eax
  20bf46:	89 c6                	mov    esi,eax
            posix.EPERM => unreachable,
  20bf48:	e8 b3 f6 ff ff       	call   20b600 <panic>
  20bf4d:	48 8d 3d bc 73 03 00 	lea    rdi,[rip+0x373bc]        # 243310 <__unnamed_13>
  20bf54:	31 c0                	xor    eax,eax
  20bf56:	89 c6                	mov    esi,eax
            posix.EUSERS => unreachable,
  20bf58:	e8 a3 f6 ff ff       	call   20b600 <panic>
  20bf5d:	48 8d 3d 64 72 03 00 	lea    rdi,[rip+0x37264]        # 2431c8 <__unnamed_4>
  20bf64:	31 c0                	xor    eax,eax
  20bf66:	89 c6                	mov    esi,eax
    var stack_end: usize = stack_addr + mmap_len;
  20bf68:	e8 93 f6 ff ff       	call   20b600 <panic>
  20bf6d:	be aa 00 00 00       	mov    esi,0xaa
  20bf72:	b8 08 00 00 00       	mov    eax,0x8
  20bf77:	89 c2                	mov    edx,eax
  20bf79:	48 8d 4d c0          	lea    rcx,[rbp-0x40]
  20bf7d:	48 8b bd 70 ff ff ff 	mov    rdi,QWORD PTR [rbp-0x90]
  20bf84:	48 89 7d c8          	mov    QWORD PTR [rbp-0x38],rdi
    var arg: usize = undefined;
  20bf88:	48 89 cf             	mov    rdi,rcx
  20bf8b:	e8 20 89 02 00       	call   2348b0 <memset>
        stack_end -= @sizeOf(Context);
  20bf90:	48 8b 4d c8          	mov    rcx,QWORD PTR [rbp-0x38]
  20bf94:	48 83 e9 08          	sub    rcx,0x8
  20bf98:	41 0f 92 c0          	setb   r8b
  20bf9c:	48 89 8d 60 ff ff ff 	mov    QWORD PTR [rbp-0xa0],rcx
  20bfa3:	44 88 85 5f ff ff ff 	mov    BYTE PTR [rbp-0xa1],r8b
  20bfaa:	72 02                	jb     20bfae <spawnThread+0x28e>
  20bfac:	eb 10                	jmp    20bfbe <spawnThread+0x29e>
  20bfae:	48 8d 3d 13 72 03 00 	lea    rdi,[rip+0x37213]        # 2431c8 <__unnamed_4>
  20bfb5:	31 c0                	xor    eax,eax
  20bfb7:	89 c6                	mov    esi,eax
  20bfb9:	e8 42 f6 ff ff       	call   20b600 <panic>
  20bfbe:	31 c0                	xor    eax,eax
  20bfc0:	88 c1                	mov    cl,al
  20bfc2:	48 8b 95 60 ff ff ff 	mov    rdx,QWORD PTR [rbp-0xa0]
  20bfc9:	48 89 55 c8          	mov    QWORD PTR [rbp-0x38],rdx
        stack_end -= stack_end % @alignOf(Context);
  20bfcd:	48 8b 75 c8          	mov    rsi,QWORD PTR [rbp-0x38]
  20bfd1:	48 8b 7d c8          	mov    rdi,QWORD PTR [rbp-0x38]
  20bfd5:	f6 c1 01             	test   cl,0x1
  20bfd8:	48 89 bd 50 ff ff ff 	mov    QWORD PTR [rbp-0xb0],rdi
  20bfdf:	48 89 b5 48 ff ff ff 	mov    QWORD PTR [rbp-0xb8],rsi
  20bfe6:	75 29                	jne    20c011 <spawnThread+0x2f1>
  20bfe8:	48 8b 85 50 ff ff ff 	mov    rax,QWORD PTR [rbp-0xb0]
  20bfef:	48 83 e0 07          	and    rax,0x7
  20bff3:	48 8b 8d 48 ff ff ff 	mov    rcx,QWORD PTR [rbp-0xb8]
  20bffa:	48 29 c1             	sub    rcx,rax
  20bffd:	0f 92 c2             	setb   dl
  20c000:	48 89 8d 40 ff ff ff 	mov    QWORD PTR [rbp-0xc0],rcx
  20c007:	88 95 3f ff ff ff    	mov    BYTE PTR [rbp-0xc1],dl
  20c00d:	72 12                	jb     20c021 <spawnThread+0x301>
  20c00f:	eb 20                	jmp    20c031 <spawnThread+0x311>
  20c011:	48 8d 3d e0 72 03 00 	lea    rdi,[rip+0x372e0]        # 2432f8 <__unnamed_15>
  20c018:	31 c0                	xor    eax,eax
  20c01a:	89 c6                	mov    esi,eax
  20c01c:	e8 df f5 ff ff       	call   20b600 <panic>
  20c021:	48 8d 3d a0 71 03 00 	lea    rdi,[rip+0x371a0]        # 2431c8 <__unnamed_4>
  20c028:	31 c0                	xor    eax,eax
  20c02a:	89 c6                	mov    esi,eax
  20c02c:	e8 cf f5 ff ff       	call   20b600 <panic>
  20c031:	48 8b 85 40 ff ff ff 	mov    rax,QWORD PTR [rbp-0xc0]
  20c038:	48 89 45 c8          	mov    QWORD PTR [rbp-0x38],rax
        assert(stack_end >= stack_addr);
  20c03c:	48 8b 4d c8          	mov    rcx,QWORD PTR [rbp-0x38]
  20c040:	48 3b 4d d0          	cmp    rcx,QWORD PTR [rbp-0x30]
  20c044:	0f 93 c2             	setae  dl
  20c047:	0f b6 fa             	movzx  edi,dl
  20c04a:	e8 b1 ef ff ff       	call   20b000 <assert>
        const context_ptr = @alignCast(@alignOf(Context), @intToPtr(*Context, stack_end));
  20c04f:	48 8b 45 c8          	mov    rax,QWORD PTR [rbp-0x38]
  20c053:	48 89 45 b8          	mov    QWORD PTR [rbp-0x48],rax
        context_ptr.* = context;
  20c057:	48 8b 45 b8          	mov    rax,QWORD PTR [rbp-0x48]
  20c05b:	48 8b 4d d8          	mov    rcx,QWORD PTR [rbp-0x28]
  20c05f:	48 89 08             	mov    QWORD PTR [rax],rcx
        arg = stack_end;
  20c062:	48 8b 45 c8          	mov    rax,QWORD PTR [rbp-0x38]
  20c066:	48 89 45 c0          	mov    QWORD PTR [rbp-0x40],rax
    stack_end -= @sizeOf(Thread);
  20c06a:	48 8b 45 c8          	mov    rax,QWORD PTR [rbp-0x38]
  20c06e:	48 83 e8 18          	sub    rax,0x18
  20c072:	0f 92 c2             	setb   dl
  20c075:	48 89 85 30 ff ff ff 	mov    QWORD PTR [rbp-0xd0],rax
  20c07c:	88 95 2f ff ff ff    	mov    BYTE PTR [rbp-0xd1],dl
  20c082:	72 02                	jb     20c086 <spawnThread+0x366>
  20c084:	eb 10                	jmp    20c096 <spawnThread+0x376>
  20c086:	48 8d 3d 3b 71 03 00 	lea    rdi,[rip+0x3713b]        # 2431c8 <__unnamed_4>
  20c08d:	31 c0                	xor    eax,eax
  20c08f:	89 c6                	mov    esi,eax
  20c091:	e8 6a f5 ff ff       	call   20b600 <panic>
  20c096:	31 c0                	xor    eax,eax
  20c098:	88 c1                	mov    cl,al
  20c09a:	48 8b 95 30 ff ff ff 	mov    rdx,QWORD PTR [rbp-0xd0]
  20c0a1:	48 89 55 c8          	mov    QWORD PTR [rbp-0x38],rdx
    stack_end -= stack_end % @alignOf(Thread);
  20c0a5:	48 8b 75 c8          	mov    rsi,QWORD PTR [rbp-0x38]
  20c0a9:	48 8b 7d c8          	mov    rdi,QWORD PTR [rbp-0x38]
  20c0ad:	f6 c1 01             	test   cl,0x1
  20c0b0:	48 89 bd 20 ff ff ff 	mov    QWORD PTR [rbp-0xe0],rdi
  20c0b7:	48 89 b5 18 ff ff ff 	mov    QWORD PTR [rbp-0xe8],rsi
  20c0be:	75 29                	jne    20c0e9 <spawnThread+0x3c9>
  20c0c0:	48 8b 85 20 ff ff ff 	mov    rax,QWORD PTR [rbp-0xe0]
  20c0c7:	48 83 e0 03          	and    rax,0x3
  20c0cb:	48 8b 8d 18 ff ff ff 	mov    rcx,QWORD PTR [rbp-0xe8]
  20c0d2:	48 29 c1             	sub    rcx,rax
  20c0d5:	0f 92 c2             	setb   dl
  20c0d8:	48 89 8d 10 ff ff ff 	mov    QWORD PTR [rbp-0xf0],rcx
  20c0df:	88 95 0f ff ff ff    	mov    BYTE PTR [rbp-0xf1],dl
  20c0e5:	72 12                	jb     20c0f9 <spawnThread+0x3d9>
  20c0e7:	eb 20                	jmp    20c109 <spawnThread+0x3e9>
  20c0e9:	48 8d 3d 08 72 03 00 	lea    rdi,[rip+0x37208]        # 2432f8 <__unnamed_15>
  20c0f0:	31 c0                	xor    eax,eax
  20c0f2:	89 c6                	mov    esi,eax
  20c0f4:	e8 07 f5 ff ff       	call   20b600 <panic>
  20c0f9:	48 8d 3d c8 70 03 00 	lea    rdi,[rip+0x370c8]        # 2431c8 <__unnamed_4>
  20c100:	31 c0                	xor    eax,eax
  20c102:	89 c6                	mov    esi,eax
  20c104:	e8 f7 f4 ff ff       	call   20b600 <panic>
  20c109:	48 8b 85 10 ff ff ff 	mov    rax,QWORD PTR [rbp-0xf0]
  20c110:	48 89 45 c8          	mov    QWORD PTR [rbp-0x38],rax
    assert(stack_end >= stack_addr);
  20c114:	48 8b 4d c8          	mov    rcx,QWORD PTR [rbp-0x38]
  20c118:	48 8b 55 d0          	mov    rdx,QWORD PTR [rbp-0x30]
  20c11c:	48 29 d1             	sub    rcx,rdx
  20c11f:	40 0f 93 c6          	setae  sil
  20c123:	40 0f b6 fe          	movzx  edi,sil
  20c127:	48 89 8d 00 ff ff ff 	mov    QWORD PTR [rbp-0x100],rcx
  20c12e:	e8 cd ee ff ff       	call   20b000 <assert>
    const thread_ptr = @alignCast(@alignOf(Thread), @intToPtr(*Thread, stack_end));
  20c133:	48 8b 45 c8          	mov    rax,QWORD PTR [rbp-0x38]
  20c137:	48 89 45 b0          	mov    QWORD PTR [rbp-0x50],rax
    thread_ptr.data.stack_addr = stack_addr;
  20c13b:	48 8b 45 b0          	mov    rax,QWORD PTR [rbp-0x50]
  20c13f:	48 8b 4d d0          	mov    rcx,QWORD PTR [rbp-0x30]
  20c143:	48 89 48 08          	mov    QWORD PTR [rax+0x8],rcx
    thread_ptr.data.stack_len = mmap_len;
  20c147:	48 8b 45 b0          	mov    rax,QWORD PTR [rbp-0x50]
  20c14b:	48 c7 40 10 00 00 80 	mov    QWORD PTR [rax+0x10],0x800000
  20c152:	00 
        const newtls: usize = 0;
  20c153:	48 c7 45 a8 00 00 00 	mov    QWORD PTR [rbp-0x58],0x0
  20c15a:	00 
        const rc = posix.clone(MainFuncs.linuxThreadMain, stack_end, flags, arg, &thread_ptr.data.handle, newtls, &thread_ptr.data.handle);
  20c15b:	48 8b 75 c8          	mov    rsi,QWORD PTR [rbp-0x38]
  20c15f:	48 8b 4d c0          	mov    rcx,QWORD PTR [rbp-0x40]
  20c163:	48 8b 45 b0          	mov    rax,QWORD PTR [rbp-0x50]
  20c167:	48 89 e2             	mov    rdx,rsp
  20c16a:	48 89 02             	mov    QWORD PTR [rdx],rax
  20c16d:	48 8d 3d 1c 14 00 00 	lea    rdi,[rip+0x141c]        # 20d590 <MainFuncs_linuxThreadMain>
  20c174:	41 b8 00 0f 75 00    	mov    r8d,0x750f00
  20c17a:	44 89 c2             	mov    edx,r8d
  20c17d:	45 31 c0             	xor    r8d,r8d
  20c180:	45 89 c1             	mov    r9d,r8d
  20c183:	49 89 c0             	mov    r8,rax
  20c186:	e8 85 88 02 00       	call   234a10 <clone>
  20c18b:	48 89 45 a0          	mov    QWORD PTR [rbp-0x60],rax
        const err = posix.getErrno(rc);
  20c18f:	48 8b 7d a0          	mov    rdi,QWORD PTR [rbp-0x60]
  20c193:	e8 e8 0e 00 00       	call   20d080 <getErrno>
  20c198:	48 89 45 98          	mov    QWORD PTR [rbp-0x68],rax
        switch (err) {
  20c19c:	48 8b 45 98          	mov    rax,QWORD PTR [rbp-0x68]
  20c1a0:	48 85 c0             	test   rax,rax
  20c1a3:	48 89 85 f8 fe ff ff 	mov    QWORD PTR [rbp-0x108],rax
  20c1aa:	0f 84 9a fc ff ff    	je     20be4a <spawnThread+0x12a>
  20c1b0:	eb 00                	jmp    20c1b2 <spawnThread+0x492>
  20c1b2:	48 8b 85 f8 fe ff ff 	mov    rax,QWORD PTR [rbp-0x108]
  20c1b9:	48 83 e8 01          	sub    rax,0x1
  20c1bd:	48 89 85 f0 fe ff ff 	mov    QWORD PTR [rbp-0x110],rax
  20c1c4:	0f 84 73 fd ff ff    	je     20bf3d <spawnThread+0x21d>
  20c1ca:	eb 00                	jmp    20c1cc <spawnThread+0x4ac>
  20c1cc:	48 8b 85 f8 fe ff ff 	mov    rax,QWORD PTR [rbp-0x108]
  20c1d3:	48 83 e8 0b          	sub    rax,0xb
  20c1d7:	48 89 85 e8 fe ff ff 	mov    QWORD PTR [rbp-0x118],rax
  20c1de:	0f 84 97 fc ff ff    	je     20be7b <spawnThread+0x15b>
  20c1e4:	eb 00                	jmp    20c1e6 <spawnThread+0x4c6>
  20c1e6:	48 8b 85 f8 fe ff ff 	mov    rax,QWORD PTR [rbp-0x108]
  20c1ed:	48 83 e8 0c          	sub    rax,0xc
  20c1f1:	48 89 85 e0 fe ff ff 	mov    QWORD PTR [rbp-0x120],rax
  20c1f8:	0f 84 de fc ff ff    	je     20bedc <spawnThread+0x1bc>
  20c1fe:	eb 00                	jmp    20c200 <spawnThread+0x4e0>
  20c200:	48 8b 85 f8 fe ff ff 	mov    rax,QWORD PTR [rbp-0x108]
  20c207:	48 83 e8 16          	sub    rax,0x16
  20c20b:	48 89 85 d8 fe ff ff 	mov    QWORD PTR [rbp-0x128],rax
  20c212:	0f 84 b4 fc ff ff    	je     20becc <spawnThread+0x1ac>
  20c218:	eb 00                	jmp    20c21a <spawnThread+0x4fa>
  20c21a:	48 8b 85 f8 fe ff ff 	mov    rax,QWORD PTR [rbp-0x108]
  20c221:	48 83 e8 1c          	sub    rax,0x1c
  20c225:	48 89 85 d0 fe ff ff 	mov    QWORD PTR [rbp-0x130],rax
  20c22c:	0f 84 fb fc ff ff    	je     20bf2d <spawnThread+0x20d>
  20c232:	eb 00                	jmp    20c234 <spawnThread+0x514>
  20c234:	48 8b 85 f8 fe ff ff 	mov    rax,QWORD PTR [rbp-0x108]
  20c23b:	48 83 e8 57          	sub    rax,0x57
  20c23f:	48 89 85 c8 fe ff ff 	mov    QWORD PTR [rbp-0x138],rax
  20c246:	0f 84 01 fd ff ff    	je     20bf4d <spawnThread+0x22d>
  20c24c:	e9 8d fb ff ff       	jmp    20bdde <spawnThread+0xbe>
  20c251:	66 66 66 66 66 66 2e 	data16 data16 data16 data16 data16 nop WORD PTR cs:[rax+rax*1+0x0]
  20c258:	0f 1f 84 00 00 00 00 
  20c25f:	00 

000000000020c260 <spawnThread.17>:
pub fn spawnThread(context: var, comptime startFn: var) SpawnThreadError!*Thread {
  20c260:	55                   	push   rbp
  20c261:	48 89 e5             	mov    rbp,rsp
  20c264:	48 81 ec 40 01 00 00 	sub    rsp,0x140
  20c26b:	48 89 f8             	mov    rax,rdi
  20c26e:	31 c9                	xor    ecx,ecx
  20c270:	41 89 c8             	mov    r8d,ecx
  20c273:	b9 00 00 80 00       	mov    ecx,0x800000
  20c278:	41 89 c9             	mov    r9d,ecx
  20c27b:	b9 03 00 00 00       	mov    ecx,0x3
  20c280:	41 89 ca             	mov    r10d,ecx
  20c283:	b9 22 01 00 00       	mov    ecx,0x122
  20c288:	41 bb ff ff ff ff    	mov    r11d,0xffffffff
  20c28e:	48 89 55 d8          	mov    QWORD PTR [rbp-0x28],rdx
    const stack_addr = posix.mmap(null, mmap_len, posix.PROT_READ | posix.PROT_WRITE, posix.MAP_PRIVATE | posix.MAP_ANONYMOUS | MAP_GROWSDOWN, -1, 0);
  20c292:	48 89 7d 90          	mov    QWORD PTR [rbp-0x70],rdi
  20c296:	4c 89 c7             	mov    rdi,r8
  20c299:	48 89 75 88          	mov    QWORD PTR [rbp-0x78],rsi
  20c29d:	4c 89 ce             	mov    rsi,r9
  20c2a0:	4c 89 d2             	mov    rdx,r10
  20c2a3:	4c 89 45 80          	mov    QWORD PTR [rbp-0x80],r8
  20c2a7:	45 89 d8             	mov    r8d,r11d
  20c2aa:	4c 8b 4d 80          	mov    r9,QWORD PTR [rbp-0x80]
  20c2ae:	48 89 85 78 ff ff ff 	mov    QWORD PTR [rbp-0x88],rax
  20c2b5:	e8 76 12 00 00       	call   20d530 <mmap>
  20c2ba:	48 89 45 d0          	mov    QWORD PTR [rbp-0x30],rax
    if (stack_addr == posix.MAP_FAILED) return error.OutOfMemory;
  20c2be:	48 83 7d d0 ff       	cmp    QWORD PTR [rbp-0x30],0xffffffffffffffff
  20c2c3:	75 32                	jne    20c2f7 <spawnThread.17+0x97>
  20c2c5:	48 8b 7d 88          	mov    rdi,QWORD PTR [rbp-0x78]
  20c2c9:	e8 c2 f9 ff ff       	call   20bc90 <__zig_return_error>
  20c2ce:	48 8b 3d 9b 41 ff ff 	mov    rdi,QWORD PTR [rip+0xffffffffffff419b]        # 200470 <__unnamed_11>
  20c2d5:	48 8b 45 90          	mov    rax,QWORD PTR [rbp-0x70]
  20c2d9:	48 89 38             	mov    QWORD PTR [rax],rdi
  20c2dc:	48 8b 3d 95 41 ff ff 	mov    rdi,QWORD PTR [rip+0xffffffffffff4195]        # 200478 <__unnamed_11+0x8>
  20c2e3:	48 89 78 08          	mov    QWORD PTR [rax+0x8],rdi
  20c2e7:	48 8b 85 78 ff ff ff 	mov    rax,QWORD PTR [rbp-0x88]
  20c2ee:	48 81 c4 40 01 00 00 	add    rsp,0x140
  20c2f5:	5d                   	pop    rbp
  20c2f6:	c3                   	ret    
  20c2f7:	eb 00                	jmp    20c2f9 <spawnThread.17+0x99>
    var stack_end: usize = stack_addr + mmap_len;
  20c2f9:	48 8b 45 d0          	mov    rax,QWORD PTR [rbp-0x30]
  20c2fd:	48 05 00 00 80 00    	add    rax,0x800000
  20c303:	0f 92 c1             	setb   cl
  20c306:	48 89 85 70 ff ff ff 	mov    QWORD PTR [rbp-0x90],rax
  20c30d:	88 8d 6f ff ff ff    	mov    BYTE PTR [rbp-0x91],cl
  20c313:	0f 82 84 01 00 00    	jb     20c49d <spawnThread.17+0x23d>
  20c319:	e9 8f 01 00 00       	jmp    20c4ad <spawnThread.17+0x24d>
            else => return unexpectedErrorPosix(err),
  20c31e:	48 8b 75 98          	mov    rsi,QWORD PTR [rbp-0x68]
  20c322:	48 8b 7d 88          	mov    rdi,QWORD PTR [rbp-0x78]
  20c326:	e8 f5 0d 00 00       	call   20d120 <unexpectedErrorPosix>
  20c32b:	b9 00 00 80 00       	mov    ecx,0x800000
  20c330:	89 ce                	mov    esi,ecx
    errdefer assert(posix.munmap(stack_addr, mmap_len) == 0);
  20c332:	48 8b 7d d0          	mov    rdi,QWORD PTR [rbp-0x30]
  20c336:	66 89 85 6c ff ff ff 	mov    WORD PTR [rbp-0x94],ax
  20c33d:	e8 7e 12 00 00       	call   20d5c0 <munmap>
  20c342:	48 83 f8 00          	cmp    rax,0x0
  20c346:	0f 94 c2             	sete   dl
  20c349:	0f b6 fa             	movzx  edi,dl
  20c34c:	e8 af ec ff ff       	call   20b000 <assert>
            else => return unexpectedErrorPosix(err),
  20c351:	48 8b 7d 88          	mov    rdi,QWORD PTR [rbp-0x78]
  20c355:	e8 36 f9 ff ff       	call   20bc90 <__zig_return_error>
  20c35a:	66 44 8b 85 6c ff ff 	mov    r8w,WORD PTR [rbp-0x94]
  20c361:	ff 
  20c362:	66 44 89 45 f0       	mov    WORD PTR [rbp-0x10],r8w
  20c367:	48 8b 45 f0          	mov    rax,QWORD PTR [rbp-0x10]
  20c36b:	48 8b 75 90          	mov    rsi,QWORD PTR [rbp-0x70]
  20c36f:	48 89 06             	mov    QWORD PTR [rsi],rax
  20c372:	48 8b 45 f8          	mov    rax,QWORD PTR [rbp-0x8]
  20c376:	48 89 46 08          	mov    QWORD PTR [rsi+0x8],rax
  20c37a:	48 8b 85 78 ff ff ff 	mov    rax,QWORD PTR [rbp-0x88]
  20c381:	48 81 c4 40 01 00 00 	add    rsp,0x140
  20c388:	5d                   	pop    rbp
  20c389:	c3                   	ret    
            0 => return thread_ptr,
  20c38a:	48 8b 45 b0          	mov    rax,QWORD PTR [rbp-0x50]
  20c38e:	66 c7 45 e0 00 00    	mov    WORD PTR [rbp-0x20],0x0
  20c394:	48 89 45 e8          	mov    QWORD PTR [rbp-0x18],rax
  20c398:	48 8b 45 e0          	mov    rax,QWORD PTR [rbp-0x20]
  20c39c:	48 8b 4d 90          	mov    rcx,QWORD PTR [rbp-0x70]
  20c3a0:	48 89 01             	mov    QWORD PTR [rcx],rax
  20c3a3:	48 8b 45 e8          	mov    rax,QWORD PTR [rbp-0x18]
  20c3a7:	48 89 41 08          	mov    QWORD PTR [rcx+0x8],rax
  20c3ab:	48 8b 85 78 ff ff ff 	mov    rax,QWORD PTR [rbp-0x88]
  20c3b2:	48 81 c4 40 01 00 00 	add    rsp,0x140
  20c3b9:	5d                   	pop    rbp
  20c3ba:	c3                   	ret    
  20c3bb:	b8 00 00 80 00       	mov    eax,0x800000
  20c3c0:	89 c6                	mov    esi,eax
    errdefer assert(posix.munmap(stack_addr, mmap_len) == 0);
  20c3c2:	48 8b 7d d0          	mov    rdi,QWORD PTR [rbp-0x30]
  20c3c6:	e8 f5 11 00 00       	call   20d5c0 <munmap>
  20c3cb:	48 83 f8 00          	cmp    rax,0x0
  20c3cf:	0f 94 c1             	sete   cl
  20c3d2:	0f b6 f9             	movzx  edi,cl
  20c3d5:	e8 26 ec ff ff       	call   20b000 <assert>
            posix.EAGAIN => return SpawnThreadError.ThreadQuotaExceeded,
  20c3da:	48 8b 7d 88          	mov    rdi,QWORD PTR [rbp-0x78]
  20c3de:	e8 ad f8 ff ff       	call   20bc90 <__zig_return_error>
  20c3e3:	48 8b 05 56 45 ff ff 	mov    rax,QWORD PTR [rip+0xffffffffffff4556]        # 200940 <__unnamed_12>
  20c3ea:	48 8b 75 90          	mov    rsi,QWORD PTR [rbp-0x70]
  20c3ee:	48 89 06             	mov    QWORD PTR [rsi],rax
  20c3f1:	48 8b 05 50 45 ff ff 	mov    rax,QWORD PTR [rip+0xffffffffffff4550]        # 200948 <__unnamed_12+0x8>
  20c3f8:	48 89 46 08          	mov    QWORD PTR [rsi+0x8],rax
  20c3fc:	48 8b 85 78 ff ff ff 	mov    rax,QWORD PTR [rbp-0x88]
  20c403:	48 81 c4 40 01 00 00 	add    rsp,0x140
  20c40a:	5d                   	pop    rbp
  20c40b:	c3                   	ret    
  20c40c:	48 8d 3d fd 6e 03 00 	lea    rdi,[rip+0x36efd]        # 243310 <__unnamed_13>
  20c413:	31 c0                	xor    eax,eax
  20c415:	89 c6                	mov    esi,eax
            posix.EINVAL => unreachable,
  20c417:	e8 e4 f1 ff ff       	call   20b600 <panic>
  20c41c:	b8 00 00 80 00       	mov    eax,0x800000
  20c421:	89 c6                	mov    esi,eax
    errdefer assert(posix.munmap(stack_addr, mmap_len) == 0);
  20c423:	48 8b 7d d0          	mov    rdi,QWORD PTR [rbp-0x30]
  20c427:	e8 94 11 00 00       	call   20d5c0 <munmap>
  20c42c:	48 83 f8 00          	cmp    rax,0x0
  20c430:	0f 94 c1             	sete   cl
  20c433:	0f b6 f9             	movzx  edi,cl
  20c436:	e8 c5 eb ff ff       	call   20b000 <assert>
            posix.ENOMEM => return SpawnThreadError.SystemResources,
  20c43b:	48 8b 7d 88          	mov    rdi,QWORD PTR [rbp-0x78]
  20c43f:	e8 4c f8 ff ff       	call   20bc90 <__zig_return_error>
  20c444:	48 8b 05 35 40 ff ff 	mov    rax,QWORD PTR [rip+0xffffffffffff4035]        # 200480 <__unnamed_14>
  20c44b:	48 8b 75 90          	mov    rsi,QWORD PTR [rbp-0x70]
  20c44f:	48 89 06             	mov    QWORD PTR [rsi],rax
  20c452:	48 8b 05 2f 40 ff ff 	mov    rax,QWORD PTR [rip+0xffffffffffff402f]        # 200488 <__unnamed_14+0x8>
  20c459:	48 89 46 08          	mov    QWORD PTR [rsi+0x8],rax
  20c45d:	48 8b 85 78 ff ff ff 	mov    rax,QWORD PTR [rbp-0x88]
  20c464:	48 81 c4 40 01 00 00 	add    rsp,0x140
  20c46b:	5d                   	pop    rbp
  20c46c:	c3                   	ret    
  20c46d:	48 8d 3d 9c 6e 03 00 	lea    rdi,[rip+0x36e9c]        # 243310 <__unnamed_13>
  20c474:	31 c0                	xor    eax,eax
  20c476:	89 c6                	mov    esi,eax
            posix.ENOSPC => unreachable,
  20c478:	e8 83 f1 ff ff       	call   20b600 <panic>
  20c47d:	48 8d 3d 8c 6e 03 00 	lea    rdi,[rip+0x36e8c]        # 243310 <__unnamed_13>
  20c484:	31 c0                	xor    eax,eax
  20c486:	89 c6                	mov    esi,eax
            posix.EPERM => unreachable,
  20c488:	e8 73 f1 ff ff       	call   20b600 <panic>
  20c48d:	48 8d 3d 7c 6e 03 00 	lea    rdi,[rip+0x36e7c]        # 243310 <__unnamed_13>
  20c494:	31 c0                	xor    eax,eax
  20c496:	89 c6                	mov    esi,eax
            posix.EUSERS => unreachable,
  20c498:	e8 63 f1 ff ff       	call   20b600 <panic>
  20c49d:	48 8d 3d 24 6d 03 00 	lea    rdi,[rip+0x36d24]        # 2431c8 <__unnamed_4>
  20c4a4:	31 c0                	xor    eax,eax
  20c4a6:	89 c6                	mov    esi,eax
    var stack_end: usize = stack_addr + mmap_len;
  20c4a8:	e8 53 f1 ff ff       	call   20b600 <panic>
  20c4ad:	be aa 00 00 00       	mov    esi,0xaa
  20c4b2:	b8 08 00 00 00       	mov    eax,0x8
  20c4b7:	89 c2                	mov    edx,eax
  20c4b9:	48 8d 4d c0          	lea    rcx,[rbp-0x40]
  20c4bd:	48 8b bd 70 ff ff ff 	mov    rdi,QWORD PTR [rbp-0x90]
  20c4c4:	48 89 7d c8          	mov    QWORD PTR [rbp-0x38],rdi
    var arg: usize = undefined;
  20c4c8:	48 89 cf             	mov    rdi,rcx
  20c4cb:	e8 e0 83 02 00       	call   2348b0 <memset>
        stack_end -= @sizeOf(Context);
  20c4d0:	48 8b 4d c8          	mov    rcx,QWORD PTR [rbp-0x38]
  20c4d4:	48 83 e9 08          	sub    rcx,0x8
  20c4d8:	41 0f 92 c0          	setb   r8b
  20c4dc:	48 89 8d 60 ff ff ff 	mov    QWORD PTR [rbp-0xa0],rcx
  20c4e3:	44 88 85 5f ff ff ff 	mov    BYTE PTR [rbp-0xa1],r8b
  20c4ea:	72 02                	jb     20c4ee <spawnThread.17+0x28e>
  20c4ec:	eb 10                	jmp    20c4fe <spawnThread.17+0x29e>
  20c4ee:	48 8d 3d d3 6c 03 00 	lea    rdi,[rip+0x36cd3]        # 2431c8 <__unnamed_4>
  20c4f5:	31 c0                	xor    eax,eax
  20c4f7:	89 c6                	mov    esi,eax
  20c4f9:	e8 02 f1 ff ff       	call   20b600 <panic>
  20c4fe:	31 c0                	xor    eax,eax
  20c500:	88 c1                	mov    cl,al
  20c502:	48 8b 95 60 ff ff ff 	mov    rdx,QWORD PTR [rbp-0xa0]
  20c509:	48 89 55 c8          	mov    QWORD PTR [rbp-0x38],rdx
        stack_end -= stack_end % @alignOf(Context);
  20c50d:	48 8b 75 c8          	mov    rsi,QWORD PTR [rbp-0x38]
  20c511:	48 8b 7d c8          	mov    rdi,QWORD PTR [rbp-0x38]
  20c515:	f6 c1 01             	test   cl,0x1
  20c518:	48 89 bd 50 ff ff ff 	mov    QWORD PTR [rbp-0xb0],rdi
  20c51f:	48 89 b5 48 ff ff ff 	mov    QWORD PTR [rbp-0xb8],rsi
  20c526:	75 29                	jne    20c551 <spawnThread.17+0x2f1>
  20c528:	48 8b 85 50 ff ff ff 	mov    rax,QWORD PTR [rbp-0xb0]
  20c52f:	48 83 e0 07          	and    rax,0x7
  20c533:	48 8b 8d 48 ff ff ff 	mov    rcx,QWORD PTR [rbp-0xb8]
  20c53a:	48 29 c1             	sub    rcx,rax
  20c53d:	0f 92 c2             	setb   dl
  20c540:	48 89 8d 40 ff ff ff 	mov    QWORD PTR [rbp-0xc0],rcx
  20c547:	88 95 3f ff ff ff    	mov    BYTE PTR [rbp-0xc1],dl
  20c54d:	72 12                	jb     20c561 <spawnThread.17+0x301>
  20c54f:	eb 20                	jmp    20c571 <spawnThread.17+0x311>
  20c551:	48 8d 3d a0 6d 03 00 	lea    rdi,[rip+0x36da0]        # 2432f8 <__unnamed_15>
  20c558:	31 c0                	xor    eax,eax
  20c55a:	89 c6                	mov    esi,eax
  20c55c:	e8 9f f0 ff ff       	call   20b600 <panic>
  20c561:	48 8d 3d 60 6c 03 00 	lea    rdi,[rip+0x36c60]        # 2431c8 <__unnamed_4>
  20c568:	31 c0                	xor    eax,eax
  20c56a:	89 c6                	mov    esi,eax
  20c56c:	e8 8f f0 ff ff       	call   20b600 <panic>
  20c571:	48 8b 85 40 ff ff ff 	mov    rax,QWORD PTR [rbp-0xc0]
  20c578:	48 89 45 c8          	mov    QWORD PTR [rbp-0x38],rax
        assert(stack_end >= stack_addr);
  20c57c:	48 8b 4d c8          	mov    rcx,QWORD PTR [rbp-0x38]
  20c580:	48 3b 4d d0          	cmp    rcx,QWORD PTR [rbp-0x30]
  20c584:	0f 93 c2             	setae  dl
  20c587:	0f b6 fa             	movzx  edi,dl
  20c58a:	e8 71 ea ff ff       	call   20b000 <assert>
        const context_ptr = @alignCast(@alignOf(Context), @intToPtr(*Context, stack_end));
  20c58f:	48 8b 45 c8          	mov    rax,QWORD PTR [rbp-0x38]
  20c593:	48 89 45 b8          	mov    QWORD PTR [rbp-0x48],rax
        context_ptr.* = context;
  20c597:	48 8b 45 b8          	mov    rax,QWORD PTR [rbp-0x48]
  20c59b:	48 8b 4d d8          	mov    rcx,QWORD PTR [rbp-0x28]
  20c59f:	48 89 08             	mov    QWORD PTR [rax],rcx
        arg = stack_end;
  20c5a2:	48 8b 45 c8          	mov    rax,QWORD PTR [rbp-0x38]
  20c5a6:	48 89 45 c0          	mov    QWORD PTR [rbp-0x40],rax
    stack_end -= @sizeOf(Thread);
  20c5aa:	48 8b 45 c8          	mov    rax,QWORD PTR [rbp-0x38]
  20c5ae:	48 83 e8 18          	sub    rax,0x18
  20c5b2:	0f 92 c2             	setb   dl
  20c5b5:	48 89 85 30 ff ff ff 	mov    QWORD PTR [rbp-0xd0],rax
  20c5bc:	88 95 2f ff ff ff    	mov    BYTE PTR [rbp-0xd1],dl
  20c5c2:	72 02                	jb     20c5c6 <spawnThread.17+0x366>
  20c5c4:	eb 10                	jmp    20c5d6 <spawnThread.17+0x376>
  20c5c6:	48 8d 3d fb 6b 03 00 	lea    rdi,[rip+0x36bfb]        # 2431c8 <__unnamed_4>
  20c5cd:	31 c0                	xor    eax,eax
  20c5cf:	89 c6                	mov    esi,eax
  20c5d1:	e8 2a f0 ff ff       	call   20b600 <panic>
  20c5d6:	31 c0                	xor    eax,eax
  20c5d8:	88 c1                	mov    cl,al
  20c5da:	48 8b 95 30 ff ff ff 	mov    rdx,QWORD PTR [rbp-0xd0]
  20c5e1:	48 89 55 c8          	mov    QWORD PTR [rbp-0x38],rdx
    stack_end -= stack_end % @alignOf(Thread);
  20c5e5:	48 8b 75 c8          	mov    rsi,QWORD PTR [rbp-0x38]
  20c5e9:	48 8b 7d c8          	mov    rdi,QWORD PTR [rbp-0x38]
  20c5ed:	f6 c1 01             	test   cl,0x1
  20c5f0:	48 89 bd 20 ff ff ff 	mov    QWORD PTR [rbp-0xe0],rdi
  20c5f7:	48 89 b5 18 ff ff ff 	mov    QWORD PTR [rbp-0xe8],rsi
  20c5fe:	75 29                	jne    20c629 <spawnThread.17+0x3c9>
  20c600:	48 8b 85 20 ff ff ff 	mov    rax,QWORD PTR [rbp-0xe0]
  20c607:	48 83 e0 03          	and    rax,0x3
  20c60b:	48 8b 8d 18 ff ff ff 	mov    rcx,QWORD PTR [rbp-0xe8]
  20c612:	48 29 c1             	sub    rcx,rax
  20c615:	0f 92 c2             	setb   dl
  20c618:	48 89 8d 10 ff ff ff 	mov    QWORD PTR [rbp-0xf0],rcx
  20c61f:	88 95 0f ff ff ff    	mov    BYTE PTR [rbp-0xf1],dl
  20c625:	72 12                	jb     20c639 <spawnThread.17+0x3d9>
  20c627:	eb 20                	jmp    20c649 <spawnThread.17+0x3e9>
  20c629:	48 8d 3d c8 6c 03 00 	lea    rdi,[rip+0x36cc8]        # 2432f8 <__unnamed_15>
  20c630:	31 c0                	xor    eax,eax
  20c632:	89 c6                	mov    esi,eax
  20c634:	e8 c7 ef ff ff       	call   20b600 <panic>
  20c639:	48 8d 3d 88 6b 03 00 	lea    rdi,[rip+0x36b88]        # 2431c8 <__unnamed_4>
  20c640:	31 c0                	xor    eax,eax
  20c642:	89 c6                	mov    esi,eax
  20c644:	e8 b7 ef ff ff       	call   20b600 <panic>
  20c649:	48 8b 85 10 ff ff ff 	mov    rax,QWORD PTR [rbp-0xf0]
  20c650:	48 89 45 c8          	mov    QWORD PTR [rbp-0x38],rax
    assert(stack_end >= stack_addr);
  20c654:	48 8b 4d c8          	mov    rcx,QWORD PTR [rbp-0x38]
  20c658:	48 8b 55 d0          	mov    rdx,QWORD PTR [rbp-0x30]
  20c65c:	48 29 d1             	sub    rcx,rdx
  20c65f:	40 0f 93 c6          	setae  sil
  20c663:	40 0f b6 fe          	movzx  edi,sil
  20c667:	48 89 8d 00 ff ff ff 	mov    QWORD PTR [rbp-0x100],rcx
  20c66e:	e8 8d e9 ff ff       	call   20b000 <assert>
    const thread_ptr = @alignCast(@alignOf(Thread), @intToPtr(*Thread, stack_end));
  20c673:	48 8b 45 c8          	mov    rax,QWORD PTR [rbp-0x38]
  20c677:	48 89 45 b0          	mov    QWORD PTR [rbp-0x50],rax
    thread_ptr.data.stack_addr = stack_addr;
  20c67b:	48 8b 45 b0          	mov    rax,QWORD PTR [rbp-0x50]
  20c67f:	48 8b 4d d0          	mov    rcx,QWORD PTR [rbp-0x30]
  20c683:	48 89 48 08          	mov    QWORD PTR [rax+0x8],rcx
    thread_ptr.data.stack_len = mmap_len;
  20c687:	48 8b 45 b0          	mov    rax,QWORD PTR [rbp-0x50]
  20c68b:	48 c7 40 10 00 00 80 	mov    QWORD PTR [rax+0x10],0x800000
  20c692:	00 
        const newtls: usize = 0;
  20c693:	48 c7 45 a8 00 00 00 	mov    QWORD PTR [rbp-0x58],0x0
  20c69a:	00 
        const rc = posix.clone(MainFuncs.linuxThreadMain, stack_end, flags, arg, &thread_ptr.data.handle, newtls, &thread_ptr.data.handle);
  20c69b:	48 8b 75 c8          	mov    rsi,QWORD PTR [rbp-0x38]
  20c69f:	48 8b 4d c0          	mov    rcx,QWORD PTR [rbp-0x40]
  20c6a3:	48 8b 45 b0          	mov    rax,QWORD PTR [rbp-0x50]
  20c6a7:	48 89 e2             	mov    rdx,rsp
  20c6aa:	48 89 02             	mov    QWORD PTR [rdx],rax
  20c6ad:	48 8d 3d 9c 11 00 00 	lea    rdi,[rip+0x119c]        # 20d850 <MainFuncs_linuxThreadMain.21>
  20c6b4:	41 b8 00 0f 75 00    	mov    r8d,0x750f00
  20c6ba:	44 89 c2             	mov    edx,r8d
  20c6bd:	45 31 c0             	xor    r8d,r8d
  20c6c0:	45 89 c1             	mov    r9d,r8d
  20c6c3:	49 89 c0             	mov    r8,rax
  20c6c6:	e8 45 83 02 00       	call   234a10 <clone>
  20c6cb:	48 89 45 a0          	mov    QWORD PTR [rbp-0x60],rax
        const err = posix.getErrno(rc);
  20c6cf:	48 8b 7d a0          	mov    rdi,QWORD PTR [rbp-0x60]
  20c6d3:	e8 a8 09 00 00       	call   20d080 <getErrno>
  20c6d8:	48 89 45 98          	mov    QWORD PTR [rbp-0x68],rax
        switch (err) {
  20c6dc:	48 8b 45 98          	mov    rax,QWORD PTR [rbp-0x68]
  20c6e0:	48 85 c0             	test   rax,rax
  20c6e3:	48 89 85 f8 fe ff ff 	mov    QWORD PTR [rbp-0x108],rax
  20c6ea:	0f 84 9a fc ff ff    	je     20c38a <spawnThread.17+0x12a>
  20c6f0:	eb 00                	jmp    20c6f2 <spawnThread.17+0x492>
  20c6f2:	48 8b 85 f8 fe ff ff 	mov    rax,QWORD PTR [rbp-0x108]
  20c6f9:	48 83 e8 01          	sub    rax,0x1
  20c6fd:	48 89 85 f0 fe ff ff 	mov    QWORD PTR [rbp-0x110],rax
  20c704:	0f 84 73 fd ff ff    	je     20c47d <spawnThread.17+0x21d>
  20c70a:	eb 00                	jmp    20c70c <spawnThread.17+0x4ac>
  20c70c:	48 8b 85 f8 fe ff ff 	mov    rax,QWORD PTR [rbp-0x108]
  20c713:	48 83 e8 0b          	sub    rax,0xb
  20c717:	48 89 85 e8 fe ff ff 	mov    QWORD PTR [rbp-0x118],rax
  20c71e:	0f 84 97 fc ff ff    	je     20c3bb <spawnThread.17+0x15b>
  20c724:	eb 00                	jmp    20c726 <spawnThread.17+0x4c6>
  20c726:	48 8b 85 f8 fe ff ff 	mov    rax,QWORD PTR [rbp-0x108]
  20c72d:	48 83 e8 0c          	sub    rax,0xc
  20c731:	48 89 85 e0 fe ff ff 	mov    QWORD PTR [rbp-0x120],rax
  20c738:	0f 84 de fc ff ff    	je     20c41c <spawnThread.17+0x1bc>
  20c73e:	eb 00                	jmp    20c740 <spawnThread.17+0x4e0>
  20c740:	48 8b 85 f8 fe ff ff 	mov    rax,QWORD PTR [rbp-0x108]
  20c747:	48 83 e8 16          	sub    rax,0x16
  20c74b:	48 89 85 d8 fe ff ff 	mov    QWORD PTR [rbp-0x128],rax
  20c752:	0f 84 b4 fc ff ff    	je     20c40c <spawnThread.17+0x1ac>
  20c758:	eb 00                	jmp    20c75a <spawnThread.17+0x4fa>
  20c75a:	48 8b 85 f8 fe ff ff 	mov    rax,QWORD PTR [rbp-0x108]
  20c761:	48 83 e8 1c          	sub    rax,0x1c
  20c765:	48 89 85 d0 fe ff ff 	mov    QWORD PTR [rbp-0x130],rax
  20c76c:	0f 84 fb fc ff ff    	je     20c46d <spawnThread.17+0x20d>
  20c772:	eb 00                	jmp    20c774 <spawnThread.17+0x514>
  20c774:	48 8b 85 f8 fe ff ff 	mov    rax,QWORD PTR [rbp-0x108]
  20c77b:	48 83 e8 57          	sub    rax,0x57
  20c77f:	48 89 85 c8 fe ff ff 	mov    QWORD PTR [rbp-0x138],rax
  20c786:	0f 84 01 fd ff ff    	je     20c48d <spawnThread.17+0x22d>
  20c78c:	e9 8d fb ff ff       	jmp    20c31e <spawnThread.17+0xbe>
  20c791:	66 66 66 66 66 66 2e 	data16 data16 data16 data16 data16 nop WORD PTR cs:[rax+rax*1+0x0]
  20c798:	0f 1f 84 00 00 00 00 
  20c79f:	00 

000000000020c7a0 <Thread_wait>:
    pub fn wait(self: *const Thread) void {
  20c7a0:	55                   	push   rbp
  20c7a1:	48 89 e5             	mov    rbp,rsp
  20c7a4:	48 83 ec 40          	sub    rsp,0x40
  20c7a8:	48 89 7d f0          	mov    QWORD PTR [rbp-0x10],rdi
                while (true) {
  20c7ac:	eb 00                	jmp    20c7ae <Thread_wait+0xe>
                    const pid_value = @atomicLoad(i32, &self.data.handle, builtin.AtomicOrder.SeqCst);
  20c7ae:	48 8b 45 f0          	mov    rax,QWORD PTR [rbp-0x10]
  20c7b2:	8b 08                	mov    ecx,DWORD PTR [rax]
  20c7b4:	89 4d ec             	mov    DWORD PTR [rbp-0x14],ecx
                    if (pid_value == 0) break;
  20c7b7:	83 7d ec 00          	cmp    DWORD PTR [rbp-0x14],0x0
  20c7bb:	75 02                	jne    20c7bf <Thread_wait+0x1f>
  20c7bd:	eb 68                	jmp    20c827 <Thread_wait+0x87>
                    const rc = linux.futex_wait(@ptrToInt(&self.data.handle), linux.FUTEX_WAIT, pid_value, null);
  20c7bf:	48 8b 7d f0          	mov    rdi,QWORD PTR [rbp-0x10]
  20c7c3:	8b 55 ec             	mov    edx,DWORD PTR [rbp-0x14]
  20c7c6:	31 c0                	xor    eax,eax
  20c7c8:	89 c1                	mov    ecx,eax
  20c7ca:	89 c6                	mov    esi,eax
  20c7cc:	e8 af 10 00 00       	call   20d880 <futex_wait.22>
  20c7d1:	48 89 45 e0          	mov    QWORD PTR [rbp-0x20],rax
                    switch (linux.getErrno(rc)) {
  20c7d5:	48 8b 7d e0          	mov    rdi,QWORD PTR [rbp-0x20]
  20c7d9:	e8 a2 08 00 00       	call   20d080 <getErrno>
  20c7de:	48 89 45 f8          	mov    QWORD PTR [rbp-0x8],rax
  20c7e2:	48 8b 45 f8          	mov    rax,QWORD PTR [rbp-0x8]
  20c7e6:	48 85 c0             	test   rax,rax
  20c7e9:	48 89 45 d8          	mov    QWORD PTR [rbp-0x28],rax
  20c7ed:	74 32                	je     20c821 <Thread_wait+0x81>
  20c7ef:	eb 00                	jmp    20c7f1 <Thread_wait+0x51>
  20c7f1:	48 8b 45 d8          	mov    rax,QWORD PTR [rbp-0x28]
  20c7f5:	48 83 e8 04          	sub    rax,0x4
  20c7f9:	48 89 45 d0          	mov    QWORD PTR [rbp-0x30],rax
  20c7fd:	74 24                	je     20c823 <Thread_wait+0x83>
  20c7ff:	eb 00                	jmp    20c801 <Thread_wait+0x61>
  20c801:	48 8b 45 d8          	mov    rax,QWORD PTR [rbp-0x28]
  20c805:	48 83 e8 0b          	sub    rax,0xb
  20c809:	48 89 45 c8          	mov    QWORD PTR [rbp-0x38],rax
  20c80d:	74 16                	je     20c825 <Thread_wait+0x85>
  20c80f:	eb 00                	jmp    20c811 <Thread_wait+0x71>
  20c811:	48 8d 3d f8 6a 03 00 	lea    rdi,[rip+0x36af8]        # 243310 <__unnamed_13>
  20c818:	31 c0                	xor    eax,eax
  20c81a:	89 c6                	mov    esi,eax
                        else => unreachable,
  20c81c:	e8 df ed ff ff       	call   20b600 <panic>
                        0 => continue,
  20c821:	eb 89                	jmp    20c7ac <Thread_wait+0xc>
                        posix.EINTR => continue,
  20c823:	eb 87                	jmp    20c7ac <Thread_wait+0xc>
                        posix.EAGAIN => continue,
  20c825:	eb 85                	jmp    20c7ac <Thread_wait+0xc>
                assert(posix.munmap(self.data.stack_addr, self.data.stack_len) == 0);
  20c827:	48 8b 45 f0          	mov    rax,QWORD PTR [rbp-0x10]
  20c82b:	48 8b 78 08          	mov    rdi,QWORD PTR [rax+0x8]
  20c82f:	48 8b 45 f0          	mov    rax,QWORD PTR [rbp-0x10]
  20c833:	48 8b 70 10          	mov    rsi,QWORD PTR [rax+0x10]
  20c837:	e8 84 0d 00 00       	call   20d5c0 <munmap>
  20c83c:	48 83 f8 00          	cmp    rax,0x0
  20c840:	0f 94 c1             	sete   cl
  20c843:	0f b6 f9             	movzx  edi,cl
  20c846:	e8 b5 e7 ff ff       	call   20b000 <assert>
    pub fn wait(self: *const Thread) void {
  20c84b:	48 83 c4 40          	add    rsp,0x40
  20c84f:	5d                   	pop    rbp
  20c850:	c3                   	ret    
  20c851:	66 66 66 66 66 66 2e 	data16 data16 data16 data16 data16 nop WORD PTR cs:[rax+rax*1+0x0]
  20c858:	0f 1f 84 00 00 00 00 
  20c85f:	00 

000000000020c860 <warn.18>:
  20c860:	55                   	push   rbp
  20c861:	48 89 e5             	mov    rbp,rsp
  20c864:	48 81 ec 50 01 00 00 	sub    rsp,0x150
  20c86b:	48 8d bd e8 fe ff ff 	lea    rdi,[rbp-0x118]
  20c872:	48 8d b5 f8 fe ff ff 	lea    rsi,[rbp-0x108]
  20c879:	48 8d 85 10 ff ff ff 	lea    rax,[rbp-0xf0]
  20c880:	48 c7 85 f8 fe ff ff 	mov    QWORD PTR [rbp-0x108],0x0
  20c887:	00 00 00 00 
  20c88b:	48 89 85 00 ff ff ff 	mov    QWORD PTR [rbp-0x100],rax
  20c892:	48 c7 85 08 ff ff ff 	mov    QWORD PTR [rbp-0xf8],0x1e
  20c899:	1e 00 00 00 
  20c89d:	c5 fb 11 85 c8 fe ff 	vmovsd QWORD PTR [rbp-0x138],xmm0
  20c8a4:	ff 
    const stderr = getStderrStream() catch return;
  20c8a5:	e8 a6 00 00 00       	call   20c950 <getStderrStream>
  20c8aa:	66 83 bd e8 fe ff ff 	cmp    WORD PTR [rbp-0x118],0x0
  20c8b1:	00 
  20c8b2:	74 09                	je     20c8bd <warn.18+0x5d>
  20c8b4:	48 81 c4 50 01 00 00 	add    rsp,0x150
  20c8bb:	5d                   	pop    rbp
  20c8bc:	c3                   	ret    
  20c8bd:	48 8b 85 f0 fe ff ff 	mov    rax,QWORD PTR [rbp-0x110]
  20c8c4:	48 89 85 b8 fe ff ff 	mov    QWORD PTR [rbp-0x148],rax
  20c8cb:	48 8d bd f8 fe ff ff 	lea    rdi,[rbp-0x108]
  20c8d2:	48 8b 85 b8 fe ff ff 	mov    rax,QWORD PTR [rbp-0x148]
  20c8d9:	48 89 85 c0 fe ff ff 	mov    QWORD PTR [rbp-0x140],rax
    stderr.print(fmt, args) catch return;
  20c8e0:	48 8b b5 c0 fe ff ff 	mov    rsi,QWORD PTR [rbp-0x140]
  20c8e7:	c5 fb 10 85 c8 fe ff 	vmovsd xmm0,QWORD PTR [rbp-0x138]
  20c8ee:	ff 
  20c8ef:	e8 ec 0f 00 00       	call   20d8e0 <OutStream(error{SystemResources,OperationAborted,IoPending,BrokenPipe,Unexpected,WouldBlock,FileClosed,DestinationAddressRequired,DiskQuota,FileTooBig,InputOutput,NoSpaceLeft,AccessDenied,})_print.23>
  20c8f4:	66 89 85 d6 fe ff ff 	mov    WORD PTR [rbp-0x12a],ax
  20c8fb:	66 83 bd d6 fe ff ff 	cmp    WORD PTR [rbp-0x12a],0x0
  20c902:	00 
  20c903:	74 09                	je     20c90e <warn.18+0xae>
  20c905:	48 81 c4 50 01 00 00 	add    rsp,0x150
  20c90c:	5d                   	pop    rbp
  20c90d:	c3                   	ret    
pub fn warn(comptime fmt: []const u8, args: ...) void {
  20c90e:	48 81 c4 50 01 00 00 	add    rsp,0x150
  20c915:	5d                   	pop    rbp
  20c916:	c3                   	ret    
  20c917:	66 0f 1f 84 00 00 00 	nop    WORD PTR [rax+rax*1+0x0]
  20c91e:	00 00 

000000000020c920 <abort>:
pub fn abort() noreturn {
  20c920:	55                   	push   rbp
  20c921:	48 89 e5             	mov    rbp,rsp
  20c924:	48 83 ec 10          	sub    rsp,0x10
  20c928:	bf 06 00 00 00       	mov    edi,0x6
            _ = posix.raise(posix.SIGABRT);
  20c92d:	e8 fe 0f 00 00       	call   20d930 <raise>
  20c932:	bf 09 00 00 00       	mov    edi,0x9
            _ = posix.raise(posix.SIGKILL);
  20c937:	48 89 45 f8          	mov    QWORD PTR [rbp-0x8],rax
  20c93b:	e8 f0 0f 00 00       	call   20d930 <raise>
  20c940:	48 89 45 f0          	mov    QWORD PTR [rbp-0x10],rax
            while (true) {}
  20c944:	eb fe                	jmp    20c944 <abort+0x24>
  20c946:	66 2e 0f 1f 84 00 00 	nop    WORD PTR cs:[rax+rax*1+0x0]
  20c94d:	00 00 00 

000000000020c950 <getStderrStream>:
pub fn getStderrStream() !*io.OutStream(io.FileOutStream.Error) {
  20c950:	55                   	push   rbp
  20c951:	48 89 e5             	mov    rbp,rsp
  20c954:	48 83 ec 70          	sub    rsp,0x70
  20c958:	48 89 f8             	mov    rax,rdi
    if (stderr_stream) |st| {
  20c95b:	48 83 3d cd 76 03 00 	cmp    QWORD PTR [rip+0x376cd],0x0        # 244030 <stderr_stream>
  20c962:	00 
  20c963:	48 89 45 a8          	mov    QWORD PTR [rbp-0x58],rax
  20c967:	48 89 75 a0          	mov    QWORD PTR [rbp-0x60],rsi
  20c96b:	48 89 7d 98          	mov    QWORD PTR [rbp-0x68],rdi
  20c96f:	74 36                	je     20c9a7 <getStderrStream+0x57>
  20c971:	48 8b 05 b8 76 03 00 	mov    rax,QWORD PTR [rip+0x376b8]        # 244030 <stderr_stream>
  20c978:	48 89 45 b8          	mov    QWORD PTR [rbp-0x48],rax
        return st;
  20c97c:	48 8b 45 b8          	mov    rax,QWORD PTR [rbp-0x48]
  20c980:	66 c7 45 f0 00 00    	mov    WORD PTR [rbp-0x10],0x0
  20c986:	48 89 45 f8          	mov    QWORD PTR [rbp-0x8],rax
  20c98a:	48 8b 45 f0          	mov    rax,QWORD PTR [rbp-0x10]
  20c98e:	48 8b 4d 98          	mov    rcx,QWORD PTR [rbp-0x68]
  20c992:	48 89 01             	mov    QWORD PTR [rcx],rax
  20c995:	48 8b 45 f8          	mov    rax,QWORD PTR [rbp-0x8]
  20c999:	48 89 41 08          	mov    QWORD PTR [rcx+0x8],rax
  20c99d:	48 8b 45 a8          	mov    rax,QWORD PTR [rbp-0x58]
  20c9a1:	48 83 c4 70          	add    rsp,0x70
  20c9a5:	5d                   	pop    rbp
  20c9a6:	c3                   	ret    
  20c9a7:	48 8d 7d e8          	lea    rdi,[rbp-0x18]
        stderr_file = try io.getStdErr();
  20c9ab:	48 8b 75 a0          	mov    rsi,QWORD PTR [rbp-0x60]
  20c9af:	e8 3c 10 00 00       	call   20d9f0 <getStdErr>
  20c9b4:	66 83 7d e8 00       	cmp    WORD PTR [rbp-0x18],0x0
  20c9b9:	74 36                	je     20c9f1 <getStderrStream+0xa1>
  20c9bb:	66 8b 45 e8          	mov    ax,WORD PTR [rbp-0x18]
  20c9bf:	48 8b 7d a0          	mov    rdi,QWORD PTR [rbp-0x60]
  20c9c3:	66 89 45 96          	mov    WORD PTR [rbp-0x6a],ax
  20c9c7:	e8 c4 f2 ff ff       	call   20bc90 <__zig_return_error>
  20c9cc:	66 8b 45 96          	mov    ax,WORD PTR [rbp-0x6a]
  20c9d0:	66 89 45 d0          	mov    WORD PTR [rbp-0x30],ax
  20c9d4:	48 8b 7d d0          	mov    rdi,QWORD PTR [rbp-0x30]
  20c9d8:	48 8b 4d 98          	mov    rcx,QWORD PTR [rbp-0x68]
  20c9dc:	48 89 39             	mov    QWORD PTR [rcx],rdi
  20c9df:	48 8b 7d d8          	mov    rdi,QWORD PTR [rbp-0x28]
  20c9e3:	48 89 79 08          	mov    QWORD PTR [rcx+0x8],rdi
  20c9e7:	48 8b 45 a8          	mov    rax,QWORD PTR [rbp-0x58]
  20c9eb:	48 83 c4 70          	add    rsp,0x70
  20c9ef:	5d                   	pop    rbp
  20c9f0:	c3                   	ret    
  20c9f1:	48 8d 7d c0          	lea    rdi,[rbp-0x40]
  20c9f5:	48 8d 35 24 f6 02 00 	lea    rsi,[rip+0x2f624]        # 23c020 <stderr_file>
  20c9fc:	8b 45 ec             	mov    eax,DWORD PTR [rbp-0x14]
  20c9ff:	89 05 1b f6 02 00    	mov    DWORD PTR [rip+0x2f61b],eax        # 23c020 <stderr_file>
        stderr_file_out_stream = io.FileOutStream.init(&stderr_file);
  20ca05:	e8 36 10 00 00       	call   20da40 <FileOutStream_init>
  20ca0a:	48 8d 35 17 f6 02 00 	lea    rsi,[rip+0x2f617]        # 23c028 <stderr_file_out_stream>
  20ca11:	48 83 c6 08          	add    rsi,0x8
  20ca15:	48 8b 7d c0          	mov    rdi,QWORD PTR [rbp-0x40]
  20ca19:	48 89 3d 08 f6 02 00 	mov    QWORD PTR [rip+0x2f608],rdi        # 23c028 <stderr_file_out_stream>
  20ca20:	48 8b 7d c8          	mov    rdi,QWORD PTR [rbp-0x38]
  20ca24:	48 89 3d 05 f6 02 00 	mov    QWORD PTR [rip+0x2f605],rdi        # 23c030 <stderr_file_out_stream+0x8>
        const st = &stderr_file_out_stream.stream;
  20ca2b:	48 89 75 b0          	mov    QWORD PTR [rbp-0x50],rsi
        stderr_stream = st;
  20ca2f:	48 89 35 fa 75 03 00 	mov    QWORD PTR [rip+0x375fa],rsi        # 244030 <stderr_stream>
        return st;
  20ca36:	48 8b 35 83 69 03 00 	mov    rsi,QWORD PTR [rip+0x36983]        # 2433c0 <__unnamed_19>
  20ca3d:	48 8b 7d 98          	mov    rdi,QWORD PTR [rbp-0x68]
  20ca41:	48 89 37             	mov    QWORD PTR [rdi],rsi
  20ca44:	48 8b 35 7d 69 03 00 	mov    rsi,QWORD PTR [rip+0x3697d]        # 2433c8 <__unnamed_19+0x8>
  20ca4b:	48 89 77 08          	mov    QWORD PTR [rdi+0x8],rsi
  20ca4f:	48 8b 45 a8          	mov    rax,QWORD PTR [rbp-0x58]
  20ca53:	48 83 c4 70          	add    rsp,0x70
  20ca57:	5d                   	pop    rbp
  20ca58:	c3                   	ret    
  20ca59:	0f 1f 80 00 00 00 00 	nop    DWORD PTR [rax+0x0]

000000000020ca60 <OutStream(error{SystemResources,OperationAborted,IoPending,BrokenPipe,Unexpected,WouldBlock,FileClosed,DestinationAddressRequired,DiskQuota,FileTooBig,InputOutput,NoSpaceLeft,AccessDenied,})_print>:
        const Self = this;
        pub const Error = WriteError;

        writeFn: fn (self: *Self, bytes: []const u8) Error!void,

        pub fn print(self: *Self, comptime format: []const u8, args: ...) !void {
  20ca60:	55                   	push   rbp
  20ca61:	48 89 e5             	mov    rbp,rsp
  20ca64:	48 83 ec 20          	sub    rsp,0x20
  20ca68:	48 89 75 f8          	mov    QWORD PTR [rbp-0x8],rsi
            return std.fmt.format(self, Error, self.writeFn, format, args);
  20ca6c:	48 8b 75 f8          	mov    rsi,QWORD PTR [rbp-0x8]
  20ca70:	48 8b 45 f8          	mov    rax,QWORD PTR [rbp-0x8]
  20ca74:	48 8b 00             	mov    rax,QWORD PTR [rax]
  20ca77:	48 89 7d f0          	mov    QWORD PTR [rbp-0x10],rdi
  20ca7b:	48 89 55 e8          	mov    QWORD PTR [rbp-0x18],rdx
  20ca7f:	48 89 c2             	mov    rdx,rax
  20ca82:	48 8b 4d e8          	mov    rcx,QWORD PTR [rbp-0x18]
  20ca86:	e8 55 10 00 00       	call   20dae0 <format>
  20ca8b:	66 83 f8 00          	cmp    ax,0x0
  20ca8f:	66 89 45 e6          	mov    WORD PTR [rbp-0x1a],ax
  20ca93:	74 0b                	je     20caa0 <OutStream(error{SystemResources,OperationAborted,IoPending,BrokenPipe,Unexpected,WouldBlock,FileClosed,DestinationAddressRequired,DiskQuota,FileTooBig,InputOutput,NoSpaceLeft,AccessDenied,})_print+0x40>
  20ca95:	48 8b 7d f0          	mov    rdi,QWORD PTR [rbp-0x10]
  20ca99:	e8 f2 f1 ff ff       	call   20bc90 <__zig_return_error>
  20ca9e:	eb 02                	jmp    20caa2 <OutStream(error{SystemResources,OperationAborted,IoPending,BrokenPipe,Unexpected,WouldBlock,FileClosed,DestinationAddressRequired,DiskQuota,FileTooBig,InputOutput,NoSpaceLeft,AccessDenied,})_print+0x42>
  20caa0:	eb 00                	jmp    20caa2 <OutStream(error{SystemResources,OperationAborted,IoPending,BrokenPipe,Unexpected,WouldBlock,FileClosed,DestinationAddressRequired,DiskQuota,FileTooBig,InputOutput,NoSpaceLeft,AccessDenied,})_print+0x42>
  20caa2:	66 8b 45 e6          	mov    ax,WORD PTR [rbp-0x1a]
  20caa6:	48 83 c4 20          	add    rsp,0x20
  20caaa:	5d                   	pop    rbp
  20caab:	c3                   	ret    
  20caac:	0f 1f 40 00          	nop    DWORD PTR [rax+0x0]

000000000020cab0 <dumpStackTrace>:
pub fn dumpStackTrace(stack_trace: *const builtin.StackTrace) void {
  20cab0:	55                   	push   rbp
  20cab1:	48 89 e5             	mov    rbp,rsp
  20cab4:	48 81 ec d0 01 00 00 	sub    rsp,0x1d0
  20cabb:	48 8d 85 e8 fe ff ff 	lea    rax,[rbp-0x118]
  20cac2:	48 8d b5 f8 fe ff ff 	lea    rsi,[rbp-0x108]
  20cac9:	48 8d 8d 10 ff ff ff 	lea    rcx,[rbp-0xf0]
  20cad0:	48 c7 85 f8 fe ff ff 	mov    QWORD PTR [rbp-0x108],0x0
  20cad7:	00 00 00 00 
  20cadb:	48 89 8d 00 ff ff ff 	mov    QWORD PTR [rbp-0x100],rcx
  20cae2:	48 c7 85 08 ff ff ff 	mov    QWORD PTR [rbp-0xf8],0x1e
  20cae9:	1e 00 00 00 
  20caed:	48 89 bd a8 fe ff ff 	mov    QWORD PTR [rbp-0x158],rdi
    const stderr = getStderrStream() catch return;
  20caf4:	48 89 c7             	mov    rdi,rax
  20caf7:	e8 54 fe ff ff       	call   20c950 <getStderrStream>
  20cafc:	66 83 bd e8 fe ff ff 	cmp    WORD PTR [rbp-0x118],0x0
  20cb03:	00 
  20cb04:	74 09                	je     20cb0f <dumpStackTrace+0x5f>
  20cb06:	48 81 c4 d0 01 00 00 	add    rsp,0x1d0
  20cb0d:	5d                   	pop    rbp
  20cb0e:	c3                   	ret    
  20cb0f:	48 8b 85 f0 fe ff ff 	mov    rax,QWORD PTR [rbp-0x110]
  20cb16:	48 89 85 80 fe ff ff 	mov    QWORD PTR [rbp-0x180],rax
  20cb1d:	48 8d bd c8 fe ff ff 	lea    rdi,[rbp-0x138]
  20cb24:	48 8d b5 f8 fe ff ff 	lea    rsi,[rbp-0x108]
  20cb2b:	48 8b 85 80 fe ff ff 	mov    rax,QWORD PTR [rbp-0x180]
  20cb32:	48 89 85 a0 fe ff ff 	mov    QWORD PTR [rbp-0x160],rax
    const debug_info = getSelfDebugInfo() catch |err| {
  20cb39:	e8 a2 10 00 00       	call   20dbe0 <getSelfDebugInfo>
  20cb3e:	66 83 bd c8 fe ff ff 	cmp    WORD PTR [rbp-0x138],0x0
  20cb45:	00 
  20cb46:	74 4b                	je     20cb93 <dumpStackTrace+0xe3>
  20cb48:	66 8b 85 c8 fe ff ff 	mov    ax,WORD PTR [rbp-0x138]
  20cb4f:	66 89 85 9e fe ff ff 	mov    WORD PTR [rbp-0x162],ax
        stderr.print("Unable to dump stack trace: Unable to open debug info: {}\n", @errorName(err)) catch return;
  20cb56:	48 8b b5 a0 fe ff ff 	mov    rsi,QWORD PTR [rbp-0x160]
  20cb5d:	66 8b 85 9e fe ff ff 	mov    ax,WORD PTR [rbp-0x162]
  20cb64:	66 83 f8 00          	cmp    ax,0x0
  20cb68:	48 89 b5 78 fe ff ff 	mov    QWORD PTR [rbp-0x188],rsi
  20cb6f:	66 89 85 76 fe ff ff 	mov    WORD PTR [rbp-0x18a],ax
  20cb76:	0f 85 69 01 00 00    	jne    20cce5 <dumpStackTrace+0x235>
  20cb7c:	e9 0b 01 00 00       	jmp    20cc8c <dumpStackTrace+0x1dc>
  20cb81:	48 81 c4 d0 01 00 00 	add    rsp,0x1d0
  20cb88:	5d                   	pop    rbp
  20cb89:	c3                   	ret    
        return;
  20cb8a:	48 81 c4 d0 01 00 00 	add    rsp,0x1d0
  20cb91:	5d                   	pop    rbp
  20cb92:	c3                   	ret    
    const debug_info = getSelfDebugInfo() catch |err| {
  20cb93:	48 8b 85 d0 fe ff ff 	mov    rax,QWORD PTR [rbp-0x130]
  20cb9a:	48 89 85 68 fe ff ff 	mov    QWORD PTR [rbp-0x198],rax
  20cba1:	48 8b 85 68 fe ff ff 	mov    rax,QWORD PTR [rbp-0x198]
  20cba8:	48 89 85 90 fe ff ff 	mov    QWORD PTR [rbp-0x170],rax
    writeStackTrace(stack_trace, stderr, getDebugInfoAllocator(), debug_info, wantTtyColor()) catch |err| {
  20cbaf:	48 8b b5 a8 fe ff ff 	mov    rsi,QWORD PTR [rbp-0x158]
  20cbb6:	48 8b 95 a0 fe ff ff 	mov    rdx,QWORD PTR [rbp-0x160]
  20cbbd:	48 89 b5 60 fe ff ff 	mov    QWORD PTR [rbp-0x1a0],rsi
  20cbc4:	48 89 95 58 fe ff ff 	mov    QWORD PTR [rbp-0x1a8],rdx
  20cbcb:	e8 60 11 00 00       	call   20dd30 <getDebugInfoAllocator>
  20cbd0:	4c 8b 85 90 fe ff ff 	mov    r8,QWORD PTR [rbp-0x170]
  20cbd7:	48 89 85 50 fe ff ff 	mov    QWORD PTR [rbp-0x1b0],rax
  20cbde:	4c 89 85 48 fe ff ff 	mov    QWORD PTR [rbp-0x1b8],r8
  20cbe5:	e8 06 12 00 00       	call   20ddf0 <wantTtyColor>
  20cbea:	48 8d 95 f8 fe ff ff 	lea    rdx,[rbp-0x108]
  20cbf1:	44 0f b6 c8          	movzx  r9d,al
  20cbf5:	48 8d bd f8 fe ff ff 	lea    rdi,[rbp-0x108]
  20cbfc:	48 8b b5 60 fe ff ff 	mov    rsi,QWORD PTR [rbp-0x1a0]
  20cc03:	4c 8b 85 58 fe ff ff 	mov    r8,QWORD PTR [rbp-0x1a8]
  20cc0a:	48 89 95 40 fe ff ff 	mov    QWORD PTR [rbp-0x1c0],rdx
  20cc11:	4c 89 c2             	mov    rdx,r8
  20cc14:	48 8b 8d 50 fe ff ff 	mov    rcx,QWORD PTR [rbp-0x1b0]
  20cc1b:	4c 8b 85 48 fe ff ff 	mov    r8,QWORD PTR [rbp-0x1b8]
  20cc22:	e8 f9 12 00 00       	call   20df20 <writeStackTrace>
  20cc27:	66 89 85 b4 fe ff ff 	mov    WORD PTR [rbp-0x14c],ax
  20cc2e:	66 83 bd b4 fe ff ff 	cmp    WORD PTR [rbp-0x14c],0x0
  20cc35:	00 
  20cc36:	74 4b                	je     20cc83 <dumpStackTrace+0x1d3>
  20cc38:	66 8b 85 b4 fe ff ff 	mov    ax,WORD PTR [rbp-0x14c]
  20cc3f:	66 89 85 8e fe ff ff 	mov    WORD PTR [rbp-0x172],ax
        stderr.print("Unable to dump stack trace: {}\n", @errorName(err)) catch return;
  20cc46:	48 8b b5 a0 fe ff ff 	mov    rsi,QWORD PTR [rbp-0x160]
  20cc4d:	66 8b 85 8e fe ff ff 	mov    ax,WORD PTR [rbp-0x172]
  20cc54:	66 83 f8 00          	cmp    ax,0x0
  20cc58:	48 89 b5 38 fe ff ff 	mov    QWORD PTR [rbp-0x1c8],rsi
  20cc5f:	66 89 85 36 fe ff ff 	mov    WORD PTR [rbp-0x1ca],ax
  20cc66:	0f 85 e1 00 00 00    	jne    20cd4d <dumpStackTrace+0x29d>
  20cc6c:	e9 83 00 00 00       	jmp    20ccf4 <dumpStackTrace+0x244>
  20cc71:	48 81 c4 d0 01 00 00 	add    rsp,0x1d0
  20cc78:	5d                   	pop    rbp
  20cc79:	c3                   	ret    
        return;
  20cc7a:	48 81 c4 d0 01 00 00 	add    rsp,0x1d0
  20cc81:	5d                   	pop    rbp
  20cc82:	c3                   	ret    
pub fn dumpStackTrace(stack_trace: *const builtin.StackTrace) void {
  20cc83:	48 81 c4 d0 01 00 00 	add    rsp,0x1d0
  20cc8a:	5d                   	pop    rbp
  20cc8b:	c3                   	ret    
  20cc8c:	48 8d 3d 65 67 03 00 	lea    rdi,[rip+0x36765]        # 2433f8 <__unnamed_20>
  20cc93:	31 c0                	xor    eax,eax
  20cc95:	89 c6                	mov    esi,eax
        stderr.print("Unable to dump stack trace: Unable to open debug info: {}\n", @errorName(err)) catch return;
  20cc97:	e8 64 e9 ff ff       	call   20b600 <panic>
  20cc9c:	48 8d bd f8 fe ff ff 	lea    rdi,[rbp-0x108]
  20cca3:	48 8d 05 56 03 03 00 	lea    rax,[rip+0x30356]        # 23d000 <raw+0xf48>
  20ccaa:	66 8b 8d 76 fe ff ff 	mov    cx,WORD PTR [rbp-0x18a]
  20ccb1:	48 0f bf d1          	movsx  rdx,cx
  20ccb5:	48 c1 e2 04          	shl    rdx,0x4
  20ccb9:	48 01 d0             	add    rax,rdx
  20ccbc:	48 8b b5 78 fe ff ff 	mov    rsi,QWORD PTR [rbp-0x188]
  20ccc3:	48 89 c2             	mov    rdx,rax
  20ccc6:	e8 15 10 00 00       	call   20dce0 <OutStream(error{SystemResources,OperationAborted,IoPending,BrokenPipe,Unexpected,WouldBlock,FileClosed,DestinationAddressRequired,DiskQuota,FileTooBig,InputOutput,NoSpaceLeft,AccessDenied,})_print.24>
  20cccb:	66 89 85 b6 fe ff ff 	mov    WORD PTR [rbp-0x14a],ax
  20ccd2:	66 83 bd b6 fe ff ff 	cmp    WORD PTR [rbp-0x14a],0x0
  20ccd9:	00 
  20ccda:	0f 85 a1 fe ff ff    	jne    20cb81 <dumpStackTrace+0xd1>
  20cce0:	e9 a5 fe ff ff       	jmp    20cb8a <dumpStackTrace+0xda>
  20cce5:	66 8b 85 76 fe ff ff 	mov    ax,WORD PTR [rbp-0x18a]
  20ccec:	66 83 f8 2a          	cmp    ax,0x2a
  20ccf0:	72 aa                	jb     20cc9c <dumpStackTrace+0x1ec>
  20ccf2:	eb 98                	jmp    20cc8c <dumpStackTrace+0x1dc>
  20ccf4:	48 8d 3d fd 66 03 00 	lea    rdi,[rip+0x366fd]        # 2433f8 <__unnamed_20>
  20ccfb:	31 c0                	xor    eax,eax
  20ccfd:	89 c6                	mov    esi,eax
        stderr.print("Unable to dump stack trace: {}\n", @errorName(err)) catch return;
  20ccff:	e8 fc e8 ff ff       	call   20b600 <panic>
  20cd04:	48 8d bd f8 fe ff ff 	lea    rdi,[rbp-0x108]
  20cd0b:	48 8d 05 ee 02 03 00 	lea    rax,[rip+0x302ee]        # 23d000 <raw+0xf48>
  20cd12:	66 8b 8d 36 fe ff ff 	mov    cx,WORD PTR [rbp-0x1ca]
  20cd19:	48 0f bf d1          	movsx  rdx,cx
  20cd1d:	48 c1 e2 04          	shl    rdx,0x4
  20cd21:	48 01 d0             	add    rax,rdx
  20cd24:	48 8b b5 38 fe ff ff 	mov    rsi,QWORD PTR [rbp-0x1c8]
  20cd2b:	48 89 c2             	mov    rdx,rax
  20cd2e:	e8 7d 14 00 00       	call   20e1b0 <OutStream(error{SystemResources,OperationAborted,IoPending,BrokenPipe,Unexpected,WouldBlock,FileClosed,DestinationAddressRequired,DiskQuota,FileTooBig,InputOutput,NoSpaceLeft,AccessDenied,})_print.25>
  20cd33:	66 89 85 b2 fe ff ff 	mov    WORD PTR [rbp-0x14e],ax
  20cd3a:	66 83 bd b2 fe ff ff 	cmp    WORD PTR [rbp-0x14e],0x0
  20cd41:	00 
  20cd42:	0f 85 29 ff ff ff    	jne    20cc71 <dumpStackTrace+0x1c1>
  20cd48:	e9 2d ff ff ff       	jmp    20cc7a <dumpStackTrace+0x1ca>
  20cd4d:	66 8b 85 36 fe ff ff 	mov    ax,WORD PTR [rbp-0x1ca]
  20cd54:	66 83 f8 2a          	cmp    ax,0x2a
  20cd58:	72 aa                	jb     20cd04 <dumpStackTrace+0x254>
  20cd5a:	eb 98                	jmp    20ccf4 <dumpStackTrace+0x244>
  20cd5c:	0f 1f 40 00          	nop    DWORD PTR [rax+0x0]

000000000020cd60 <dumpCurrentStackTrace>:
pub fn dumpCurrentStackTrace(start_addr: ?usize) void {
  20cd60:	55                   	push   rbp
  20cd61:	48 89 e5             	mov    rbp,rsp
  20cd64:	48 81 ec d0 01 00 00 	sub    rsp,0x1d0
  20cd6b:	48 8d 85 e8 fe ff ff 	lea    rax,[rbp-0x118]
  20cd72:	48 8d b5 f8 fe ff ff 	lea    rsi,[rbp-0x108]
  20cd79:	48 8d 8d 10 ff ff ff 	lea    rcx,[rbp-0xf0]
  20cd80:	48 c7 85 f8 fe ff ff 	mov    QWORD PTR [rbp-0x108],0x0
  20cd87:	00 00 00 00 
  20cd8b:	48 89 8d 00 ff ff ff 	mov    QWORD PTR [rbp-0x100],rcx
  20cd92:	48 c7 85 08 ff ff ff 	mov    QWORD PTR [rbp-0xf8],0x1e
  20cd99:	1e 00 00 00 
    const stderr = getStderrStream() catch return;
  20cd9d:	48 89 bd 88 fe ff ff 	mov    QWORD PTR [rbp-0x178],rdi
  20cda4:	48 89 c7             	mov    rdi,rax
  20cda7:	e8 a4 fb ff ff       	call   20c950 <getStderrStream>
  20cdac:	66 83 bd e8 fe ff ff 	cmp    WORD PTR [rbp-0x118],0x0
  20cdb3:	00 
  20cdb4:	74 09                	je     20cdbf <dumpCurrentStackTrace+0x5f>
  20cdb6:	48 81 c4 d0 01 00 00 	add    rsp,0x1d0
  20cdbd:	5d                   	pop    rbp
  20cdbe:	c3                   	ret    
  20cdbf:	48 8b 85 f0 fe ff ff 	mov    rax,QWORD PTR [rbp-0x110]
  20cdc6:	48 89 85 80 fe ff ff 	mov    QWORD PTR [rbp-0x180],rax
  20cdcd:	48 8d bd c8 fe ff ff 	lea    rdi,[rbp-0x138]
  20cdd4:	48 8d b5 f8 fe ff ff 	lea    rsi,[rbp-0x108]
  20cddb:	48 8b 85 80 fe ff ff 	mov    rax,QWORD PTR [rbp-0x180]
  20cde2:	48 89 85 a8 fe ff ff 	mov    QWORD PTR [rbp-0x158],rax
    const debug_info = getSelfDebugInfo() catch |err| {
  20cde9:	e8 f2 0d 00 00       	call   20dbe0 <getSelfDebugInfo>
  20cdee:	66 83 bd c8 fe ff ff 	cmp    WORD PTR [rbp-0x138],0x0
  20cdf5:	00 
  20cdf6:	74 4b                	je     20ce43 <dumpCurrentStackTrace+0xe3>
  20cdf8:	66 8b 85 c8 fe ff ff 	mov    ax,WORD PTR [rbp-0x138]
  20cdff:	66 89 85 a6 fe ff ff 	mov    WORD PTR [rbp-0x15a],ax
        stderr.print("Unable to dump stack trace: Unable to open debug info: {}\n", @errorName(err)) catch return;
  20ce06:	48 8b b5 a8 fe ff ff 	mov    rsi,QWORD PTR [rbp-0x158]
  20ce0d:	66 8b 85 a6 fe ff ff 	mov    ax,WORD PTR [rbp-0x15a]
  20ce14:	66 83 f8 00          	cmp    ax,0x0
  20ce18:	48 89 b5 78 fe ff ff 	mov    QWORD PTR [rbp-0x188],rsi
  20ce1f:	66 89 85 76 fe ff ff 	mov    WORD PTR [rbp-0x18a],ax
  20ce26:	0f 85 5b 01 00 00    	jne    20cf87 <dumpCurrentStackTrace+0x227>
  20ce2c:	e9 fd 00 00 00       	jmp    20cf2e <dumpCurrentStackTrace+0x1ce>
  20ce31:	48 81 c4 d0 01 00 00 	add    rsp,0x1d0
  20ce38:	5d                   	pop    rbp
  20ce39:	c3                   	ret    
        return;
  20ce3a:	48 81 c4 d0 01 00 00 	add    rsp,0x1d0
  20ce41:	5d                   	pop    rbp
  20ce42:	c3                   	ret    
    const debug_info = getSelfDebugInfo() catch |err| {
  20ce43:	48 8b 85 d0 fe ff ff 	mov    rax,QWORD PTR [rbp-0x130]
  20ce4a:	48 89 85 68 fe ff ff 	mov    QWORD PTR [rbp-0x198],rax
  20ce51:	48 8b 85 68 fe ff ff 	mov    rax,QWORD PTR [rbp-0x198]
  20ce58:	48 89 85 98 fe ff ff 	mov    QWORD PTR [rbp-0x168],rax
    writeCurrentStackTrace(stderr, getDebugInfoAllocator(), debug_info, wantTtyColor(), start_addr) catch |err| {
  20ce5f:	48 8b b5 a8 fe ff ff 	mov    rsi,QWORD PTR [rbp-0x158]
  20ce66:	48 89 b5 60 fe ff ff 	mov    QWORD PTR [rbp-0x1a0],rsi
  20ce6d:	e8 be 0e 00 00       	call   20dd30 <getDebugInfoAllocator>
  20ce72:	48 8b 8d 98 fe ff ff 	mov    rcx,QWORD PTR [rbp-0x168]
  20ce79:	48 89 85 58 fe ff ff 	mov    QWORD PTR [rbp-0x1a8],rax
  20ce80:	48 89 8d 50 fe ff ff 	mov    QWORD PTR [rbp-0x1b0],rcx
  20ce87:	e8 64 0f 00 00       	call   20ddf0 <wantTtyColor>
  20ce8c:	48 8d 8d f8 fe ff ff 	lea    rcx,[rbp-0x108]
  20ce93:	44 0f b6 c0          	movzx  r8d,al
  20ce97:	48 8d bd f8 fe ff ff 	lea    rdi,[rbp-0x108]
  20ce9e:	48 8b b5 60 fe ff ff 	mov    rsi,QWORD PTR [rbp-0x1a0]
  20cea5:	48 8b 95 58 fe ff ff 	mov    rdx,QWORD PTR [rbp-0x1a8]
  20ceac:	4c 8b 8d 50 fe ff ff 	mov    r9,QWORD PTR [rbp-0x1b0]
  20ceb3:	48 89 8d 48 fe ff ff 	mov    QWORD PTR [rbp-0x1b8],rcx
  20ceba:	4c 89 c9             	mov    rcx,r9
  20cebd:	4c 8b 8d 88 fe ff ff 	mov    r9,QWORD PTR [rbp-0x178]
  20cec4:	e8 37 13 00 00       	call   20e200 <writeCurrentStackTrace>
  20cec9:	66 89 85 b4 fe ff ff 	mov    WORD PTR [rbp-0x14c],ax
  20ced0:	66 83 bd b4 fe ff ff 	cmp    WORD PTR [rbp-0x14c],0x0
  20ced7:	00 
  20ced8:	74 4b                	je     20cf25 <dumpCurrentStackTrace+0x1c5>
  20ceda:	66 8b 85 b4 fe ff ff 	mov    ax,WORD PTR [rbp-0x14c]
  20cee1:	66 89 85 96 fe ff ff 	mov    WORD PTR [rbp-0x16a],ax
        stderr.print("Unable to dump stack trace: {}\n", @errorName(err)) catch return;
  20cee8:	48 8b b5 a8 fe ff ff 	mov    rsi,QWORD PTR [rbp-0x158]
  20ceef:	66 8b 85 96 fe ff ff 	mov    ax,WORD PTR [rbp-0x16a]
  20cef6:	66 83 f8 00          	cmp    ax,0x0
  20cefa:	48 89 b5 40 fe ff ff 	mov    QWORD PTR [rbp-0x1c0],rsi
  20cf01:	66 89 85 3e fe ff ff 	mov    WORD PTR [rbp-0x1c2],ax
  20cf08:	0f 85 e1 00 00 00    	jne    20cfef <dumpCurrentStackTrace+0x28f>
  20cf0e:	e9 83 00 00 00       	jmp    20cf96 <dumpCurrentStackTrace+0x236>
  20cf13:	48 81 c4 d0 01 00 00 	add    rsp,0x1d0
  20cf1a:	5d                   	pop    rbp
  20cf1b:	c3                   	ret    
        return;
  20cf1c:	48 81 c4 d0 01 00 00 	add    rsp,0x1d0
  20cf23:	5d                   	pop    rbp
  20cf24:	c3                   	ret    
pub fn dumpCurrentStackTrace(start_addr: ?usize) void {
  20cf25:	48 81 c4 d0 01 00 00 	add    rsp,0x1d0
  20cf2c:	5d                   	pop    rbp
  20cf2d:	c3                   	ret    
  20cf2e:	48 8d 3d c3 64 03 00 	lea    rdi,[rip+0x364c3]        # 2433f8 <__unnamed_20>
  20cf35:	31 c0                	xor    eax,eax
  20cf37:	89 c6                	mov    esi,eax
        stderr.print("Unable to dump stack trace: Unable to open debug info: {}\n", @errorName(err)) catch return;
  20cf39:	e8 c2 e6 ff ff       	call   20b600 <panic>
  20cf3e:	48 8d bd f8 fe ff ff 	lea    rdi,[rbp-0x108]
  20cf45:	48 8d 05 b4 00 03 00 	lea    rax,[rip+0x300b4]        # 23d000 <raw+0xf48>
  20cf4c:	66 8b 8d 76 fe ff ff 	mov    cx,WORD PTR [rbp-0x18a]
  20cf53:	48 0f bf d1          	movsx  rdx,cx
  20cf57:	48 c1 e2 04          	shl    rdx,0x4
  20cf5b:	48 01 d0             	add    rax,rdx
  20cf5e:	48 8b b5 78 fe ff ff 	mov    rsi,QWORD PTR [rbp-0x188]
  20cf65:	48 89 c2             	mov    rdx,rax
  20cf68:	e8 73 0d 00 00       	call   20dce0 <OutStream(error{SystemResources,OperationAborted,IoPending,BrokenPipe,Unexpected,WouldBlock,FileClosed,DestinationAddressRequired,DiskQuota,FileTooBig,InputOutput,NoSpaceLeft,AccessDenied,})_print.24>
  20cf6d:	66 89 85 b6 fe ff ff 	mov    WORD PTR [rbp-0x14a],ax
  20cf74:	66 83 bd b6 fe ff ff 	cmp    WORD PTR [rbp-0x14a],0x0
  20cf7b:	00 
  20cf7c:	0f 85 af fe ff ff    	jne    20ce31 <dumpCurrentStackTrace+0xd1>
  20cf82:	e9 b3 fe ff ff       	jmp    20ce3a <dumpCurrentStackTrace+0xda>
  20cf87:	66 8b 85 76 fe ff ff 	mov    ax,WORD PTR [rbp-0x18a]
  20cf8e:	66 83 f8 2a          	cmp    ax,0x2a
  20cf92:	72 aa                	jb     20cf3e <dumpCurrentStackTrace+0x1de>
  20cf94:	eb 98                	jmp    20cf2e <dumpCurrentStackTrace+0x1ce>
  20cf96:	48 8d 3d 5b 64 03 00 	lea    rdi,[rip+0x3645b]        # 2433f8 <__unnamed_20>
  20cf9d:	31 c0                	xor    eax,eax
  20cf9f:	89 c6                	mov    esi,eax
        stderr.print("Unable to dump stack trace: {}\n", @errorName(err)) catch return;
  20cfa1:	e8 5a e6 ff ff       	call   20b600 <panic>
  20cfa6:	48 8d bd f8 fe ff ff 	lea    rdi,[rbp-0x108]
  20cfad:	48 8d 05 4c 00 03 00 	lea    rax,[rip+0x3004c]        # 23d000 <raw+0xf48>
  20cfb4:	66 8b 8d 3e fe ff ff 	mov    cx,WORD PTR [rbp-0x1c2]
  20cfbb:	48 0f bf d1          	movsx  rdx,cx
  20cfbf:	48 c1 e2 04          	shl    rdx,0x4
  20cfc3:	48 01 d0             	add    rax,rdx
  20cfc6:	48 8b b5 40 fe ff ff 	mov    rsi,QWORD PTR [rbp-0x1c0]
  20cfcd:	48 89 c2             	mov    rdx,rax
  20cfd0:	e8 db 11 00 00       	call   20e1b0 <OutStream(error{SystemResources,OperationAborted,IoPending,BrokenPipe,Unexpected,WouldBlock,FileClosed,DestinationAddressRequired,DiskQuota,FileTooBig,InputOutput,NoSpaceLeft,AccessDenied,})_print.25>
  20cfd5:	66 89 85 b2 fe ff ff 	mov    WORD PTR [rbp-0x14e],ax
  20cfdc:	66 83 bd b2 fe ff ff 	cmp    WORD PTR [rbp-0x14e],0x0
  20cfe3:	00 
  20cfe4:	0f 85 29 ff ff ff    	jne    20cf13 <dumpCurrentStackTrace+0x1b3>
  20cfea:	e9 2d ff ff ff       	jmp    20cf1c <dumpCurrentStackTrace+0x1bc>
  20cfef:	66 8b 85 3e fe ff ff 	mov    ax,WORD PTR [rbp-0x1c2]
  20cff6:	66 83 f8 2a          	cmp    ax,0x2a
  20cffa:	72 aa                	jb     20cfa6 <dumpCurrentStackTrace+0x246>
  20cffc:	eb 98                	jmp    20cf96 <dumpCurrentStackTrace+0x236>
  20cffe:	66 90                	xchg   ax,ax

000000000020d000 <OutStream(error{SystemResources,OperationAborted,IoPending,BrokenPipe,Unexpected,WouldBlock,FileClosed,DestinationAddressRequired,DiskQuota,FileTooBig,InputOutput,NoSpaceLeft,AccessDenied,})_print.19>:
        pub fn print(self: *Self, comptime format: []const u8, args: ...) !void {
  20d000:	55                   	push   rbp
  20d001:	48 89 e5             	mov    rbp,rsp
  20d004:	48 83 ec 20          	sub    rsp,0x20
  20d008:	48 89 75 f8          	mov    QWORD PTR [rbp-0x8],rsi
            return std.fmt.format(self, Error, self.writeFn, format, args);
  20d00c:	48 8b 75 f8          	mov    rsi,QWORD PTR [rbp-0x8]
  20d010:	48 8b 45 f8          	mov    rax,QWORD PTR [rbp-0x8]
  20d014:	48 8b 10             	mov    rdx,QWORD PTR [rax]
  20d017:	48 89 7d f0          	mov    QWORD PTR [rbp-0x10],rdi
  20d01b:	e8 d0 13 00 00       	call   20e3f0 <format.26>
  20d020:	66 83 f8 00          	cmp    ax,0x0
  20d024:	66 89 45 ee          	mov    WORD PTR [rbp-0x12],ax
  20d028:	74 0b                	je     20d035 <OutStream(error{SystemResources,OperationAborted,IoPending,BrokenPipe,Unexpected,WouldBlock,FileClosed,DestinationAddressRequired,DiskQuota,FileTooBig,InputOutput,NoSpaceLeft,AccessDenied,})_print.19+0x35>
  20d02a:	48 8b 7d f0          	mov    rdi,QWORD PTR [rbp-0x10]
  20d02e:	e8 5d ec ff ff       	call   20bc90 <__zig_return_error>
  20d033:	eb 02                	jmp    20d037 <OutStream(error{SystemResources,OperationAborted,IoPending,BrokenPipe,Unexpected,WouldBlock,FileClosed,DestinationAddressRequired,DiskQuota,FileTooBig,InputOutput,NoSpaceLeft,AccessDenied,})_print.19+0x37>
  20d035:	eb 00                	jmp    20d037 <OutStream(error{SystemResources,OperationAborted,IoPending,BrokenPipe,Unexpected,WouldBlock,FileClosed,DestinationAddressRequired,DiskQuota,FileTooBig,InputOutput,NoSpaceLeft,AccessDenied,})_print.19+0x37>
  20d037:	66 8b 45 ee          	mov    ax,WORD PTR [rbp-0x12]
  20d03b:	48 83 c4 20          	add    rsp,0x20
  20d03f:	5d                   	pop    rbp
  20d040:	c3                   	ret    
  20d041:	66 66 66 66 66 66 2e 	data16 data16 data16 data16 data16 nop WORD PTR cs:[rax+rax*1+0x0]
  20d048:	0f 1f 84 00 00 00 00 
  20d04f:	00 

000000000020d050 <clock_getres>:
}

pub fn clock_getres(clk_id: i32, tp: *timespec) usize {
  20d050:	55                   	push   rbp
  20d051:	48 89 e5             	mov    rbp,rsp
  20d054:	48 83 ec 10          	sub    rsp,0x10
  20d058:	b8 e5 00 00 00       	mov    eax,0xe5
  20d05d:	89 c1                	mov    ecx,eax
  20d05f:	89 7d fc             	mov    DWORD PTR [rbp-0x4],edi
  20d062:	48 89 75 f0          	mov    QWORD PTR [rbp-0x10],rsi
    return syscall2(SYS_clock_getres, @bitCast(usize, isize(clk_id)), @ptrToInt(tp));
  20d066:	48 63 75 fc          	movsxd rsi,DWORD PTR [rbp-0x4]
  20d06a:	48 8b 55 f0          	mov    rdx,QWORD PTR [rbp-0x10]
  20d06e:	48 89 cf             	mov    rdi,rcx
  20d071:	e8 ea 13 00 00       	call   20e460 <syscall2>
  20d076:	48 83 c4 10          	add    rsp,0x10
  20d07a:	5d                   	pop    rbp
  20d07b:	c3                   	ret    
  20d07c:	0f 1f 40 00          	nop    DWORD PTR [rax+0x0]

000000000020d080 <getErrno>:
pub fn getErrno(r: usize) usize {
  20d080:	55                   	push   rbp
  20d081:	48 89 e5             	mov    rbp,rsp
  20d084:	48 83 ec 30          	sub    rsp,0x30
  20d088:	48 89 7d f8          	mov    QWORD PTR [rbp-0x8],rdi
    const signed_r = @bitCast(isize, r);
  20d08c:	48 8b 7d f8          	mov    rdi,QWORD PTR [rbp-0x8]
  20d090:	48 89 7d f0          	mov    QWORD PTR [rbp-0x10],rdi
    return if (signed_r > -4096 and signed_r < 0) @intCast(usize, -signed_r) else 0;
  20d094:	48 81 7d f0 00 f0 ff 	cmp    QWORD PTR [rbp-0x10],0xfffffffffffff000
  20d09b:	ff 
  20d09c:	0f 9f c0             	setg   al
  20d09f:	a8 01                	test   al,0x1
  20d0a1:	88 45 ef             	mov    BYTE PTR [rbp-0x11],al
  20d0a4:	75 02                	jne    20d0a8 <getErrno+0x28>
  20d0a6:	eb 0b                	jmp    20d0b3 <getErrno+0x33>
  20d0a8:	48 83 7d f0 00       	cmp    QWORD PTR [rbp-0x10],0x0
  20d0ad:	0f 9c c0             	setl   al
  20d0b0:	88 45 ef             	mov    BYTE PTR [rbp-0x11],al
  20d0b3:	8a 45 ef             	mov    al,BYTE PTR [rbp-0x11]
  20d0b6:	a8 01                	test   al,0x1
  20d0b8:	75 02                	jne    20d0bc <getErrno+0x3c>
  20d0ba:	eb 16                	jmp    20d0d2 <getErrno+0x52>
  20d0bc:	31 c0                	xor    eax,eax
  20d0be:	89 c1                	mov    ecx,eax
  20d0c0:	48 2b 4d f0          	sub    rcx,QWORD PTR [rbp-0x10]
  20d0c4:	0f 90 c2             	seto   dl
  20d0c7:	48 89 4d e0          	mov    QWORD PTR [rbp-0x20],rcx
  20d0cb:	88 55 df             	mov    BYTE PTR [rbp-0x21],dl
  20d0ce:	70 16                	jo     20d0e6 <getErrno+0x66>
  20d0d0:	eb 24                	jmp    20d0f6 <getErrno+0x76>
  20d0d2:	31 c0                	xor    eax,eax
  20d0d4:	89 c1                	mov    ecx,eax
  20d0d6:	48 89 4d d0          	mov    QWORD PTR [rbp-0x30],rcx
  20d0da:	eb 00                	jmp    20d0dc <getErrno+0x5c>
  20d0dc:	48 8b 45 d0          	mov    rax,QWORD PTR [rbp-0x30]
  20d0e0:	48 83 c4 30          	add    rsp,0x30
  20d0e4:	5d                   	pop    rbp
  20d0e5:	c3                   	ret    
  20d0e6:	48 8d 3d db 60 03 00 	lea    rdi,[rip+0x360db]        # 2431c8 <__unnamed_4>
  20d0ed:	31 c0                	xor    eax,eax
  20d0ef:	89 c6                	mov    esi,eax
  20d0f1:	e8 0a e5 ff ff       	call   20b600 <panic>
  20d0f6:	48 8b 45 e0          	mov    rax,QWORD PTR [rbp-0x20]
  20d0fa:	48 83 f8 00          	cmp    rax,0x0
  20d0fe:	7c 0a                	jl     20d10a <getErrno+0x8a>
  20d100:	48 8b 45 e0          	mov    rax,QWORD PTR [rbp-0x20]
  20d104:	48 89 45 d0          	mov    QWORD PTR [rbp-0x30],rax
  20d108:	eb d2                	jmp    20d0dc <getErrno+0x5c>
  20d10a:	48 8d 3d 77 61 03 00 	lea    rdi,[rip+0x36177]        # 243288 <__unnamed_3>
  20d111:	31 c0                	xor    eax,eax
  20d113:	89 c6                	mov    esi,eax
  20d115:	e8 e6 e4 ff ff       	call   20b600 <panic>
  20d11a:	66 0f 1f 44 00 00    	nop    WORD PTR [rax+rax*1+0x0]

000000000020d120 <unexpectedErrorPosix>:
pub fn unexpectedErrorPosix(errno: usize) UnexpectedError {
  20d120:	55                   	push   rbp
  20d121:	48 89 e5             	mov    rbp,rsp
  20d124:	48 83 ec 10          	sub    rsp,0x10
  20d128:	48 89 75 f8          	mov    QWORD PTR [rbp-0x8],rsi
    return error.Unexpected;
  20d12c:	e8 5f eb ff ff       	call   20bc90 <__zig_return_error>
  20d131:	66 b8 02 00          	mov    ax,0x2
  20d135:	48 83 c4 10          	add    rsp,0x10
  20d139:	5d                   	pop    rbp
  20d13a:	c3                   	ret    
  20d13b:	0f 1f 44 00 00       	nop    DWORD PTR [rax+rax*1+0x0]

000000000020d140 <clock_gettime>:
pub fn clock_gettime(clk_id: i32, tp: *timespec) usize {
  20d140:	55                   	push   rbp
  20d141:	48 89 e5             	mov    rbp,rsp
  20d144:	48 83 ec 30          	sub    rsp,0x30
  20d148:	89 7d fc             	mov    DWORD PTR [rbp-0x4],edi
  20d14b:	48 89 75 f0          	mov    QWORD PTR [rbp-0x10],rsi
        const f = @atomicLoad(@typeOf(init_vdso_clock_gettime), &vdso_clock_gettime, builtin.AtomicOrder.Unordered);
  20d14f:	48 8b 35 e2 ee 02 00 	mov    rsi,QWORD PTR [rip+0x2eee2]        # 23c038 <vdso_clock_gettime>
  20d156:	48 89 75 e8          	mov    QWORD PTR [rbp-0x18],rsi
        if (@ptrToInt(f) != 0) {
  20d15a:	48 8b 75 e8          	mov    rsi,QWORD PTR [rbp-0x18]
  20d15e:	48 83 fe 00          	cmp    rsi,0x0
  20d162:	74 41                	je     20d1a5 <clock_gettime+0x65>
            const rc = f(clk_id, tp);
  20d164:	48 8b 45 e8          	mov    rax,QWORD PTR [rbp-0x18]
  20d168:	8b 7d fc             	mov    edi,DWORD PTR [rbp-0x4]
  20d16b:	48 8b 75 f0          	mov    rsi,QWORD PTR [rbp-0x10]
  20d16f:	ff d0                	call   rax
  20d171:	48 89 45 e0          	mov    QWORD PTR [rbp-0x20],rax
            switch (rc) {
  20d175:	48 8b 45 e0          	mov    rax,QWORD PTR [rbp-0x20]
  20d179:	48 89 c6             	mov    rsi,rax
  20d17c:	48 83 ee ea          	sub    rsi,0xffffffffffffffea
  20d180:	48 89 45 d8          	mov    QWORD PTR [rbp-0x28],rax
  20d184:	48 89 75 d0          	mov    QWORD PTR [rbp-0x30],rsi
  20d188:	74 0f                	je     20d199 <clock_gettime+0x59>
  20d18a:	eb 00                	jmp    20d18c <clock_gettime+0x4c>
  20d18c:	48 8b 45 d8          	mov    rax,QWORD PTR [rbp-0x28]
  20d190:	48 85 c0             	test   rax,rax
  20d193:	74 04                	je     20d199 <clock_gettime+0x59>
  20d195:	eb 00                	jmp    20d197 <clock_gettime+0x57>
  20d197:	eb 0a                	jmp    20d1a3 <clock_gettime+0x63>
                0, @bitCast(usize, isize(-EINVAL)) => return rc,
  20d199:	48 8b 45 e0          	mov    rax,QWORD PTR [rbp-0x20]
  20d19d:	48 83 c4 30          	add    rsp,0x30
  20d1a1:	5d                   	pop    rbp
  20d1a2:	c3                   	ret    
        if (@ptrToInt(f) != 0) {
  20d1a3:	eb 02                	jmp    20d1a7 <clock_gettime+0x67>
  20d1a5:	eb 00                	jmp    20d1a7 <clock_gettime+0x67>
  20d1a7:	b8 e4 00 00 00       	mov    eax,0xe4
  20d1ac:	89 c7                	mov    edi,eax
    return syscall2(SYS_clock_gettime, @bitCast(usize, isize(clk_id)), @ptrToInt(tp));
  20d1ae:	48 63 75 fc          	movsxd rsi,DWORD PTR [rbp-0x4]
  20d1b2:	48 8b 55 f0          	mov    rdx,QWORD PTR [rbp-0x10]
  20d1b6:	e8 a5 12 00 00       	call   20e460 <syscall2>
  20d1bb:	48 83 c4 30          	add    rsp,0x30
  20d1bf:	5d                   	pop    rbp
  20d1c0:	c3                   	ret    
  20d1c1:	66 66 66 66 66 66 2e 	data16 data16 data16 data16 data16 nop WORD PTR cs:[rax+rax*1+0x0]
  20d1c8:	0f 1f 84 00 00 00 00 
  20d1cf:	00 

000000000020d1d0 <OutStream(error{SystemResources,OperationAborted,IoPending,BrokenPipe,Unexpected,WouldBlock,FileClosed,DestinationAddressRequired,DiskQuota,FileTooBig,InputOutput,NoSpaceLeft,AccessDenied,})_print.20>:
        pub fn print(self: *Self, comptime format: []const u8, args: ...) !void {
  20d1d0:	55                   	push   rbp
  20d1d1:	48 89 e5             	mov    rbp,rsp
  20d1d4:	48 83 ec 30          	sub    rsp,0x30
  20d1d8:	48 89 75 f8          	mov    QWORD PTR [rbp-0x8],rsi
  20d1dc:	48 89 55 f0          	mov    QWORD PTR [rbp-0x10],rdx
  20d1e0:	48 89 4d e8          	mov    QWORD PTR [rbp-0x18],rcx
            return std.fmt.format(self, Error, self.writeFn, format, args);
  20d1e4:	48 8b 75 f8          	mov    rsi,QWORD PTR [rbp-0x8]
  20d1e8:	48 8b 4d f8          	mov    rcx,QWORD PTR [rbp-0x8]
  20d1ec:	48 8b 11             	mov    rdx,QWORD PTR [rcx]
  20d1ef:	48 8b 4d f0          	mov    rcx,QWORD PTR [rbp-0x10]
  20d1f3:	4c 8b 45 e8          	mov    r8,QWORD PTR [rbp-0x18]
  20d1f7:	48 89 7d e0          	mov    QWORD PTR [rbp-0x20],rdi
  20d1fb:	e8 80 12 00 00       	call   20e480 <format.27>
  20d200:	66 83 f8 00          	cmp    ax,0x0
  20d204:	66 89 45 de          	mov    WORD PTR [rbp-0x22],ax
  20d208:	74 0b                	je     20d215 <OutStream(error{SystemResources,OperationAborted,IoPending,BrokenPipe,Unexpected,WouldBlock,FileClosed,DestinationAddressRequired,DiskQuota,FileTooBig,InputOutput,NoSpaceLeft,AccessDenied,})_print.20+0x45>
  20d20a:	48 8b 7d e0          	mov    rdi,QWORD PTR [rbp-0x20]
  20d20e:	e8 7d ea ff ff       	call   20bc90 <__zig_return_error>
  20d213:	eb 02                	jmp    20d217 <OutStream(error{SystemResources,OperationAborted,IoPending,BrokenPipe,Unexpected,WouldBlock,FileClosed,DestinationAddressRequired,DiskQuota,FileTooBig,InputOutput,NoSpaceLeft,AccessDenied,})_print.20+0x47>
  20d215:	eb 00                	jmp    20d217 <OutStream(error{SystemResources,OperationAborted,IoPending,BrokenPipe,Unexpected,WouldBlock,FileClosed,DestinationAddressRequired,DiskQuota,FileTooBig,InputOutput,NoSpaceLeft,AccessDenied,})_print.20+0x47>
  20d217:	66 8b 45 de          	mov    ax,WORD PTR [rbp-0x22]
  20d21b:	48 83 c4 30          	add    rsp,0x30
  20d21f:	5d                   	pop    rbp
  20d220:	c3                   	ret    
  20d221:	66 66 66 66 66 66 2e 	data16 data16 data16 data16 data16 nop WORD PTR cs:[rax+rax*1+0x0]
  20d228:	0f 1f 84 00 00 00 00 
  20d22f:	00 

000000000020d230 <producer>:
fn producer(pContext: *ThreadContext) void {
  20d230:	55                   	push   rbp
  20d231:	48 89 e5             	mov    rbp,rsp
  20d234:	48 81 ec 80 00 00 00 	sub    rsp,0x80
  20d23b:	48 89 7d f8          	mov    QWORD PTR [rbp-0x8],rdi
    while (pContext.counter < max_counter) {
  20d23f:	48 8b 45 f8          	mov    rax,QWORD PTR [rbp-0x8]
  20d243:	48 8b 08             	mov    rcx,QWORD PTR [rax]
  20d246:	48 8b 40 08          	mov    rax,QWORD PTR [rax+0x8]
  20d24a:	ba 7f 96 98 00       	mov    edx,0x98967f
  20d24f:	89 d6                	mov    esi,edx
  20d251:	31 d2                	xor    edx,edx
  20d253:	48 29 ce             	sub    rsi,rcx
  20d256:	89 d1                	mov    ecx,edx
  20d258:	48 19 c1             	sbb    rcx,rax
  20d25b:	48 89 75 e8          	mov    QWORD PTR [rbp-0x18],rsi
  20d25f:	48 89 4d e0          	mov    QWORD PTR [rbp-0x20],rcx
  20d263:	0f 82 38 01 00 00    	jb     20d3a1 <producer+0x171>
  20d269:	eb 00                	jmp    20d26b <producer+0x3b>
        var count = stallCountWait;
  20d26b:	c7 45 f4 10 27 00 00 	mov    DWORD PTR [rbp-0xc],0x2710
        var produce_val = @atomicLoad(@typeOf(produce), &produce, AtomicOrder.SeqCst);
  20d272:	8b 05 c0 6d 03 00    	mov    eax,DWORD PTR [rip+0x36dc0]        # 244038 <produce>
  20d278:	89 45 f0             	mov    DWORD PTR [rbp-0x10],eax
        while ((produce_val != produceSignal) and (count > 0)) {
  20d27b:	83 7d f0 01          	cmp    DWORD PTR [rbp-0x10],0x1
  20d27f:	0f 95 c0             	setne  al
  20d282:	a8 01                	test   al,0x1
  20d284:	88 45 df             	mov    BYTE PTR [rbp-0x21],al
  20d287:	75 02                	jne    20d28b <producer+0x5b>
  20d289:	eb 0a                	jmp    20d295 <producer+0x65>
  20d28b:	83 7d f4 00          	cmp    DWORD PTR [rbp-0xc],0x0
  20d28f:	0f 97 c0             	seta   al
  20d292:	88 45 df             	mov    BYTE PTR [rbp-0x21],al
  20d295:	8a 45 df             	mov    al,BYTE PTR [rbp-0x21]
  20d298:	a8 01                	test   al,0x1
  20d29a:	75 02                	jne    20d29e <producer+0x6e>
  20d29c:	eb 23                	jmp    20d2c1 <producer+0x91>
            produce_val = @atomicLoad(@typeOf(produce), &produce, AtomicOrder.SeqCst);
  20d29e:	8b 05 94 6d 03 00    	mov    eax,DWORD PTR [rip+0x36d94]        # 244038 <produce>
  20d2a4:	89 45 f0             	mov    DWORD PTR [rbp-0x10],eax
            count -= 1;
  20d2a7:	8b 45 f4             	mov    eax,DWORD PTR [rbp-0xc]
  20d2aa:	83 e8 01             	sub    eax,0x1
  20d2ad:	0f 92 c1             	setb   cl
  20d2b0:	89 45 d8             	mov    DWORD PTR [rbp-0x28],eax
  20d2b3:	88 4d d7             	mov    BYTE PTR [rbp-0x29],cl
  20d2b6:	0f 82 ee 00 00 00    	jb     20d3aa <producer+0x17a>
  20d2bc:	e9 f9 00 00 00       	jmp    20d3ba <producer+0x18a>
        while (produce_val != produceSignal) {
  20d2c1:	eb 00                	jmp    20d2c3 <producer+0x93>
  20d2c3:	83 7d f0 01          	cmp    DWORD PTR [rbp-0x10],0x1
  20d2c7:	74 20                	je     20d2e9 <producer+0xb9>
            gProducer_wait_count += 1;
  20d2c9:	48 8b 05 30 6d 03 00 	mov    rax,QWORD PTR [rip+0x36d30]        # 244000 <gProducer_wait_count>
  20d2d0:	48 83 c0 01          	add    rax,0x1
  20d2d4:	0f 92 c1             	setb   cl
  20d2d7:	48 89 45 c8          	mov    QWORD PTR [rbp-0x38],rax
  20d2db:	88 4d c7             	mov    BYTE PTR [rbp-0x39],cl
  20d2de:	0f 82 e1 00 00 00    	jb     20d3c5 <producer+0x195>
  20d2e4:	e9 ec 00 00 00       	jmp    20d3d5 <producer+0x1a5>
        _ = @atomicRmw(@typeOf(gCounter), &gCounter, AtomicRmwOp.Add, 1, AtomicOrder.SeqCst);
  20d2e9:	f0 48 81 05 2b 6d 03 	lock add QWORD PTR [rip+0x36d2b],0x1        # 244020 <gCounter>
  20d2f0:	00 01 00 00 00 
        pContext.counter += 1;
  20d2f5:	48 8b 45 f8          	mov    rax,QWORD PTR [rbp-0x8]
  20d2f9:	48 8b 08             	mov    rcx,QWORD PTR [rax]
  20d2fc:	48 8b 50 08          	mov    rdx,QWORD PTR [rax+0x8]
  20d300:	48 83 c1 01          	add    rcx,0x1
  20d304:	48 83 d2 00          	adc    rdx,0x0
  20d308:	40 0f 92 c6          	setb   sil
  20d30c:	48 89 cf             	mov    rdi,rcx
  20d30f:	40 f6 c6 01          	test   sil,0x1
  20d313:	48 89 45 b8          	mov    QWORD PTR [rbp-0x48],rax
  20d317:	48 89 4d b0          	mov    QWORD PTR [rbp-0x50],rcx
  20d31b:	48 89 7d a8          	mov    QWORD PTR [rbp-0x58],rdi
  20d31f:	48 89 55 a0          	mov    QWORD PTR [rbp-0x60],rdx
  20d323:	0f 85 d3 00 00 00    	jne    20d3fc <producer+0x1cc>
  20d329:	e9 de 00 00 00       	jmp    20d40c <producer+0x1dc>
        while ((produce_val != produceSignal) and (count > 0)) {
  20d32e:	83 7d f0 01          	cmp    DWORD PTR [rbp-0x10],0x1
  20d332:	0f 95 c0             	setne  al
  20d335:	a8 01                	test   al,0x1
  20d337:	88 45 9f             	mov    BYTE PTR [rbp-0x61],al
  20d33a:	75 02                	jne    20d33e <producer+0x10e>
  20d33c:	eb 0a                	jmp    20d348 <producer+0x118>
  20d33e:	83 7d f4 00          	cmp    DWORD PTR [rbp-0xc],0x0
  20d342:	0f 97 c0             	seta   al
  20d345:	88 45 9f             	mov    BYTE PTR [rbp-0x61],al
  20d348:	8a 45 9f             	mov    al,BYTE PTR [rbp-0x61]
  20d34b:	a8 01                	test   al,0x1
  20d34d:	75 02                	jne    20d351 <producer+0x121>
  20d34f:	eb 23                	jmp    20d374 <producer+0x144>
            produce_val = @atomicLoad(@typeOf(produce), &produce, AtomicOrder.SeqCst);
  20d351:	8b 05 e1 6c 03 00    	mov    eax,DWORD PTR [rip+0x36ce1]        # 244038 <produce>
  20d357:	89 45 f0             	mov    DWORD PTR [rbp-0x10],eax
            count -= 1;
  20d35a:	8b 45 f4             	mov    eax,DWORD PTR [rbp-0xc]
  20d35d:	83 e8 01             	sub    eax,0x1
  20d360:	0f 92 c1             	setb   cl
  20d363:	89 45 98             	mov    DWORD PTR [rbp-0x68],eax
  20d366:	88 4d 97             	mov    BYTE PTR [rbp-0x69],cl
  20d369:	0f 82 d0 00 00 00    	jb     20d43f <producer+0x20f>
  20d36f:	e9 db 00 00 00       	jmp    20d44f <producer+0x21f>
        if (produce_val != produceSignal) {
  20d374:	83 7d f0 01          	cmp    DWORD PTR [rbp-0x10],0x1
  20d378:	74 20                	je     20d39a <producer+0x16a>
            gProducer_wake_count += 1;
  20d37a:	48 8b 05 8f 6c 03 00 	mov    rax,QWORD PTR [rip+0x36c8f]        # 244010 <gProducer_wake_count>
  20d381:	48 83 c0 01          	add    rax,0x1
  20d385:	0f 92 c1             	setb   cl
  20d388:	48 89 45 88          	mov    QWORD PTR [rbp-0x78],rax
  20d38c:	88 4d 87             	mov    BYTE PTR [rbp-0x79],cl
  20d38f:	0f 82 c5 00 00 00    	jb     20d45a <producer+0x22a>
  20d395:	e9 d0 00 00 00       	jmp    20d46a <producer+0x23a>
        if (produce_val != produceSignal) {
  20d39a:	eb 00                	jmp    20d39c <producer+0x16c>
    while (pContext.counter < max_counter) {
  20d39c:	e9 9e fe ff ff       	jmp    20d23f <producer+0xf>
fn producer(pContext: *ThreadContext) void {
  20d3a1:	48 81 c4 80 00 00 00 	add    rsp,0x80
  20d3a8:	5d                   	pop    rbp
  20d3a9:	c3                   	ret    
  20d3aa:	48 8d 3d 17 5e 03 00 	lea    rdi,[rip+0x35e17]        # 2431c8 <__unnamed_4>
  20d3b1:	31 c0                	xor    eax,eax
  20d3b3:	89 c6                	mov    esi,eax
            count -= 1;
  20d3b5:	e8 46 e2 ff ff       	call   20b600 <panic>
  20d3ba:	8b 45 d8             	mov    eax,DWORD PTR [rbp-0x28]
  20d3bd:	89 45 f4             	mov    DWORD PTR [rbp-0xc],eax
        while ((produce_val != produceSignal) and (count > 0)) {
  20d3c0:	e9 b6 fe ff ff       	jmp    20d27b <producer+0x4b>
  20d3c5:	48 8d 3d fc 5d 03 00 	lea    rdi,[rip+0x35dfc]        # 2431c8 <__unnamed_4>
  20d3cc:	31 c0                	xor    eax,eax
  20d3ce:	89 c6                	mov    esi,eax
            gProducer_wait_count += 1;
  20d3d0:	e8 2b e2 ff ff       	call   20b600 <panic>
  20d3d5:	48 8d 3d 5c 6c 03 00 	lea    rdi,[rip+0x36c5c]        # 244038 <produce>
  20d3dc:	31 f6                	xor    esi,esi
  20d3de:	48 8b 45 c8          	mov    rax,QWORD PTR [rbp-0x38]
  20d3e2:	48 89 05 17 6c 03 00 	mov    QWORD PTR [rip+0x36c17],rax        # 244000 <gProducer_wait_count>
            futex_wait(&produce, consumeSignal);
  20d3e9:	e8 a2 00 00 00       	call   20d490 <futex_wait>
            produce_val = @atomicLoad(@typeOf(produce), &produce, AtomicOrder.SeqCst);
  20d3ee:	8b 35 44 6c 03 00    	mov    esi,DWORD PTR [rip+0x36c44]        # 244038 <produce>
  20d3f4:	89 75 f0             	mov    DWORD PTR [rbp-0x10],esi
        while (produce_val != produceSignal) {
  20d3f7:	e9 c7 fe ff ff       	jmp    20d2c3 <producer+0x93>
  20d3fc:	48 8d 3d c5 5d 03 00 	lea    rdi,[rip+0x35dc5]        # 2431c8 <__unnamed_4>
  20d403:	31 c0                	xor    eax,eax
  20d405:	89 c6                	mov    esi,eax
        pContext.counter += 1;
  20d407:	e8 f4 e1 ff ff       	call   20b600 <panic>
  20d40c:	48 8b 45 b8          	mov    rax,QWORD PTR [rbp-0x48]
  20d410:	48 8b 4d b0          	mov    rcx,QWORD PTR [rbp-0x50]
  20d414:	48 89 08             	mov    QWORD PTR [rax],rcx
  20d417:	48 8b 55 a0          	mov    rdx,QWORD PTR [rbp-0x60]
  20d41b:	48 89 50 08          	mov    QWORD PTR [rax+0x8],rdx
        _ = @atomicRmw(@typeOf(produce), &produce, AtomicRmwOp.Xchg, consumeSignal, AtomicOrder.SeqCst);
  20d41f:	31 f6                	xor    esi,esi
  20d421:	87 35 11 6c 03 00    	xchg   DWORD PTR [rip+0x36c11],esi        # 244038 <produce>
        count = stallCountWake;
  20d427:	c7 45 f4 d0 07 00 00 	mov    DWORD PTR [rbp-0xc],0x7d0
        produce_val = @atomicLoad(@typeOf(produce), &produce, AtomicOrder.SeqCst);
  20d42e:	8b 3d 04 6c 03 00    	mov    edi,DWORD PTR [rip+0x36c04]        # 244038 <produce>
  20d434:	89 7d f0             	mov    DWORD PTR [rbp-0x10],edi
        while ((produce_val != produceSignal) and (count > 0)) {
  20d437:	89 75 80             	mov    DWORD PTR [rbp-0x80],esi
  20d43a:	e9 ef fe ff ff       	jmp    20d32e <producer+0xfe>
  20d43f:	48 8d 3d 82 5d 03 00 	lea    rdi,[rip+0x35d82]        # 2431c8 <__unnamed_4>
  20d446:	31 c0                	xor    eax,eax
  20d448:	89 c6                	mov    esi,eax
            count -= 1;
  20d44a:	e8 b1 e1 ff ff       	call   20b600 <panic>
  20d44f:	8b 45 98             	mov    eax,DWORD PTR [rbp-0x68]
  20d452:	89 45 f4             	mov    DWORD PTR [rbp-0xc],eax
        while ((produce_val != produceSignal) and (count > 0)) {
  20d455:	e9 d4 fe ff ff       	jmp    20d32e <producer+0xfe>
  20d45a:	48 8d 3d 67 5d 03 00 	lea    rdi,[rip+0x35d67]        # 2431c8 <__unnamed_4>
  20d461:	31 c0                	xor    eax,eax
  20d463:	89 c6                	mov    esi,eax
            gProducer_wake_count += 1;
  20d465:	e8 96 e1 ff ff       	call   20b600 <panic>
  20d46a:	48 8d 3d c7 6b 03 00 	lea    rdi,[rip+0x36bc7]        # 244038 <produce>
  20d471:	be 01 00 00 00       	mov    esi,0x1
  20d476:	48 8b 45 88          	mov    rax,QWORD PTR [rbp-0x78]
  20d47a:	48 89 05 8f 6b 03 00 	mov    QWORD PTR [rip+0x36b8f],rax        # 244010 <gProducer_wake_count>
            futex_wake(&produce, 1);
  20d481:	e8 5a 00 00 00       	call   20d4e0 <futex_wake>
        if (produce_val != produceSignal) {
  20d486:	e9 11 ff ff ff       	jmp    20d39c <producer+0x16c>
  20d48b:	0f 1f 44 00 00       	nop    DWORD PTR [rax+rax*1+0x0]

000000000020d490 <futex_wait>:
pub fn futex_wait(pVal: *i32, expected_value: u32) void {
  20d490:	55                   	push   rbp
  20d491:	48 89 e5             	mov    rbp,rsp
  20d494:	48 83 ec 30          	sub    rsp,0x30
  20d498:	b8 ca 00 00 00       	mov    eax,0xca
  20d49d:	89 c1                	mov    ecx,eax
  20d49f:	31 c0                	xor    eax,eax
  20d4a1:	89 c2                	mov    edx,eax
  20d4a3:	48 89 7d f8          	mov    QWORD PTR [rbp-0x8],rdi
  20d4a7:	89 75 f4             	mov    DWORD PTR [rbp-0xc],esi
    _ = syscall4(SYS_futex, @ptrToInt(pVal), linux.FUTEX_WAIT, expected_value, 0);
  20d4aa:	48 8b 75 f8          	mov    rsi,QWORD PTR [rbp-0x8]
  20d4ae:	8b 45 f4             	mov    eax,DWORD PTR [rbp-0xc]
  20d4b1:	89 c7                	mov    edi,eax
  20d4b3:	48 89 7d e8          	mov    QWORD PTR [rbp-0x18],rdi
  20d4b7:	48 89 cf             	mov    rdi,rcx
  20d4ba:	48 89 55 e0          	mov    QWORD PTR [rbp-0x20],rdx
  20d4be:	48 8b 4d e8          	mov    rcx,QWORD PTR [rbp-0x18]
  20d4c2:	4c 8b 45 e0          	mov    r8,QWORD PTR [rbp-0x20]
  20d4c6:	e8 55 11 00 00       	call   20e620 <syscall4>
pub fn futex_wait(pVal: *i32, expected_value: u32) void {
  20d4cb:	48 89 45 d8          	mov    QWORD PTR [rbp-0x28],rax
  20d4cf:	48 83 c4 30          	add    rsp,0x30
  20d4d3:	5d                   	pop    rbp
  20d4d4:	c3                   	ret    
  20d4d5:	66 66 2e 0f 1f 84 00 	data16 nop WORD PTR cs:[rax+rax*1+0x0]
  20d4dc:	00 00 00 00 

000000000020d4e0 <futex_wake>:
pub fn futex_wake(pVal: *i32, num_threads_to_wake: u32) void {
  20d4e0:	55                   	push   rbp
  20d4e1:	48 89 e5             	mov    rbp,rsp
  20d4e4:	48 83 ec 20          	sub    rsp,0x20
  20d4e8:	b8 ca 00 00 00       	mov    eax,0xca
  20d4ed:	89 c1                	mov    ecx,eax
  20d4ef:	b8 01 00 00 00       	mov    eax,0x1
  20d4f4:	89 c2                	mov    edx,eax
  20d4f6:	31 c0                	xor    eax,eax
  20d4f8:	41 89 c0             	mov    r8d,eax
  20d4fb:	48 89 7d f8          	mov    QWORD PTR [rbp-0x8],rdi
  20d4ff:	89 75 f4             	mov    DWORD PTR [rbp-0xc],esi
    _ = syscall4(SYS_futex, @ptrToInt(pVal), linux.FUTEX_WAKE, num_threads_to_wake, 0);
  20d502:	48 8b 75 f8          	mov    rsi,QWORD PTR [rbp-0x8]
  20d506:	8b 45 f4             	mov    eax,DWORD PTR [rbp-0xc]
  20d509:	89 c7                	mov    edi,eax
  20d50b:	48 89 7d e8          	mov    QWORD PTR [rbp-0x18],rdi
  20d50f:	48 89 cf             	mov    rdi,rcx
  20d512:	48 8b 4d e8          	mov    rcx,QWORD PTR [rbp-0x18]
  20d516:	e8 05 11 00 00       	call   20e620 <syscall4>
pub fn futex_wake(pVal: *i32, num_threads_to_wake: u32) void {
  20d51b:	48 89 45 e0          	mov    QWORD PTR [rbp-0x20],rax
  20d51f:	48 83 c4 20          	add    rsp,0x20
  20d523:	5d                   	pop    rbp
  20d524:	c3                   	ret    
  20d525:	66 66 2e 0f 1f 84 00 	data16 nop WORD PTR cs:[rax+rax*1+0x0]
  20d52c:	00 00 00 00 

000000000020d530 <mmap>:
pub fn mmap(address: ?[*]u8, length: usize, prot: usize, flags: u32, fd: i32, offset: isize) usize {
  20d530:	55                   	push   rbp
  20d531:	48 89 e5             	mov    rbp,rsp
  20d534:	48 83 ec 40          	sub    rsp,0x40
  20d538:	b8 09 00 00 00       	mov    eax,0x9
  20d53d:	41 89 c2             	mov    r10d,eax
  20d540:	48 89 7d f8          	mov    QWORD PTR [rbp-0x8],rdi
  20d544:	48 89 75 f0          	mov    QWORD PTR [rbp-0x10],rsi
  20d548:	48 89 55 e8          	mov    QWORD PTR [rbp-0x18],rdx
  20d54c:	89 4d e4             	mov    DWORD PTR [rbp-0x1c],ecx
  20d54f:	44 89 45 e0          	mov    DWORD PTR [rbp-0x20],r8d
  20d553:	4c 89 4d d8          	mov    QWORD PTR [rbp-0x28],r9
    return syscall6(SYS_mmap, @ptrToInt(address), length, prot, flags, @intCast(usize, fd), @bitCast(usize, offset));
  20d557:	48 8b 75 f8          	mov    rsi,QWORD PTR [rbp-0x8]
  20d55b:	48 8b 55 f0          	mov    rdx,QWORD PTR [rbp-0x10]
  20d55f:	48 8b 4d e8          	mov    rcx,QWORD PTR [rbp-0x18]
  20d563:	8b 45 e4             	mov    eax,DWORD PTR [rbp-0x1c]
  20d566:	4c 63 4d e0          	movsxd r9,DWORD PTR [rbp-0x20]
  20d56a:	48 8b 7d d8          	mov    rdi,QWORD PTR [rbp-0x28]
  20d56e:	89 c0                	mov    eax,eax
  20d570:	41 89 c0             	mov    r8d,eax
  20d573:	48 89 7d d0          	mov    QWORD PTR [rbp-0x30],rdi
  20d577:	4c 89 d7             	mov    rdi,r10
  20d57a:	4c 8b 55 d0          	mov    r10,QWORD PTR [rbp-0x30]
  20d57e:	4c 89 14 24          	mov    QWORD PTR [rsp],r10
  20d582:	e8 c9 10 00 00       	call   20e650 <syscall6>
  20d587:	48 83 c4 40          	add    rsp,0x40
  20d58b:	5d                   	pop    rbp
  20d58c:	c3                   	ret    
  20d58d:	0f 1f 00             	nop    DWORD PTR [rax]

000000000020d590 <MainFuncs_linuxThreadMain>:
        extern fn linuxThreadMain(ctx_addr: usize) u8 {
  20d590:	55                   	push   rbp
  20d591:	48 89 e5             	mov    rbp,rsp
  20d594:	48 83 ec 10          	sub    rsp,0x10
  20d598:	48 89 7d f8          	mov    QWORD PTR [rbp-0x8],rdi
            const arg = if (@sizeOf(Context) == 0) {} else @intToPtr(*const Context, ctx_addr).*;
  20d59c:	48 8b 7d f8          	mov    rdi,QWORD PTR [rbp-0x8]
  20d5a0:	48 8b 3f             	mov    rdi,QWORD PTR [rdi]
  20d5a3:	48 89 7d f0          	mov    QWORD PTR [rbp-0x10],rdi
                    startFn(arg);
  20d5a7:	48 8b 7d f0          	mov    rdi,QWORD PTR [rbp-0x10]
  20d5ab:	e8 80 fc ff ff       	call   20d230 <producer>
  20d5b0:	31 c0                	xor    eax,eax
  20d5b2:	88 c1                	mov    cl,al
                    return 0;
  20d5b4:	88 c8                	mov    al,cl
  20d5b6:	48 83 c4 10          	add    rsp,0x10
  20d5ba:	5d                   	pop    rbp
  20d5bb:	c3                   	ret    
  20d5bc:	0f 1f 40 00          	nop    DWORD PTR [rax+0x0]

000000000020d5c0 <munmap>:
pub fn munmap(address: usize, length: usize) usize {
  20d5c0:	55                   	push   rbp
  20d5c1:	48 89 e5             	mov    rbp,rsp
  20d5c4:	48 83 ec 10          	sub    rsp,0x10
  20d5c8:	b8 0b 00 00 00       	mov    eax,0xb
  20d5cd:	89 c1                	mov    ecx,eax
  20d5cf:	48 89 7d f8          	mov    QWORD PTR [rbp-0x8],rdi
  20d5d3:	48 89 75 f0          	mov    QWORD PTR [rbp-0x10],rsi
    return syscall2(SYS_munmap, address, length);
  20d5d7:	48 8b 75 f8          	mov    rsi,QWORD PTR [rbp-0x8]
  20d5db:	48 8b 55 f0          	mov    rdx,QWORD PTR [rbp-0x10]
  20d5df:	48 89 cf             	mov    rdi,rcx
  20d5e2:	e8 79 0e 00 00       	call   20e460 <syscall2>
  20d5e7:	48 83 c4 10          	add    rsp,0x10
  20d5eb:	5d                   	pop    rbp
  20d5ec:	c3                   	ret    
  20d5ed:	0f 1f 00             	nop    DWORD PTR [rax]

000000000020d5f0 <consumer>:
fn consumer(pContext: *ThreadContext) void {
  20d5f0:	55                   	push   rbp
  20d5f1:	48 89 e5             	mov    rbp,rsp
  20d5f4:	48 81 ec 80 00 00 00 	sub    rsp,0x80
  20d5fb:	48 89 7d f8          	mov    QWORD PTR [rbp-0x8],rdi
    while (pContext.counter < max_counter) {
  20d5ff:	48 8b 45 f8          	mov    rax,QWORD PTR [rbp-0x8]
  20d603:	48 8b 08             	mov    rcx,QWORD PTR [rax]
  20d606:	48 8b 40 08          	mov    rax,QWORD PTR [rax+0x8]
  20d60a:	ba 7f 96 98 00       	mov    edx,0x98967f
  20d60f:	89 d6                	mov    esi,edx
  20d611:	31 d2                	xor    edx,edx
  20d613:	48 29 ce             	sub    rsi,rcx
  20d616:	89 d1                	mov    ecx,edx
  20d618:	48 19 c1             	sbb    rcx,rax
  20d61b:	48 89 75 e8          	mov    QWORD PTR [rbp-0x18],rsi
  20d61f:	48 89 4d e0          	mov    QWORD PTR [rbp-0x20],rcx
  20d623:	0f 82 51 01 00 00    	jb     20d77a <consumer+0x18a>
  20d629:	eb 00                	jmp    20d62b <consumer+0x3b>
        _ = @atomicRmw(@typeOf(produce), &produce, AtomicRmwOp.Xchg, produceSignal, AtomicOrder.SeqCst);
  20d62b:	b8 01 00 00 00       	mov    eax,0x1
  20d630:	87 05 02 6a 03 00    	xchg   DWORD PTR [rip+0x36a02],eax        # 244038 <produce>
        var count = stallCountWake;
  20d636:	c7 45 f4 d0 07 00 00 	mov    DWORD PTR [rbp-0xc],0x7d0
        var produce_val = @atomicLoad(@typeOf(produce), &produce, AtomicOrder.SeqCst);
  20d63d:	8b 0d f5 69 03 00    	mov    ecx,DWORD PTR [rip+0x369f5]        # 244038 <produce>
  20d643:	89 4d f0             	mov    DWORD PTR [rbp-0x10],ecx
  20d646:	89 45 dc             	mov    DWORD PTR [rbp-0x24],eax
        while ((produce_val != consumeSignal) and (count > 0)) {
  20d649:	83 7d f0 00          	cmp    DWORD PTR [rbp-0x10],0x0
  20d64d:	0f 95 c0             	setne  al
  20d650:	a8 01                	test   al,0x1
  20d652:	88 45 db             	mov    BYTE PTR [rbp-0x25],al
  20d655:	75 02                	jne    20d659 <consumer+0x69>
  20d657:	eb 0a                	jmp    20d663 <consumer+0x73>
  20d659:	83 7d f4 00          	cmp    DWORD PTR [rbp-0xc],0x0
  20d65d:	0f 97 c0             	seta   al
  20d660:	88 45 db             	mov    BYTE PTR [rbp-0x25],al
  20d663:	8a 45 db             	mov    al,BYTE PTR [rbp-0x25]
  20d666:	a8 01                	test   al,0x1
  20d668:	75 02                	jne    20d66c <consumer+0x7c>
  20d66a:	eb 23                	jmp    20d68f <consumer+0x9f>
            produce_val = @atomicLoad(@typeOf(produce), &produce, AtomicOrder.SeqCst);
  20d66c:	8b 05 c6 69 03 00    	mov    eax,DWORD PTR [rip+0x369c6]        # 244038 <produce>
  20d672:	89 45 f0             	mov    DWORD PTR [rbp-0x10],eax
            count -= 1;
  20d675:	8b 45 f4             	mov    eax,DWORD PTR [rbp-0xc]
  20d678:	83 e8 01             	sub    eax,0x1
  20d67b:	0f 92 c1             	setb   cl
  20d67e:	89 45 d4             	mov    DWORD PTR [rbp-0x2c],eax
  20d681:	88 4d d3             	mov    BYTE PTR [rbp-0x2d],cl
  20d684:	0f 82 f9 00 00 00    	jb     20d783 <consumer+0x193>
  20d68a:	e9 04 01 00 00       	jmp    20d793 <consumer+0x1a3>
        if (produce_val != consumeSignal) {
  20d68f:	83 7d f0 00          	cmp    DWORD PTR [rbp-0x10],0x0
  20d693:	74 20                	je     20d6b5 <consumer+0xc5>
            gConsumer_wake_count += 1;
  20d695:	48 8b 05 7c 69 03 00 	mov    rax,QWORD PTR [rip+0x3697c]        # 244018 <gConsumer_wake_count>
  20d69c:	48 83 c0 01          	add    rax,0x1
  20d6a0:	0f 92 c1             	setb   cl
  20d6a3:	48 89 45 c8          	mov    QWORD PTR [rbp-0x38],rax
  20d6a7:	88 4d c7             	mov    BYTE PTR [rbp-0x39],cl
  20d6aa:	0f 82 ee 00 00 00    	jb     20d79e <consumer+0x1ae>
  20d6b0:	e9 f9 00 00 00       	jmp    20d7ae <consumer+0x1be>
        if (produce_val != consumeSignal) {
  20d6b5:	eb 00                	jmp    20d6b7 <consumer+0xc7>
        count = stallCountWait;
  20d6b7:	c7 45 f4 10 27 00 00 	mov    DWORD PTR [rbp-0xc],0x2710
        produce_val = @atomicLoad(@typeOf(produce), &produce, AtomicOrder.SeqCst);
  20d6be:	8b 05 74 69 03 00    	mov    eax,DWORD PTR [rip+0x36974]        # 244038 <produce>
  20d6c4:	89 45 f0             	mov    DWORD PTR [rbp-0x10],eax
        while ((produce_val != consumeSignal) and (count > 0)) {
  20d6c7:	83 7d f0 00          	cmp    DWORD PTR [rbp-0x10],0x0
  20d6cb:	0f 95 c0             	setne  al
  20d6ce:	a8 01                	test   al,0x1
  20d6d0:	88 45 c6             	mov    BYTE PTR [rbp-0x3a],al
  20d6d3:	75 02                	jne    20d6d7 <consumer+0xe7>
  20d6d5:	eb 0a                	jmp    20d6e1 <consumer+0xf1>
  20d6d7:	83 7d f4 00          	cmp    DWORD PTR [rbp-0xc],0x0
  20d6db:	0f 97 c0             	seta   al
  20d6de:	88 45 c6             	mov    BYTE PTR [rbp-0x3a],al
  20d6e1:	8a 45 c6             	mov    al,BYTE PTR [rbp-0x3a]
  20d6e4:	a8 01                	test   al,0x1
  20d6e6:	75 02                	jne    20d6ea <consumer+0xfa>
  20d6e8:	eb 23                	jmp    20d70d <consumer+0x11d>
            produce_val = @atomicLoad(@typeOf(produce), &produce, AtomicOrder.SeqCst);
  20d6ea:	8b 05 48 69 03 00    	mov    eax,DWORD PTR [rip+0x36948]        # 244038 <produce>
  20d6f0:	89 45 f0             	mov    DWORD PTR [rbp-0x10],eax
            count -= 1;
  20d6f3:	8b 45 f4             	mov    eax,DWORD PTR [rbp-0xc]
  20d6f6:	83 e8 01             	sub    eax,0x1
  20d6f9:	0f 92 c1             	setb   cl
  20d6fc:	89 45 c0             	mov    DWORD PTR [rbp-0x40],eax
  20d6ff:	88 4d bf             	mov    BYTE PTR [rbp-0x41],cl
  20d702:	0f 82 c7 00 00 00    	jb     20d7cf <consumer+0x1df>
  20d708:	e9 d2 00 00 00       	jmp    20d7df <consumer+0x1ef>
        while (produce_val != consumeSignal) {
  20d70d:	eb 00                	jmp    20d70f <consumer+0x11f>
  20d70f:	83 7d f0 00          	cmp    DWORD PTR [rbp-0x10],0x0
  20d713:	74 20                	je     20d735 <consumer+0x145>
            gConsumer_wait_count += 1;
  20d715:	48 8b 05 ec 68 03 00 	mov    rax,QWORD PTR [rip+0x368ec]        # 244008 <gConsumer_wait_count>
  20d71c:	48 83 c0 01          	add    rax,0x1
  20d720:	0f 92 c1             	setb   cl
  20d723:	48 89 45 b0          	mov    QWORD PTR [rbp-0x50],rax
  20d727:	88 4d af             	mov    BYTE PTR [rbp-0x51],cl
  20d72a:	0f 82 ba 00 00 00    	jb     20d7ea <consumer+0x1fa>
  20d730:	e9 c5 00 00 00       	jmp    20d7fa <consumer+0x20a>
        _ = @atomicRmw(@typeOf(gCounter), &gCounter, AtomicRmwOp.Add, 1, AtomicOrder.SeqCst);
  20d735:	f0 48 81 05 df 68 03 	lock add QWORD PTR [rip+0x368df],0x1        # 244020 <gCounter>
  20d73c:	00 01 00 00 00 
        pContext.counter += 1;
  20d741:	48 8b 45 f8          	mov    rax,QWORD PTR [rbp-0x8]
  20d745:	48 8b 08             	mov    rcx,QWORD PTR [rax]
  20d748:	48 8b 50 08          	mov    rdx,QWORD PTR [rax+0x8]
  20d74c:	48 83 c1 01          	add    rcx,0x1
  20d750:	48 83 d2 00          	adc    rdx,0x0
  20d754:	40 0f 92 c6          	setb   sil
  20d758:	48 89 cf             	mov    rdi,rcx
  20d75b:	40 f6 c6 01          	test   sil,0x1
  20d75f:	48 89 45 a0          	mov    QWORD PTR [rbp-0x60],rax
  20d763:	48 89 4d 98          	mov    QWORD PTR [rbp-0x68],rcx
  20d767:	48 89 7d 90          	mov    QWORD PTR [rbp-0x70],rdi
  20d76b:	48 89 55 88          	mov    QWORD PTR [rbp-0x78],rdx
  20d76f:	0f 85 af 00 00 00    	jne    20d824 <consumer+0x234>
  20d775:	e9 ba 00 00 00       	jmp    20d834 <consumer+0x244>
fn consumer(pContext: *ThreadContext) void {
  20d77a:	48 81 c4 80 00 00 00 	add    rsp,0x80
  20d781:	5d                   	pop    rbp
  20d782:	c3                   	ret    
  20d783:	48 8d 3d 3e 5a 03 00 	lea    rdi,[rip+0x35a3e]        # 2431c8 <__unnamed_4>
  20d78a:	31 c0                	xor    eax,eax
  20d78c:	89 c6                	mov    esi,eax
            count -= 1;
  20d78e:	e8 6d de ff ff       	call   20b600 <panic>
  20d793:	8b 45 d4             	mov    eax,DWORD PTR [rbp-0x2c]
  20d796:	89 45 f4             	mov    DWORD PTR [rbp-0xc],eax
        while ((produce_val != consumeSignal) and (count > 0)) {
  20d799:	e9 ab fe ff ff       	jmp    20d649 <consumer+0x59>
  20d79e:	48 8d 3d 23 5a 03 00 	lea    rdi,[rip+0x35a23]        # 2431c8 <__unnamed_4>
  20d7a5:	31 c0                	xor    eax,eax
  20d7a7:	89 c6                	mov    esi,eax
            gConsumer_wake_count += 1;
  20d7a9:	e8 52 de ff ff       	call   20b600 <panic>
  20d7ae:	48 8d 3d 83 68 03 00 	lea    rdi,[rip+0x36883]        # 244038 <produce>
  20d7b5:	be 01 00 00 00       	mov    esi,0x1
  20d7ba:	48 8b 45 c8          	mov    rax,QWORD PTR [rbp-0x38]
  20d7be:	48 89 05 53 68 03 00 	mov    QWORD PTR [rip+0x36853],rax        # 244018 <gConsumer_wake_count>
            futex_wake(&produce, 1);
  20d7c5:	e8 16 fd ff ff       	call   20d4e0 <futex_wake>
        if (produce_val != consumeSignal) {
  20d7ca:	e9 e8 fe ff ff       	jmp    20d6b7 <consumer+0xc7>
  20d7cf:	48 8d 3d f2 59 03 00 	lea    rdi,[rip+0x359f2]        # 2431c8 <__unnamed_4>
  20d7d6:	31 c0                	xor    eax,eax
  20d7d8:	89 c6                	mov    esi,eax
            count -= 1;
  20d7da:	e8 21 de ff ff       	call   20b600 <panic>
  20d7df:	8b 45 c0             	mov    eax,DWORD PTR [rbp-0x40]
  20d7e2:	89 45 f4             	mov    DWORD PTR [rbp-0xc],eax
        while ((produce_val != consumeSignal) and (count > 0)) {
  20d7e5:	e9 dd fe ff ff       	jmp    20d6c7 <consumer+0xd7>
  20d7ea:	48 8d 3d d7 59 03 00 	lea    rdi,[rip+0x359d7]        # 2431c8 <__unnamed_4>
  20d7f1:	31 c0                	xor    eax,eax
  20d7f3:	89 c6                	mov    esi,eax
            gConsumer_wait_count += 1;
  20d7f5:	e8 06 de ff ff       	call   20b600 <panic>
  20d7fa:	48 8d 3d 37 68 03 00 	lea    rdi,[rip+0x36837]        # 244038 <produce>
  20d801:	be 01 00 00 00       	mov    esi,0x1
  20d806:	48 8b 45 b0          	mov    rax,QWORD PTR [rbp-0x50]
  20d80a:	48 89 05 f7 67 03 00 	mov    QWORD PTR [rip+0x367f7],rax        # 244008 <gConsumer_wait_count>
            futex_wait(&produce, produceSignal);
  20d811:	e8 7a fc ff ff       	call   20d490 <futex_wait>
            produce_val = @atomicLoad(@typeOf(produce), &produce, AtomicOrder.SeqCst);
  20d816:	8b 35 1c 68 03 00    	mov    esi,DWORD PTR [rip+0x3681c]        # 244038 <produce>
  20d81c:	89 75 f0             	mov    DWORD PTR [rbp-0x10],esi
        while (produce_val != consumeSignal) {
  20d81f:	e9 eb fe ff ff       	jmp    20d70f <consumer+0x11f>
  20d824:	48 8d 3d 9d 59 03 00 	lea    rdi,[rip+0x3599d]        # 2431c8 <__unnamed_4>
  20d82b:	31 c0                	xor    eax,eax
  20d82d:	89 c6                	mov    esi,eax
        pContext.counter += 1;
  20d82f:	e8 cc dd ff ff       	call   20b600 <panic>
  20d834:	48 8b 45 a0          	mov    rax,QWORD PTR [rbp-0x60]
  20d838:	48 8b 4d 98          	mov    rcx,QWORD PTR [rbp-0x68]
  20d83c:	48 89 08             	mov    QWORD PTR [rax],rcx
  20d83f:	48 8b 55 88          	mov    rdx,QWORD PTR [rbp-0x78]
  20d843:	48 89 50 08          	mov    QWORD PTR [rax+0x8],rdx
    while (pContext.counter < max_counter) {
  20d847:	e9 b3 fd ff ff       	jmp    20d5ff <consumer+0xf>
  20d84c:	0f 1f 40 00          	nop    DWORD PTR [rax+0x0]

000000000020d850 <MainFuncs_linuxThreadMain.21>:
        extern fn linuxThreadMain(ctx_addr: usize) u8 {
  20d850:	55                   	push   rbp
  20d851:	48 89 e5             	mov    rbp,rsp
  20d854:	48 83 ec 10          	sub    rsp,0x10
  20d858:	48 89 7d f8          	mov    QWORD PTR [rbp-0x8],rdi
            const arg = if (@sizeOf(Context) == 0) {} else @intToPtr(*const Context, ctx_addr).*;
  20d85c:	48 8b 7d f8          	mov    rdi,QWORD PTR [rbp-0x8]
  20d860:	48 8b 3f             	mov    rdi,QWORD PTR [rdi]
  20d863:	48 89 7d f0          	mov    QWORD PTR [rbp-0x10],rdi
                    startFn(arg);
  20d867:	48 8b 7d f0          	mov    rdi,QWORD PTR [rbp-0x10]
  20d86b:	e8 80 fd ff ff       	call   20d5f0 <consumer>
  20d870:	31 c0                	xor    eax,eax
  20d872:	88 c1                	mov    cl,al
                    return 0;
  20d874:	88 c8                	mov    al,cl
  20d876:	48 83 c4 10          	add    rsp,0x10
  20d87a:	5d                   	pop    rbp
  20d87b:	c3                   	ret    
  20d87c:	0f 1f 40 00          	nop    DWORD PTR [rax+0x0]

000000000020d880 <futex_wait.22>:
pub fn futex_wait(uaddr: usize, futex_op: u32, val: i32, timeout: ?*timespec) usize {
  20d880:	55                   	push   rbp
  20d881:	48 89 e5             	mov    rbp,rsp
  20d884:	48 83 ec 30          	sub    rsp,0x30
  20d888:	b8 ca 00 00 00       	mov    eax,0xca
  20d88d:	41 89 c0             	mov    r8d,eax
  20d890:	48 89 7d f8          	mov    QWORD PTR [rbp-0x8],rdi
  20d894:	89 75 f4             	mov    DWORD PTR [rbp-0xc],esi
  20d897:	89 55 f0             	mov    DWORD PTR [rbp-0x10],edx
  20d89a:	48 89 4d e8          	mov    QWORD PTR [rbp-0x18],rcx
    return syscall4(SYS_futex, uaddr, futex_op, @bitCast(u32, val), @ptrToInt(timeout));
  20d89e:	48 8b 75 f8          	mov    rsi,QWORD PTR [rbp-0x8]
  20d8a2:	8b 45 f4             	mov    eax,DWORD PTR [rbp-0xc]
  20d8a5:	8b 55 f0             	mov    edx,DWORD PTR [rbp-0x10]
  20d8a8:	48 8b 4d e8          	mov    rcx,QWORD PTR [rbp-0x18]
  20d8ac:	89 c0                	mov    eax,eax
  20d8ae:	89 c7                	mov    edi,eax
  20d8b0:	89 d0                	mov    eax,edx
  20d8b2:	41 89 c1             	mov    r9d,eax
  20d8b5:	48 89 7d e0          	mov    QWORD PTR [rbp-0x20],rdi
  20d8b9:	4c 89 c7             	mov    rdi,r8
  20d8bc:	48 8b 55 e0          	mov    rdx,QWORD PTR [rbp-0x20]
  20d8c0:	48 89 4d d8          	mov    QWORD PTR [rbp-0x28],rcx
  20d8c4:	4c 89 c9             	mov    rcx,r9
  20d8c7:	4c 8b 45 d8          	mov    r8,QWORD PTR [rbp-0x28]
  20d8cb:	e8 d0 0d 00 00       	call   20e6a0 <syscall4.29>
  20d8d0:	48 83 c4 30          	add    rsp,0x30
  20d8d4:	5d                   	pop    rbp
  20d8d5:	c3                   	ret    
  20d8d6:	66 2e 0f 1f 84 00 00 	nop    WORD PTR cs:[rax+rax*1+0x0]
  20d8dd:	00 00 00 

000000000020d8e0 <OutStream(error{SystemResources,OperationAborted,IoPending,BrokenPipe,Unexpected,WouldBlock,FileClosed,DestinationAddressRequired,DiskQuota,FileTooBig,InputOutput,NoSpaceLeft,AccessDenied,})_print.23>:
        pub fn print(self: *Self, comptime format: []const u8, args: ...) !void {
  20d8e0:	55                   	push   rbp
  20d8e1:	48 89 e5             	mov    rbp,rsp
  20d8e4:	48 83 ec 20          	sub    rsp,0x20
  20d8e8:	48 89 75 f8          	mov    QWORD PTR [rbp-0x8],rsi
  20d8ec:	c5 fb 11 45 f0       	vmovsd QWORD PTR [rbp-0x10],xmm0
            return std.fmt.format(self, Error, self.writeFn, format, args);
  20d8f1:	48 8b 75 f8          	mov    rsi,QWORD PTR [rbp-0x8]
  20d8f5:	48 8b 45 f8          	mov    rax,QWORD PTR [rbp-0x8]
  20d8f9:	48 8b 10             	mov    rdx,QWORD PTR [rax]
  20d8fc:	c5 fb 10 45 f0       	vmovsd xmm0,QWORD PTR [rbp-0x10]
  20d901:	48 89 7d e8          	mov    QWORD PTR [rbp-0x18],rdi
  20d905:	e8 c6 0d 00 00       	call   20e6d0 <format.30>
  20d90a:	66 83 f8 00          	cmp    ax,0x0
  20d90e:	66 89 45 e6          	mov    WORD PTR [rbp-0x1a],ax
  20d912:	74 0b                	je     20d91f <OutStream(error{SystemResources,OperationAborted,IoPending,BrokenPipe,Unexpected,WouldBlock,FileClosed,DestinationAddressRequired,DiskQuota,FileTooBig,InputOutput,NoSpaceLeft,AccessDenied,})_print.23+0x3f>
  20d914:	48 8b 7d e8          	mov    rdi,QWORD PTR [rbp-0x18]
  20d918:	e8 73 e3 ff ff       	call   20bc90 <__zig_return_error>
  20d91d:	eb 02                	jmp    20d921 <OutStream(error{SystemResources,OperationAborted,IoPending,BrokenPipe,Unexpected,WouldBlock,FileClosed,DestinationAddressRequired,DiskQuota,FileTooBig,InputOutput,NoSpaceLeft,AccessDenied,})_print.23+0x41>
  20d91f:	eb 00                	jmp    20d921 <OutStream(error{SystemResources,OperationAborted,IoPending,BrokenPipe,Unexpected,WouldBlock,FileClosed,DestinationAddressRequired,DiskQuota,FileTooBig,InputOutput,NoSpaceLeft,AccessDenied,})_print.23+0x41>
  20d921:	66 8b 45 e6          	mov    ax,WORD PTR [rbp-0x1a]
  20d925:	48 83 c4 20          	add    rsp,0x20
  20d929:	5d                   	pop    rbp
  20d92a:	c3                   	ret    
  20d92b:	0f 1f 44 00 00       	nop    DWORD PTR [rax+rax*1+0x0]

000000000020d930 <raise>:
pub const SIG_ERR = @intToPtr(extern fn (i32) void, @maxValue(usize));
pub const SIG_DFL = @intToPtr(extern fn (i32) void, 0);
pub const SIG_IGN = @intToPtr(extern fn (i32) void, 1);
pub const empty_sigset = []usize{0} ** sigset_t.len;

pub fn raise(sig: i32) usize {
  20d930:	55                   	push   rbp
  20d931:	48 89 e5             	mov    rbp,rsp
  20d934:	48 81 ec b0 00 00 00 	sub    rsp,0xb0
  20d93b:	48 8d 85 78 ff ff ff 	lea    rax,[rbp-0x88]
  20d942:	48 8d 0d b7 b2 ff ff 	lea    rcx,[rip+0xffffffffffffb2b7]        # 208c00 <__unnamed_21>
  20d949:	ba 80 00 00 00       	mov    edx,0x80
  20d94e:	89 7d fc             	mov    DWORD PTR [rbp-0x4],edi
    var set: sigset_t = undefined;
  20d951:	48 89 c6             	mov    rsi,rax
  20d954:	48 89 f7             	mov    rdi,rsi
  20d957:	48 89 ce             	mov    rsi,rcx
  20d95a:	48 89 85 60 ff ff ff 	mov    QWORD PTR [rbp-0xa0],rax
  20d961:	e8 9a 6f 02 00       	call   234900 <memcpy>
    blockAppSignals(&set);
  20d966:	48 8b bd 60 ff ff ff 	mov    rdi,QWORD PTR [rbp-0xa0]
  20d96d:	e8 8e 0e 00 00       	call   20e800 <blockAppSignals>
  20d972:	41 b8 ba 00 00 00    	mov    r8d,0xba
  20d978:	44 89 c7             	mov    edi,r8d
    const tid = @intCast(i32, syscall0(SYS_gettid));
  20d97b:	e8 d0 0e 00 00       	call   20e850 <syscall0>
  20d980:	41 89 c0             	mov    r8d,eax
  20d983:	49 63 c8             	movsxd rcx,r8d
  20d986:	48 39 c8             	cmp    rax,rcx
  20d989:	44 89 85 5c ff ff ff 	mov    DWORD PTR [rbp-0xa4],r8d
  20d990:	75 46                	jne    20d9d8 <raise+0xa8>
  20d992:	b8 c8 00 00 00       	mov    eax,0xc8
  20d997:	89 c7                	mov    edi,eax
  20d999:	8b 85 5c ff ff ff    	mov    eax,DWORD PTR [rbp-0xa4]
  20d99f:	89 85 74 ff ff ff    	mov    DWORD PTR [rbp-0x8c],eax
    const ret = syscall2(SYS_tkill, @intCast(usize, tid), @intCast(usize, sig));
  20d9a5:	48 63 b5 74 ff ff ff 	movsxd rsi,DWORD PTR [rbp-0x8c]
  20d9ac:	48 63 55 fc          	movsxd rdx,DWORD PTR [rbp-0x4]
  20d9b0:	e8 ab 0a 00 00       	call   20e460 <syscall2>
  20d9b5:	48 8d bd 78 ff ff ff 	lea    rdi,[rbp-0x88]
  20d9bc:	48 89 85 68 ff ff ff 	mov    QWORD PTR [rbp-0x98],rax
    restoreSignals(&set);
  20d9c3:	e8 98 0e 00 00       	call   20e860 <restoreSignals>
    return ret;
  20d9c8:	48 8b 85 68 ff ff ff 	mov    rax,QWORD PTR [rbp-0x98]
  20d9cf:	48 81 c4 b0 00 00 00 	add    rsp,0xb0
  20d9d6:	5d                   	pop    rbp
  20d9d7:	c3                   	ret    
  20d9d8:	48 8d 3d c9 5a 03 00 	lea    rdi,[rip+0x35ac9]        # 2434a8 <__unnamed_22>
  20d9df:	31 c0                	xor    eax,eax
  20d9e1:	89 c6                	mov    esi,eax
    const tid = @intCast(i32, syscall0(SYS_gettid));
  20d9e3:	e8 18 dc ff ff       	call   20b600 <panic>
  20d9e8:	0f 1f 84 00 00 00 00 	nop    DWORD PTR [rax+rax*1+0x0]
  20d9ef:	00 

000000000020d9f0 <getStdErr>:
pub fn getStdErr() GetStdIoErrs!File {
  20d9f0:	55                   	push   rbp
  20d9f1:	48 89 e5             	mov    rbp,rsp
  20d9f4:	48 83 ec 20          	sub    rsp,0x20
  20d9f8:	48 89 f8             	mov    rax,rdi
  20d9fb:	48 8d 4d f8          	lea    rcx,[rbp-0x8]
  20d9ff:	be 02 00 00 00       	mov    esi,0x2
    return File.openHandle(handle);
  20da04:	48 89 7d e8          	mov    QWORD PTR [rbp-0x18],rdi
  20da08:	48 89 cf             	mov    rdi,rcx
  20da0b:	48 89 45 e0          	mov    QWORD PTR [rbp-0x20],rax
  20da0f:	e8 5c 00 00 00       	call   20da70 <File_openHandle>
  20da14:	66 c7 45 f0 00 00    	mov    WORD PTR [rbp-0x10],0x0
  20da1a:	8b 75 f8             	mov    esi,DWORD PTR [rbp-0x8]
  20da1d:	89 75 f4             	mov    DWORD PTR [rbp-0xc],esi
  20da20:	48 8b 45 f0          	mov    rax,QWORD PTR [rbp-0x10]
  20da24:	48 8b 4d e8          	mov    rcx,QWORD PTR [rbp-0x18]
  20da28:	48 89 01             	mov    QWORD PTR [rcx],rax
  20da2b:	48 8b 45 e0          	mov    rax,QWORD PTR [rbp-0x20]
  20da2f:	48 83 c4 20          	add    rsp,0x20
  20da33:	5d                   	pop    rbp
  20da34:	c3                   	ret    
  20da35:	66 66 2e 0f 1f 84 00 	data16 nop WORD PTR cs:[rax+rax*1+0x0]
  20da3c:	00 00 00 00 

000000000020da40 <FileOutStream_init>:
    pub fn init(file: *File) FileOutStream {
  20da40:	55                   	push   rbp
  20da41:	48 89 e5             	mov    rbp,rsp
  20da44:	48 89 f8             	mov    rax,rdi
  20da47:	48 89 75 e8          	mov    QWORD PTR [rbp-0x18],rsi
            .file = file,
  20da4b:	48 8b 75 e8          	mov    rsi,QWORD PTR [rbp-0x18]
        return FileOutStream{
  20da4f:	48 89 75 f0          	mov    QWORD PTR [rbp-0x10],rsi
  20da53:	48 8b 35 76 59 03 00 	mov    rsi,QWORD PTR [rip+0x35976]        # 2433d0 <__unnamed_23>
  20da5a:	48 89 75 f8          	mov    QWORD PTR [rbp-0x8],rsi
  20da5e:	48 8b 75 f0          	mov    rsi,QWORD PTR [rbp-0x10]
  20da62:	48 89 37             	mov    QWORD PTR [rdi],rsi
  20da65:	48 8b 75 f8          	mov    rsi,QWORD PTR [rbp-0x8]
  20da69:	48 89 77 08          	mov    QWORD PTR [rdi+0x8],rsi
  20da6d:	5d                   	pop    rbp
  20da6e:	c3                   	ret    
  20da6f:	90                   	nop

000000000020da70 <File_openHandle>:
        } else {
            @compileError("TODO implement openWriteMode for this OS");
        }
    }

    pub fn openHandle(handle: os.FileHandle) File {
  20da70:	55                   	push   rbp
  20da71:	48 89 e5             	mov    rbp,rsp
  20da74:	48 89 f8             	mov    rax,rdi
  20da77:	89 75 f4             	mov    DWORD PTR [rbp-0xc],esi
        return File{ .handle = handle };
  20da7a:	8b 75 f4             	mov    esi,DWORD PTR [rbp-0xc]
  20da7d:	89 75 f8             	mov    DWORD PTR [rbp-0x8],esi
  20da80:	8b 75 f8             	mov    esi,DWORD PTR [rbp-0x8]
  20da83:	89 37                	mov    DWORD PTR [rdi],esi
  20da85:	5d                   	pop    rbp
  20da86:	c3                   	ret    
  20da87:	66 0f 1f 84 00 00 00 	nop    WORD PTR [rax+rax*1+0x0]
  20da8e:	00 00 

000000000020da90 <FileOutStream_writeFn>:
    fn writeFn(out_stream: *Stream, bytes: []const u8) !void {
  20da90:	55                   	push   rbp
  20da91:	48 89 e5             	mov    rbp,rsp
  20da94:	48 83 ec 20          	sub    rsp,0x20
  20da98:	48 89 75 f8          	mov    QWORD PTR [rbp-0x8],rsi
        const self = @fieldParentPtr(FileOutStream, "stream", out_stream);
  20da9c:	48 8b 75 f8          	mov    rsi,QWORD PTR [rbp-0x8]
  20daa0:	48 83 ee 08          	sub    rsi,0x8
  20daa4:	48 89 75 f0          	mov    QWORD PTR [rbp-0x10],rsi
        return self.file.write(bytes);
  20daa8:	48 8b 75 f0          	mov    rsi,QWORD PTR [rbp-0x10]
  20daac:	48 8b 36             	mov    rsi,QWORD PTR [rsi]
  20daaf:	48 89 7d e8          	mov    QWORD PTR [rbp-0x18],rdi
  20dab3:	e8 f8 0d 00 00       	call   20e8b0 <File_write>
  20dab8:	66 83 f8 00          	cmp    ax,0x0
  20dabc:	66 89 45 e6          	mov    WORD PTR [rbp-0x1a],ax
  20dac0:	74 0b                	je     20dacd <FileOutStream_writeFn+0x3d>
  20dac2:	48 8b 7d e8          	mov    rdi,QWORD PTR [rbp-0x18]
  20dac6:	e8 c5 e1 ff ff       	call   20bc90 <__zig_return_error>
  20dacb:	eb 02                	jmp    20dacf <FileOutStream_writeFn+0x3f>
  20dacd:	eb 00                	jmp    20dacf <FileOutStream_writeFn+0x3f>
  20dacf:	66 8b 45 e6          	mov    ax,WORD PTR [rbp-0x1a]
  20dad3:	48 83 c4 20          	add    rsp,0x20
  20dad7:	5d                   	pop    rbp
  20dad8:	c3                   	ret    
  20dad9:	0f 1f 80 00 00 00 00 	nop    DWORD PTR [rax+0x0]

000000000020dae0 <format>:
const max_int_digits = 65;

/// Renders fmt string with args, calling output with slices of bytes.
/// If `output` returns an error, the error is returned from `format` and
/// `output` is not called again.
pub fn format(context: var, comptime Errors: type, output: fn (@typeOf(context), []const u8) Errors!void, comptime fmt: []const u8, args: ...) Errors!void {
  20dae0:	55                   	push   rbp
  20dae1:	48 89 e5             	mov    rbp,rsp
  20dae4:	48 83 ec 30          	sub    rsp,0x30
  20dae8:	48 89 75 f0          	mov    QWORD PTR [rbp-0x10],rsi
  20daec:	48 89 55 e8          	mov    QWORD PTR [rbp-0x18],rdx
                '{' => {
                    state = State.Start;
                    start_index = i;
                },
                '}' => {
                    try formatType(args[next_arg], fmt[0..0], context, Errors, output);
  20daf0:	48 8b 55 f0          	mov    rdx,QWORD PTR [rbp-0x10]
  20daf4:	48 8b 75 e8          	mov    rsi,QWORD PTR [rbp-0x18]
  20daf8:	48 89 7d e0          	mov    QWORD PTR [rbp-0x20],rdi
  20dafc:	48 89 75 d8          	mov    QWORD PTR [rbp-0x28],rsi
  20db00:	48 89 ce             	mov    rsi,rcx
  20db03:	48 8b 4d d8          	mov    rcx,QWORD PTR [rbp-0x28]
  20db07:	e8 74 00 00 00       	call   20db80 <formatType>
  20db0c:	66 89 45 fe          	mov    WORD PTR [rbp-0x2],ax
  20db10:	66 83 7d fe 00       	cmp    WORD PTR [rbp-0x2],0x0
  20db15:	74 1b                	je     20db32 <format+0x52>
  20db17:	66 8b 45 fe          	mov    ax,WORD PTR [rbp-0x2]
  20db1b:	48 8b 7d e0          	mov    rdi,QWORD PTR [rbp-0x20]
  20db1f:	66 89 45 d6          	mov    WORD PTR [rbp-0x2a],ax
  20db23:	e8 68 e1 ff ff       	call   20bc90 <__zig_return_error>
  20db28:	66 8b 45 d6          	mov    ax,WORD PTR [rbp-0x2a]
  20db2c:	48 83 c4 30          	add    rsp,0x30
  20db30:	5d                   	pop    rbp
  20db31:	c3                   	ret    
  20db32:	48 8d 15 a7 58 03 00 	lea    rdx,[rip+0x358a7]        # 2433e0 <__unnamed_24>
        if (state != State.Start) {
            @compileError("Incomplete format string: " ++ fmt);
        }
    }
    if (start_index < fmt.len) {
        try output(context, fmt[start_index..]);
  20db39:	48 8b 45 e8          	mov    rax,QWORD PTR [rbp-0x18]
  20db3d:	48 8b 75 f0          	mov    rsi,QWORD PTR [rbp-0x10]
  20db41:	48 8b 7d e0          	mov    rdi,QWORD PTR [rbp-0x20]
  20db45:	ff d0                	call   rax
  20db47:	66 89 45 fc          	mov    WORD PTR [rbp-0x4],ax
  20db4b:	66 83 7d fc 00       	cmp    WORD PTR [rbp-0x4],0x0
  20db50:	74 1b                	je     20db6d <format+0x8d>
  20db52:	66 8b 45 fc          	mov    ax,WORD PTR [rbp-0x4]
  20db56:	48 8b 7d e0          	mov    rdi,QWORD PTR [rbp-0x20]
  20db5a:	66 89 45 d4          	mov    WORD PTR [rbp-0x2c],ax
  20db5e:	e8 2d e1 ff ff       	call   20bc90 <__zig_return_error>
  20db63:	66 8b 45 d4          	mov    ax,WORD PTR [rbp-0x2c]
  20db67:	48 83 c4 30          	add    rsp,0x30
  20db6b:	5d                   	pop    rbp
  20db6c:	c3                   	ret    
  20db6d:	31 c0                	xor    eax,eax
  20db6f:	66 89 c1             	mov    cx,ax
pub fn format(context: var, comptime Errors: type, output: fn (@typeOf(context), []const u8) Errors!void, comptime fmt: []const u8, args: ...) Errors!void {
  20db72:	66 89 c8             	mov    ax,cx
  20db75:	48 83 c4 30          	add    rsp,0x30
  20db79:	5d                   	pop    rbp
  20db7a:	c3                   	ret    
  20db7b:	0f 1f 44 00 00       	nop    DWORD PTR [rax+rax*1+0x0]

000000000020db80 <formatType>:
    }
}

pub fn formatType(
  20db80:	55                   	push   rbp
  20db81:	48 89 e5             	mov    rbp,rsp
  20db84:	48 83 ec 30          	sub    rsp,0x30
  20db88:	48 8d 45 e0          	lea    rax,[rbp-0x20]
  20db8c:	48 89 55 f8          	mov    QWORD PTR [rbp-0x8],rdx
  20db90:	48 89 4d f0          	mov    QWORD PTR [rbp-0x10],rcx
                    }
                }
                return format(context, Errors, output, "{}@{x}", @typeName(T.Child), @ptrToInt(value));
            },
            builtin.TypeInfo.Pointer.Size.Slice => {
                const casted_value = ([]const u8)(value);
  20db94:	48 8b 0e             	mov    rcx,QWORD PTR [rsi]
  20db97:	48 89 4d e0          	mov    QWORD PTR [rbp-0x20],rcx
  20db9b:	48 8b 4e 08          	mov    rcx,QWORD PTR [rsi+0x8]
  20db9f:	48 89 4d e8          	mov    QWORD PTR [rbp-0x18],rcx
                return output(context, casted_value);
  20dba3:	48 8b 4d f0          	mov    rcx,QWORD PTR [rbp-0x10]
  20dba7:	48 8b 75 f8          	mov    rsi,QWORD PTR [rbp-0x8]
  20dbab:	48 89 7d d8          	mov    QWORD PTR [rbp-0x28],rdi
  20dbaf:	48 89 c2             	mov    rdx,rax
  20dbb2:	ff d1                	call   rcx
  20dbb4:	66 83 f8 00          	cmp    ax,0x0
  20dbb8:	66 89 45 d6          	mov    WORD PTR [rbp-0x2a],ax
  20dbbc:	74 0b                	je     20dbc9 <formatType+0x49>
  20dbbe:	48 8b 7d d8          	mov    rdi,QWORD PTR [rbp-0x28]
  20dbc2:	e8 c9 e0 ff ff       	call   20bc90 <__zig_return_error>
  20dbc7:	eb 02                	jmp    20dbcb <formatType+0x4b>
  20dbc9:	eb 00                	jmp    20dbcb <formatType+0x4b>
  20dbcb:	66 8b 45 d6          	mov    ax,WORD PTR [rbp-0x2a]
  20dbcf:	48 83 c4 30          	add    rsp,0x30
  20dbd3:	5d                   	pop    rbp
  20dbd4:	c3                   	ret    
  20dbd5:	66 66 2e 0f 1f 84 00 	data16 nop WORD PTR cs:[rax+rax*1+0x0]
  20dbdc:	00 00 00 00 

000000000020dbe0 <getSelfDebugInfo>:
pub fn getSelfDebugInfo() !*ElfStackTrace {
  20dbe0:	55                   	push   rbp
  20dbe1:	48 89 e5             	mov    rbp,rsp
  20dbe4:	48 81 ec 80 00 00 00 	sub    rsp,0x80
  20dbeb:	48 89 f8             	mov    rax,rdi
    if (self_debug_info) |info| {
  20dbee:	48 83 3d 4a 64 03 00 	cmp    QWORD PTR [rip+0x3644a],0x0        # 244040 <self_debug_info>
  20dbf5:	00 
  20dbf6:	48 89 45 98          	mov    QWORD PTR [rbp-0x68],rax
  20dbfa:	48 89 75 90          	mov    QWORD PTR [rbp-0x70],rsi
  20dbfe:	48 89 7d 88          	mov    QWORD PTR [rbp-0x78],rdi
  20dc02:	74 39                	je     20dc3d <getSelfDebugInfo+0x5d>
  20dc04:	48 8b 05 35 64 03 00 	mov    rax,QWORD PTR [rip+0x36435]        # 244040 <self_debug_info>
  20dc0b:	48 89 45 a8          	mov    QWORD PTR [rbp-0x58],rax
        return info;
  20dc0f:	48 8b 45 a8          	mov    rax,QWORD PTR [rbp-0x58]
  20dc13:	66 c7 45 f0 00 00    	mov    WORD PTR [rbp-0x10],0x0
  20dc19:	48 89 45 f8          	mov    QWORD PTR [rbp-0x8],rax
  20dc1d:	48 8b 45 f0          	mov    rax,QWORD PTR [rbp-0x10]
  20dc21:	48 8b 4d 88          	mov    rcx,QWORD PTR [rbp-0x78]
  20dc25:	48 89 01             	mov    QWORD PTR [rcx],rax
  20dc28:	48 8b 45 f8          	mov    rax,QWORD PTR [rbp-0x8]
  20dc2c:	48 89 41 08          	mov    QWORD PTR [rcx+0x8],rax
  20dc30:	48 8b 45 98          	mov    rax,QWORD PTR [rbp-0x68]
  20dc34:	48 81 c4 80 00 00 00 	add    rsp,0x80
  20dc3b:	5d                   	pop    rbp
  20dc3c:	c3                   	ret    
        const info = try openSelfDebugInfo(getDebugInfoAllocator());
  20dc3d:	e8 ee 00 00 00       	call   20dd30 <getDebugInfoAllocator>
  20dc42:	48 8d 7d e0          	lea    rdi,[rbp-0x20]
  20dc46:	48 8b 75 90          	mov    rsi,QWORD PTR [rbp-0x70]
  20dc4a:	48 89 c2             	mov    rdx,rax
  20dc4d:	e8 7e 0f 00 00       	call   20ebd0 <openSelfDebugInfo>
  20dc52:	66 83 7d e0 00       	cmp    WORD PTR [rbp-0x20],0x0
  20dc57:	74 39                	je     20dc92 <getSelfDebugInfo+0xb2>
  20dc59:	66 8b 45 e0          	mov    ax,WORD PTR [rbp-0x20]
  20dc5d:	48 8b 7d 90          	mov    rdi,QWORD PTR [rbp-0x70]
  20dc61:	66 89 45 86          	mov    WORD PTR [rbp-0x7a],ax
  20dc65:	e8 26 e0 ff ff       	call   20bc90 <__zig_return_error>
  20dc6a:	66 8b 45 86          	mov    ax,WORD PTR [rbp-0x7a]
  20dc6e:	66 89 45 c0          	mov    WORD PTR [rbp-0x40],ax
  20dc72:	48 8b 7d c0          	mov    rdi,QWORD PTR [rbp-0x40]
  20dc76:	48 8b 4d 88          	mov    rcx,QWORD PTR [rbp-0x78]
  20dc7a:	48 89 39             	mov    QWORD PTR [rcx],rdi
  20dc7d:	48 8b 7d c8          	mov    rdi,QWORD PTR [rbp-0x38]
  20dc81:	48 89 79 08          	mov    QWORD PTR [rcx+0x8],rdi
  20dc85:	48 8b 45 98          	mov    rax,QWORD PTR [rbp-0x68]
  20dc89:	48 81 c4 80 00 00 00 	add    rsp,0x80
  20dc90:	5d                   	pop    rbp
  20dc91:	c3                   	ret    
  20dc92:	48 8b 45 e8          	mov    rax,QWORD PTR [rbp-0x18]
  20dc96:	48 89 45 a0          	mov    QWORD PTR [rbp-0x60],rax
        self_debug_info = info;
  20dc9a:	48 8b 45 a0          	mov    rax,QWORD PTR [rbp-0x60]
  20dc9e:	48 89 05 9b 63 03 00 	mov    QWORD PTR [rip+0x3639b],rax        # 244040 <self_debug_info>
        return info;
  20dca5:	48 8b 45 a0          	mov    rax,QWORD PTR [rbp-0x60]
  20dca9:	66 c7 45 b0 00 00    	mov    WORD PTR [rbp-0x50],0x0
  20dcaf:	48 89 45 b8          	mov    QWORD PTR [rbp-0x48],rax
  20dcb3:	48 8b 45 b0          	mov    rax,QWORD PTR [rbp-0x50]
  20dcb7:	48 8b 4d 88          	mov    rcx,QWORD PTR [rbp-0x78]
  20dcbb:	48 89 01             	mov    QWORD PTR [rcx],rax
  20dcbe:	48 8b 45 b8          	mov    rax,QWORD PTR [rbp-0x48]
  20dcc2:	48 89 41 08          	mov    QWORD PTR [rcx+0x8],rax
  20dcc6:	48 8b 45 98          	mov    rax,QWORD PTR [rbp-0x68]
  20dcca:	48 81 c4 80 00 00 00 	add    rsp,0x80
  20dcd1:	5d                   	pop    rbp
  20dcd2:	c3                   	ret    
  20dcd3:	66 66 66 66 2e 0f 1f 	data16 data16 data16 nop WORD PTR cs:[rax+rax*1+0x0]
  20dcda:	84 00 00 00 00 00 

000000000020dce0 <OutStream(error{SystemResources,OperationAborted,IoPending,BrokenPipe,Unexpected,WouldBlock,FileClosed,DestinationAddressRequired,DiskQuota,FileTooBig,InputOutput,NoSpaceLeft,AccessDenied,})_print.24>:
        pub fn print(self: *Self, comptime format: []const u8, args: ...) !void {
  20dce0:	55                   	push   rbp
  20dce1:	48 89 e5             	mov    rbp,rsp
  20dce4:	48 83 ec 20          	sub    rsp,0x20
  20dce8:	48 89 75 f8          	mov    QWORD PTR [rbp-0x8],rsi
            return std.fmt.format(self, Error, self.writeFn, format, args);
  20dcec:	48 8b 75 f8          	mov    rsi,QWORD PTR [rbp-0x8]
  20dcf0:	48 8b 45 f8          	mov    rax,QWORD PTR [rbp-0x8]
  20dcf4:	48 8b 00             	mov    rax,QWORD PTR [rax]
  20dcf7:	48 89 7d f0          	mov    QWORD PTR [rbp-0x10],rdi
  20dcfb:	48 89 55 e8          	mov    QWORD PTR [rbp-0x18],rdx
  20dcff:	48 89 c2             	mov    rdx,rax
  20dd02:	48 8b 4d e8          	mov    rcx,QWORD PTR [rbp-0x18]
  20dd06:	e8 15 ee 00 00       	call   21cb20 <format.57>
  20dd0b:	66 83 f8 00          	cmp    ax,0x0
  20dd0f:	66 89 45 e6          	mov    WORD PTR [rbp-0x1a],ax
  20dd13:	74 0b                	je     20dd20 <OutStream(error{SystemResources,OperationAborted,IoPending,BrokenPipe,Unexpected,WouldBlock,FileClosed,DestinationAddressRequired,DiskQuota,FileTooBig,InputOutput,NoSpaceLeft,AccessDenied,})_print.24+0x40>
  20dd15:	48 8b 7d f0          	mov    rdi,QWORD PTR [rbp-0x10]
  20dd19:	e8 72 df ff ff       	call   20bc90 <__zig_return_error>
  20dd1e:	eb 02                	jmp    20dd22 <OutStream(error{SystemResources,OperationAborted,IoPending,BrokenPipe,Unexpected,WouldBlock,FileClosed,DestinationAddressRequired,DiskQuota,FileTooBig,InputOutput,NoSpaceLeft,AccessDenied,})_print.24+0x42>
  20dd20:	eb 00                	jmp    20dd22 <OutStream(error{SystemResources,OperationAborted,IoPending,BrokenPipe,Unexpected,WouldBlock,FileClosed,DestinationAddressRequired,DiskQuota,FileTooBig,InputOutput,NoSpaceLeft,AccessDenied,})_print.24+0x42>
  20dd22:	66 8b 45 e6          	mov    ax,WORD PTR [rbp-0x1a]
  20dd26:	48 83 c4 20          	add    rsp,0x20
  20dd2a:	5d                   	pop    rbp
  20dd2b:	c3                   	ret    
  20dd2c:	0f 1f 40 00          	nop    DWORD PTR [rax+0x0]

000000000020dd30 <getDebugInfoAllocator>:

// TODO make thread safe
var debug_info_allocator: ?*mem.Allocator = null;
var debug_info_direct_allocator: std.heap.DirectAllocator = undefined;
var debug_info_arena_allocator: std.heap.ArenaAllocator = undefined;
fn getDebugInfoAllocator() *mem.Allocator {
  20dd30:	55                   	push   rbp
  20dd31:	48 89 e5             	mov    rbp,rsp
    if (debug_info_allocator) |a| return a;
  20dd34:	48 81 ec 80 00 00 00 	sub    rsp,0x80
  20dd3b:	48 83 3d 05 63 03 00 	cmp    QWORD PTR [rip+0x36305],0x0        # 244048 <debug_info_allocator>
  20dd42:	00 
  20dd43:	74 18                	je     20dd5d <getDebugInfoAllocator+0x2d>
  20dd45:	48 8b 05 fc 62 03 00 	mov    rax,QWORD PTR [rip+0x362fc]        # 244048 <debug_info_allocator>
  20dd4c:	48 89 45 98          	mov    QWORD PTR [rbp-0x68],rax
  20dd50:	48 8b 45 98          	mov    rax,QWORD PTR [rbp-0x68]
  20dd54:	48 81 c4 80 00 00 00 	add    rsp,0x80
  20dd5b:	5d                   	pop    rbp
  20dd5c:	c3                   	ret    
  20dd5d:	eb 00                	jmp    20dd5f <getDebugInfoAllocator+0x2f>
  20dd5f:	48 8d 7d e0          	lea    rdi,[rbp-0x20]

    debug_info_direct_allocator = std.heap.DirectAllocator.init();
  20dd63:	e8 f8 50 00 00       	call   212e60 <DirectAllocator_init>
  20dd68:	48 8d 7d a0          	lea    rdi,[rbp-0x60]
  20dd6c:	48 8d 35 cd e2 02 00 	lea    rsi,[rip+0x2e2cd]        # 23c040 <debug_info_direct_allocator>
  20dd73:	48 8b 45 e0          	mov    rax,QWORD PTR [rbp-0x20]
  20dd77:	48 89 05 c2 e2 02 00 	mov    QWORD PTR [rip+0x2e2c2],rax        # 23c040 <debug_info_direct_allocator>
  20dd7e:	48 8b 45 e8          	mov    rax,QWORD PTR [rbp-0x18]
  20dd82:	48 89 05 bf e2 02 00 	mov    QWORD PTR [rip+0x2e2bf],rax        # 23c048 <debug_info_direct_allocator+0x8>
  20dd89:	48 8b 45 f0          	mov    rax,QWORD PTR [rbp-0x10]
  20dd8d:	48 89 05 bc e2 02 00 	mov    QWORD PTR [rip+0x2e2bc],rax        # 23c050 <debug_info_direct_allocator+0x10>
  20dd94:	48 8b 45 f8          	mov    rax,QWORD PTR [rbp-0x8]
  20dd98:	48 89 05 b9 e2 02 00 	mov    QWORD PTR [rip+0x2e2b9],rax        # 23c058 <debug_info_direct_allocator+0x18>
    debug_info_arena_allocator = std.heap.ArenaAllocator.init(&debug_info_direct_allocator.allocator);
  20dd9f:	e8 fc 50 00 00       	call   212ea0 <ArenaAllocator_init>
  20dda4:	48 8d 05 b5 e2 02 00 	lea    rax,[rip+0x2e2b5]        # 23c060 <debug_info_arena_allocator>
  20ddab:	48 89 c6             	mov    rsi,rax
  20ddae:	b9 40 00 00 00       	mov    ecx,0x40
  20ddb3:	89 ca                	mov    edx,ecx
  20ddb5:	48 8d 7d a0          	lea    rdi,[rbp-0x60]
  20ddb9:	48 89 7d 90          	mov    QWORD PTR [rbp-0x70],rdi
  20ddbd:	48 89 f7             	mov    rdi,rsi
  20ddc0:	48 8b 75 90          	mov    rsi,QWORD PTR [rbp-0x70]
  20ddc4:	48 89 45 88          	mov    QWORD PTR [rbp-0x78],rax
  20ddc8:	e8 33 6b 02 00       	call   234900 <memcpy>
    debug_info_allocator = &debug_info_arena_allocator.allocator;
  20ddcd:	48 8b 45 88          	mov    rax,QWORD PTR [rbp-0x78]
  20ddd1:	48 89 05 70 62 03 00 	mov    QWORD PTR [rip+0x36270],rax        # 244048 <debug_info_allocator>
    return &debug_info_arena_allocator.allocator;
  20ddd8:	48 81 c4 80 00 00 00 	add    rsp,0x80
  20dddf:	5d                   	pop    rbp
  20dde0:	c3                   	ret    
  20dde1:	66 66 66 66 66 66 2e 	data16 data16 data16 data16 data16 nop WORD PTR cs:[rax+rax*1+0x0]
  20dde8:	0f 1f 84 00 00 00 00 
  20ddef:	00 

000000000020ddf0 <wantTtyColor>:
fn wantTtyColor() bool {
  20ddf0:	55                   	push   rbp
  20ddf1:	48 89 e5             	mov    rbp,rsp
  20ddf4:	48 81 ec 50 02 00 00 	sub    rsp,0x250
  20ddfb:	b0 01                	mov    al,0x1
  20ddfd:	48 8d 35 2e b3 ff ff 	lea    rsi,[rip+0xffffffffffffb32e]        # 209132 <__unnamed_25>
  20de04:	b9 80 00 00 00       	mov    ecx,0x80
  20de09:	89 ca                	mov    edx,ecx
  20de0b:	48 8d bd d8 fd ff ff 	lea    rdi,[rbp-0x228]
  20de12:	4c 8d 85 10 ff ff ff 	lea    r8,[rbp-0xf0]
  20de19:	48 c7 85 f8 fe ff ff 	mov    QWORD PTR [rbp-0x108],0x0
  20de20:	00 00 00 00 
  20de24:	4c 89 85 00 ff ff ff 	mov    QWORD PTR [rbp-0x100],r8
  20de2b:	48 c7 85 08 ff ff ff 	mov    QWORD PTR [rbp-0xf8],0x1e
  20de32:	1e 00 00 00 
    var bytes: [128]u8 = undefined;
  20de36:	88 85 bd fd ff ff    	mov    BYTE PTR [rbp-0x243],al
  20de3c:	e8 bf 6a 02 00       	call   234900 <memcpy>
    const allocator = &std.heap.FixedBufferAllocator.init(bytes[0..]).allocator;
  20de41:	8a 85 bd fd ff ff    	mov    al,BYTE PTR [rbp-0x243]
  20de47:	a8 01                	test   al,0x1
  20de49:	75 67                	jne    20deb2 <wantTtyColor+0xc2>
  20de4b:	eb 55                	jmp    20dea2 <wantTtyColor+0xb2>
  20de4d:	b0 01                	mov    al,0x1
    return if (std.os.getEnvVarOwned(allocator, "ZIG_DEBUG_COLOR")) |_| true else |_| stderr_file.isTty();
  20de4f:	48 8b 8d 78 fe ff ff 	mov    rcx,QWORD PTR [rbp-0x188]
  20de56:	48 89 8d c0 fd ff ff 	mov    QWORD PTR [rbp-0x240],rcx
  20de5d:	48 8b 8d 80 fe ff ff 	mov    rcx,QWORD PTR [rbp-0x180]
  20de64:	48 89 8d c8 fd ff ff 	mov    QWORD PTR [rbp-0x238],rcx
  20de6b:	88 85 bc fd ff ff    	mov    BYTE PTR [rbp-0x244],al
  20de71:	eb 20                	jmp    20de93 <wantTtyColor+0xa3>
  20de73:	48 8d 3d a6 e1 02 00 	lea    rdi,[rip+0x2e1a6]        # 23c020 <stderr_file>
  20de7a:	66 8b 85 70 fe ff ff 	mov    ax,WORD PTR [rbp-0x190]
  20de81:	66 89 85 be fd ff ff 	mov    WORD PTR [rbp-0x242],ax
  20de88:	e8 b3 ee 00 00       	call   21cd40 <File_isTty>
  20de8d:	88 85 bc fd ff ff    	mov    BYTE PTR [rbp-0x244],al
  20de93:	8a 85 bc fd ff ff    	mov    al,BYTE PTR [rbp-0x244]
  20de99:	48 81 c4 50 02 00 00 	add    rsp,0x250
  20dea0:	5d                   	pop    rbp
  20dea1:	c3                   	ret    
  20dea2:	48 8d 3d 4f 55 03 00 	lea    rdi,[rip+0x3554f]        # 2433f8 <__unnamed_20>
  20dea9:	31 c0                	xor    eax,eax
  20deab:	89 c6                	mov    esi,eax
    const allocator = &std.heap.FixedBufferAllocator.init(bytes[0..]).allocator;
  20dead:	e8 4e d7 ff ff       	call   20b600 <panic>
  20deb2:	48 8d bd b8 fe ff ff 	lea    rdi,[rbp-0x148]
  20deb9:	48 8d b5 e8 fe ff ff 	lea    rsi,[rbp-0x118]
  20dec0:	48 8d 85 d8 fd ff ff 	lea    rax,[rbp-0x228]
  20dec7:	48 89 85 e8 fe ff ff 	mov    QWORD PTR [rbp-0x118],rax
  20dece:	48 c7 85 f0 fe ff ff 	mov    QWORD PTR [rbp-0x110],0x80
  20ded5:	80 00 00 00 
  20ded9:	e8 d2 50 00 00       	call   212fb0 <FixedBufferAllocator_init>
  20dede:	48 8d bd 70 fe ff ff 	lea    rdi,[rbp-0x190]
  20dee5:	48 8d b5 f8 fe ff ff 	lea    rsi,[rbp-0x108]
  20deec:	48 8d 0d 55 57 03 00 	lea    rcx,[rip+0x35755]        # 243648 <__unnamed_26>
  20def3:	48 8d 85 b8 fe ff ff 	lea    rax,[rbp-0x148]
  20defa:	48 89 85 d0 fd ff ff 	mov    QWORD PTR [rbp-0x230],rax
    return if (std.os.getEnvVarOwned(allocator, "ZIG_DEBUG_COLOR")) |_| true else |_| stderr_file.isTty();
  20df01:	48 8b 95 d0 fd ff ff 	mov    rdx,QWORD PTR [rbp-0x230]
  20df08:	e8 53 ed 00 00       	call   21cc60 <getEnvVarOwned>
  20df0d:	66 83 bd 70 fe ff ff 	cmp    WORD PTR [rbp-0x190],0x0
  20df14:	00 
  20df15:	0f 85 58 ff ff ff    	jne    20de73 <wantTtyColor+0x83>
  20df1b:	e9 2d ff ff ff       	jmp    20de4d <wantTtyColor+0x5d>

000000000020df20 <writeStackTrace>:
pub fn writeStackTrace(stack_trace: *const builtin.StackTrace, out_stream: var, allocator: *mem.Allocator, debug_info: *ElfStackTrace, tty_color: bool) !void {
  20df20:	55                   	push   rbp
  20df21:	48 89 e5             	mov    rbp,rsp
  20df24:	41 56                	push   r14
  20df26:	53                   	push   rbx
  20df27:	48 81 ec c0 00 00 00 	sub    rsp,0xc0
  20df2e:	44 88 c8             	mov    al,r9b
  20df31:	41 b9 aa 00 00 00    	mov    r9d,0xaa
  20df37:	41 ba 08 00 00 00    	mov    r10d,0x8
  20df3d:	45 89 d3             	mov    r11d,r10d
  20df40:	48 8d 5d b0          	lea    rbx,[rbp-0x50]
  20df44:	4c 8d 75 b8          	lea    r14,[rbp-0x48]
  20df48:	48 89 75 e0          	mov    QWORD PTR [rbp-0x20],rsi
  20df4c:	48 89 55 d8          	mov    QWORD PTR [rbp-0x28],rdx
  20df50:	48 89 4d d0          	mov    QWORD PTR [rbp-0x30],rcx
  20df54:	4c 89 45 c8          	mov    QWORD PTR [rbp-0x38],r8
  20df58:	24 01                	and    al,0x1
  20df5a:	88 45 c7             	mov    BYTE PTR [rbp-0x39],al
    var frame_index: usize = undefined;
  20df5d:	48 89 7d a0          	mov    QWORD PTR [rbp-0x60],rdi
  20df61:	4c 89 f7             	mov    rdi,r14
  20df64:	44 89 ce             	mov    esi,r9d
  20df67:	4c 89 da             	mov    rdx,r11
  20df6a:	48 89 5d 98          	mov    QWORD PTR [rbp-0x68],rbx
  20df6e:	4c 89 5d 90          	mov    QWORD PTR [rbp-0x70],r11
  20df72:	44 89 4d 8c          	mov    DWORD PTR [rbp-0x74],r9d
  20df76:	e8 35 69 02 00       	call   2348b0 <memset>
    var frames_left: usize = undefined;
  20df7b:	48 8b 4d 98          	mov    rcx,QWORD PTR [rbp-0x68]
  20df7f:	48 89 cf             	mov    rdi,rcx
  20df82:	8b 75 8c             	mov    esi,DWORD PTR [rbp-0x74]
  20df85:	48 8b 55 90          	mov    rdx,QWORD PTR [rbp-0x70]
  20df89:	e8 22 69 02 00       	call   2348b0 <memset>
    if (stack_trace.index < stack_trace.instruction_addresses.len) {
  20df8e:	48 8b 4d e0          	mov    rcx,QWORD PTR [rbp-0x20]
  20df92:	48 8b 09             	mov    rcx,QWORD PTR [rcx]
  20df95:	48 8b 55 e0          	mov    rdx,QWORD PTR [rbp-0x20]
  20df99:	48 3b 4a 10          	cmp    rcx,QWORD PTR [rdx+0x10]
  20df9d:	73 15                	jae    20dfb4 <writeStackTrace+0x94>
        frame_index = 0;
  20df9f:	48 c7 45 b8 00 00 00 	mov    QWORD PTR [rbp-0x48],0x0
  20dfa6:	00 
        frames_left = stack_trace.index;
  20dfa7:	48 8b 45 e0          	mov    rax,QWORD PTR [rbp-0x20]
  20dfab:	48 8b 00             	mov    rax,QWORD PTR [rax]
  20dfae:	48 89 45 b0          	mov    QWORD PTR [rbp-0x50],rax
    if (stack_trace.index < stack_trace.instruction_addresses.len) {
  20dfb2:	eb 23                	jmp    20dfd7 <writeStackTrace+0xb7>
        frame_index = (stack_trace.index + 1) % stack_trace.instruction_addresses.len;
  20dfb4:	48 8b 45 e0          	mov    rax,QWORD PTR [rbp-0x20]
  20dfb8:	48 8b 00             	mov    rax,QWORD PTR [rax]
  20dfbb:	48 83 c0 01          	add    rax,0x1
  20dfbf:	0f 92 c1             	setb   cl
  20dfc2:	48 89 45 80          	mov    QWORD PTR [rbp-0x80],rax
  20dfc6:	88 8d 7f ff ff ff    	mov    BYTE PTR [rbp-0x81],cl
  20dfcc:	0f 82 98 00 00 00    	jb     20e06a <writeStackTrace+0x14a>
  20dfd2:	e9 a3 00 00 00       	jmp    20e07a <writeStackTrace+0x15a>
    while (frames_left != 0) : ({
  20dfd7:	eb 00                	jmp    20dfd9 <writeStackTrace+0xb9>
  20dfd9:	48 83 7d b0 00       	cmp    QWORD PTR [rbp-0x50],0x0
  20dfde:	74 76                	je     20e056 <writeStackTrace+0x136>
        const return_address = stack_trace.instruction_addresses[frame_index];
  20dfe0:	48 8b 45 e0          	mov    rax,QWORD PTR [rbp-0x20]
  20dfe4:	48 89 c1             	mov    rcx,rax
  20dfe7:	48 83 c1 08          	add    rcx,0x8
  20dfeb:	48 8b 55 b8          	mov    rdx,QWORD PTR [rbp-0x48]
  20dfef:	48 3b 50 10          	cmp    rdx,QWORD PTR [rax+0x10]
  20dff3:	48 89 95 70 ff ff ff 	mov    QWORD PTR [rbp-0x90],rdx
  20dffa:	48 89 8d 68 ff ff ff 	mov    QWORD PTR [rbp-0x98],rcx
  20e001:	0f 82 cf 00 00 00    	jb     20e0d6 <writeStackTrace+0x1b6>
  20e007:	e9 ba 00 00 00       	jmp    20e0c6 <writeStackTrace+0x1a6>
        try printSourceAtAddress(debug_info, out_stream, return_address, tty_color);
  20e00c:	66 8b 45 ee          	mov    ax,WORD PTR [rbp-0x12]
  20e010:	48 8b 7d a0          	mov    rdi,QWORD PTR [rbp-0x60]
  20e014:	66 89 85 66 ff ff ff 	mov    WORD PTR [rbp-0x9a],ax
  20e01b:	e8 70 dc ff ff       	call   20bc90 <__zig_return_error>
  20e020:	66 8b 85 66 ff ff ff 	mov    ax,WORD PTR [rbp-0x9a]
  20e027:	48 81 c4 c0 00 00 00 	add    rsp,0xc0
  20e02e:	5b                   	pop    rbx
  20e02f:	41 5e                	pop    r14
  20e031:	5d                   	pop    rbp
  20e032:	c3                   	ret    
        frames_left -= 1;
  20e033:	48 8b 45 b0          	mov    rax,QWORD PTR [rbp-0x50]
  20e037:	48 83 e8 01          	sub    rax,0x1
  20e03b:	0f 92 c1             	setb   cl
  20e03e:	48 89 85 58 ff ff ff 	mov    QWORD PTR [rbp-0xa8],rax
  20e045:	88 8d 57 ff ff ff    	mov    BYTE PTR [rbp-0xa9],cl
  20e04b:	0f 82 cf 00 00 00    	jb     20e120 <writeStackTrace+0x200>
  20e051:	e9 da 00 00 00       	jmp    20e130 <writeStackTrace+0x210>
  20e056:	31 c0                	xor    eax,eax
  20e058:	66 89 c1             	mov    cx,ax
pub fn writeStackTrace(stack_trace: *const builtin.StackTrace, out_stream: var, allocator: *mem.Allocator, debug_info: *ElfStackTrace, tty_color: bool) !void {
  20e05b:	66 89 c8             	mov    ax,cx
  20e05e:	48 81 c4 c0 00 00 00 	add    rsp,0xc0
  20e065:	5b                   	pop    rbx
  20e066:	41 5e                	pop    r14
  20e068:	5d                   	pop    rbp
  20e069:	c3                   	ret    
  20e06a:	48 8d 3d 57 51 03 00 	lea    rdi,[rip+0x35157]        # 2431c8 <__unnamed_4>
  20e071:	31 c0                	xor    eax,eax
  20e073:	89 c6                	mov    esi,eax
        frame_index = (stack_trace.index + 1) % stack_trace.instruction_addresses.len;
  20e075:	e8 86 d5 ff ff       	call   20b600 <panic>
  20e07a:	48 8b 45 e0          	mov    rax,QWORD PTR [rbp-0x20]
  20e07e:	48 8b 40 10          	mov    rax,QWORD PTR [rax+0x10]
  20e082:	48 83 f8 00          	cmp    rax,0x0
  20e086:	48 89 85 48 ff ff ff 	mov    QWORD PTR [rbp-0xb8],rax
  20e08d:	74 27                	je     20e0b6 <writeStackTrace+0x196>
  20e08f:	48 8b 45 80          	mov    rax,QWORD PTR [rbp-0x80]
  20e093:	31 c9                	xor    ecx,ecx
  20e095:	89 ca                	mov    edx,ecx
  20e097:	48 8b b5 48 ff ff ff 	mov    rsi,QWORD PTR [rbp-0xb8]
  20e09e:	48 f7 f6             	div    rsi
  20e0a1:	48 89 55 b8          	mov    QWORD PTR [rbp-0x48],rdx
        frames_left = stack_trace.instruction_addresses.len;
  20e0a5:	48 8b 55 e0          	mov    rdx,QWORD PTR [rbp-0x20]
  20e0a9:	48 8b 52 10          	mov    rdx,QWORD PTR [rdx+0x10]
  20e0ad:	48 89 55 b0          	mov    QWORD PTR [rbp-0x50],rdx
    if (stack_trace.index < stack_trace.instruction_addresses.len) {
  20e0b1:	e9 21 ff ff ff       	jmp    20dfd7 <writeStackTrace+0xb7>
  20e0b6:	48 8d 3d 3b 52 03 00 	lea    rdi,[rip+0x3523b]        # 2432f8 <__unnamed_15>
  20e0bd:	31 c0                	xor    eax,eax
  20e0bf:	89 c6                	mov    esi,eax
        frame_index = (stack_trace.index + 1) % stack_trace.instruction_addresses.len;
  20e0c1:	e8 3a d5 ff ff       	call   20b600 <panic>
  20e0c6:	48 8d 3d 2b 53 03 00 	lea    rdi,[rip+0x3532b]        # 2433f8 <__unnamed_20>
  20e0cd:	31 c0                	xor    eax,eax
  20e0cf:	89 c6                	mov    esi,eax
        const return_address = stack_trace.instruction_addresses[frame_index];
  20e0d1:	e8 2a d5 ff ff       	call   20b600 <panic>
  20e0d6:	48 8b 85 68 ff ff ff 	mov    rax,QWORD PTR [rbp-0x98]
  20e0dd:	48 8b 08             	mov    rcx,QWORD PTR [rax]
  20e0e0:	48 8b 95 70 ff ff ff 	mov    rdx,QWORD PTR [rbp-0x90]
  20e0e7:	48 8b 0c d1          	mov    rcx,QWORD PTR [rcx+rdx*8]
  20e0eb:	48 89 4d a8          	mov    QWORD PTR [rbp-0x58],rcx
        try printSourceAtAddress(debug_info, out_stream, return_address, tty_color);
  20e0ef:	48 8b 75 c8          	mov    rsi,QWORD PTR [rbp-0x38]
  20e0f3:	48 8b 55 d8          	mov    rdx,QWORD PTR [rbp-0x28]
  20e0f7:	48 8b 4d a8          	mov    rcx,QWORD PTR [rbp-0x58]
  20e0fb:	40 8a 7d c7          	mov    dil,BYTE PTR [rbp-0x39]
  20e0ff:	44 0f b6 c7          	movzx  r8d,dil
  20e103:	48 8b 7d a0          	mov    rdi,QWORD PTR [rbp-0x60]
  20e107:	e8 64 ec 00 00       	call   21cd70 <printSourceAtAddress>
  20e10c:	66 89 45 ee          	mov    WORD PTR [rbp-0x12],ax
  20e110:	66 83 7d ee 00       	cmp    WORD PTR [rbp-0x12],0x0
  20e115:	0f 85 f1 fe ff ff    	jne    20e00c <writeStackTrace+0xec>
  20e11b:	e9 13 ff ff ff       	jmp    20e033 <writeStackTrace+0x113>
  20e120:	48 8d 3d a1 50 03 00 	lea    rdi,[rip+0x350a1]        # 2431c8 <__unnamed_4>
  20e127:	31 c0                	xor    eax,eax
  20e129:	89 c6                	mov    esi,eax
        frames_left -= 1;
  20e12b:	e8 d0 d4 ff ff       	call   20b600 <panic>
  20e130:	48 8b 85 58 ff ff ff 	mov    rax,QWORD PTR [rbp-0xa8]
  20e137:	48 89 45 b0          	mov    QWORD PTR [rbp-0x50],rax
        frame_index = (frame_index + 1) % stack_trace.instruction_addresses.len;
  20e13b:	48 8b 4d b8          	mov    rcx,QWORD PTR [rbp-0x48]
  20e13f:	48 83 c1 01          	add    rcx,0x1
  20e143:	0f 92 c2             	setb   dl
  20e146:	48 89 8d 40 ff ff ff 	mov    QWORD PTR [rbp-0xc0],rcx
  20e14d:	88 95 3f ff ff ff    	mov    BYTE PTR [rbp-0xc1],dl
  20e153:	72 02                	jb     20e157 <writeStackTrace+0x237>
  20e155:	eb 10                	jmp    20e167 <writeStackTrace+0x247>
  20e157:	48 8d 3d 6a 50 03 00 	lea    rdi,[rip+0x3506a]        # 2431c8 <__unnamed_4>
  20e15e:	31 c0                	xor    eax,eax
  20e160:	89 c6                	mov    esi,eax
  20e162:	e8 99 d4 ff ff       	call   20b600 <panic>
  20e167:	48 8b 45 e0          	mov    rax,QWORD PTR [rbp-0x20]
  20e16b:	48 8b 40 10          	mov    rax,QWORD PTR [rax+0x10]
  20e16f:	48 83 f8 00          	cmp    rax,0x0
  20e173:	48 89 85 30 ff ff ff 	mov    QWORD PTR [rbp-0xd0],rax
  20e17a:	74 1e                	je     20e19a <writeStackTrace+0x27a>
  20e17c:	48 8b 85 40 ff ff ff 	mov    rax,QWORD PTR [rbp-0xc0]
  20e183:	31 c9                	xor    ecx,ecx
  20e185:	89 ca                	mov    edx,ecx
  20e187:	48 8b b5 30 ff ff ff 	mov    rsi,QWORD PTR [rbp-0xd0]
  20e18e:	48 f7 f6             	div    rsi
  20e191:	48 89 55 b8          	mov    QWORD PTR [rbp-0x48],rdx
    while (frames_left != 0) : ({
  20e195:	e9 3f fe ff ff       	jmp    20dfd9 <writeStackTrace+0xb9>
  20e19a:	48 8d 3d 57 51 03 00 	lea    rdi,[rip+0x35157]        # 2432f8 <__unnamed_15>
  20e1a1:	31 c0                	xor    eax,eax
  20e1a3:	89 c6                	mov    esi,eax
        frame_index = (frame_index + 1) % stack_trace.instruction_addresses.len;
  20e1a5:	e8 56 d4 ff ff       	call   20b600 <panic>
  20e1aa:	66 0f 1f 44 00 00    	nop    WORD PTR [rax+rax*1+0x0]

000000000020e1b0 <OutStream(error{SystemResources,OperationAborted,IoPending,BrokenPipe,Unexpected,WouldBlock,FileClosed,DestinationAddressRequired,DiskQuota,FileTooBig,InputOutput,NoSpaceLeft,AccessDenied,})_print.25>:
        pub fn print(self: *Self, comptime format: []const u8, args: ...) !void {
  20e1b0:	55                   	push   rbp
  20e1b1:	48 89 e5             	mov    rbp,rsp
  20e1b4:	48 83 ec 20          	sub    rsp,0x20
  20e1b8:	48 89 75 f8          	mov    QWORD PTR [rbp-0x8],rsi
            return std.fmt.format(self, Error, self.writeFn, format, args);
  20e1bc:	48 8b 75 f8          	mov    rsi,QWORD PTR [rbp-0x8]
  20e1c0:	48 8b 45 f8          	mov    rax,QWORD PTR [rbp-0x8]
  20e1c4:	48 8b 00             	mov    rax,QWORD PTR [rax]
  20e1c7:	48 89 7d f0          	mov    QWORD PTR [rbp-0x10],rdi
  20e1cb:	48 89 55 e8          	mov    QWORD PTR [rbp-0x18],rdx
  20e1cf:	48 89 c2             	mov    rdx,rax
  20e1d2:	48 8b 4d e8          	mov    rcx,QWORD PTR [rbp-0x18]
  20e1d6:	e8 65 75 01 00       	call   225740 <format.94>
  20e1db:	66 83 f8 00          	cmp    ax,0x0
  20e1df:	66 89 45 e6          	mov    WORD PTR [rbp-0x1a],ax
  20e1e3:	74 0b                	je     20e1f0 <OutStream(error{SystemResources,OperationAborted,IoPending,BrokenPipe,Unexpected,WouldBlock,FileClosed,DestinationAddressRequired,DiskQuota,FileTooBig,InputOutput,NoSpaceLeft,AccessDenied,})_print.25+0x40>
  20e1e5:	48 8b 7d f0          	mov    rdi,QWORD PTR [rbp-0x10]
  20e1e9:	e8 a2 da ff ff       	call   20bc90 <__zig_return_error>
  20e1ee:	eb 02                	jmp    20e1f2 <OutStream(error{SystemResources,OperationAborted,IoPending,BrokenPipe,Unexpected,WouldBlock,FileClosed,DestinationAddressRequired,DiskQuota,FileTooBig,InputOutput,NoSpaceLeft,AccessDenied,})_print.25+0x42>
  20e1f0:	eb 00                	jmp    20e1f2 <OutStream(error{SystemResources,OperationAborted,IoPending,BrokenPipe,Unexpected,WouldBlock,FileClosed,DestinationAddressRequired,DiskQuota,FileTooBig,InputOutput,NoSpaceLeft,AccessDenied,})_print.25+0x42>
  20e1f2:	66 8b 45 e6          	mov    ax,WORD PTR [rbp-0x1a]
  20e1f6:	48 83 c4 20          	add    rsp,0x20
  20e1fa:	5d                   	pop    rbp
  20e1fb:	c3                   	ret    
  20e1fc:	0f 1f 40 00          	nop    DWORD PTR [rax+0x0]

000000000020e200 <writeCurrentStackTrace>:
pub fn writeCurrentStackTrace(out_stream: var, allocator: *mem.Allocator, debug_info: *ElfStackTrace, tty_color: bool, start_addr: ?usize) !void {
  20e200:	55                   	push   rbp
  20e201:	48 89 e5             	mov    rbp,rsp
  20e204:	53                   	push   rbx
  20e205:	48 81 ec 88 00 00 00 	sub    rsp,0x88
  20e20c:	44 88 c0             	mov    al,r8b
  20e20f:	41 b8 aa 00 00 00    	mov    r8d,0xaa
  20e215:	41 ba 10 00 00 00    	mov    r10d,0x10
  20e21b:	45 89 d3             	mov    r11d,r10d
  20e21e:	48 8d 5d b0          	lea    rbx,[rbp-0x50]
  20e222:	48 89 75 d8          	mov    QWORD PTR [rbp-0x28],rsi
  20e226:	48 89 55 d0          	mov    QWORD PTR [rbp-0x30],rdx
  20e22a:	48 89 4d c8          	mov    QWORD PTR [rbp-0x38],rcx
  20e22e:	24 01                	and    al,0x1
  20e230:	88 45 c7             	mov    BYTE PTR [rbp-0x39],al
    var addr_state: AddressState = undefined;
  20e233:	48 89 7d 88          	mov    QWORD PTR [rbp-0x78],rdi
  20e237:	48 89 df             	mov    rdi,rbx
  20e23a:	44 89 c6             	mov    esi,r8d
  20e23d:	4c 89 da             	mov    rdx,r11
  20e240:	4c 89 4d 80          	mov    QWORD PTR [rbp-0x80],r9
  20e244:	e8 67 66 02 00       	call   2348b0 <memset>
    if (start_addr) |addr| {
  20e249:	48 8b 4d 80          	mov    rcx,QWORD PTR [rbp-0x80]
  20e24d:	f6 41 08 01          	test   BYTE PTR [rcx+0x8],0x1
  20e251:	75 02                	jne    20e255 <writeCurrentStackTrace+0x55>
  20e253:	eb 29                	jmp    20e27e <writeCurrentStackTrace+0x7e>
  20e255:	48 8b 45 80          	mov    rax,QWORD PTR [rbp-0x80]
  20e259:	48 8b 08             	mov    rcx,QWORD PTR [rax]
  20e25c:	48 89 4d a8          	mov    QWORD PTR [rbp-0x58],rcx
        addr_state = AddressState{ .LookingForStartAddress = addr };
  20e260:	48 8b 4d a8          	mov    rcx,QWORD PTR [rbp-0x58]
  20e264:	c6 45 f0 01          	mov    BYTE PTR [rbp-0x10],0x1
  20e268:	48 89 4d e8          	mov    QWORD PTR [rbp-0x18],rcx
  20e26c:	48 8b 4d e8          	mov    rcx,QWORD PTR [rbp-0x18]
  20e270:	48 89 4d b0          	mov    QWORD PTR [rbp-0x50],rcx
  20e274:	48 8b 4d f0          	mov    rcx,QWORD PTR [rbp-0x10]
  20e278:	48 89 4d b8          	mov    QWORD PTR [rbp-0x48],rcx
    if (start_addr) |addr| {
  20e27c:	eb 16                	jmp    20e294 <writeCurrentStackTrace+0x94>
        addr_state = AddressState.NotLookingForStartAddress;
  20e27e:	48 8b 05 2b 20 ff ff 	mov    rax,QWORD PTR [rip+0xffffffffffff202b]        # 2002b0 <__unnamed_100>
  20e285:	48 89 45 b0          	mov    QWORD PTR [rbp-0x50],rax
  20e289:	48 8b 05 28 20 ff ff 	mov    rax,QWORD PTR [rip+0xffffffffffff2028]        # 2002b8 <__unnamed_100+0x8>
  20e290:	48 89 45 b8          	mov    QWORD PTR [rbp-0x48],rax
    var fp = @ptrToInt(@frameAddress());
  20e294:	48 89 e8             	mov    rax,rbp
  20e297:	48 89 45 a0          	mov    QWORD PTR [rbp-0x60],rax
    while (fp != 0) : (fp = @intToPtr(*const usize, fp).*) {
  20e29b:	48 83 7d a0 00       	cmp    QWORD PTR [rbp-0x60],0x0
  20e2a0:	0f 84 bf 00 00 00    	je     20e365 <writeCurrentStackTrace+0x165>
        const return_address = @intToPtr(*const usize, fp + @sizeOf(usize)).*;
  20e2a6:	48 8b 45 a0          	mov    rax,QWORD PTR [rbp-0x60]
  20e2aa:	48 83 c0 08          	add    rax,0x8
  20e2ae:	0f 92 c1             	setb   cl
  20e2b1:	48 89 85 78 ff ff ff 	mov    QWORD PTR [rbp-0x88],rax
  20e2b8:	88 8d 77 ff ff ff    	mov    BYTE PTR [rbp-0x89],cl
  20e2be:	0f 82 b3 00 00 00    	jb     20e377 <writeCurrentStackTrace+0x177>
  20e2c4:	e9 be 00 00 00       	jmp    20e387 <writeCurrentStackTrace+0x187>
        switch (addr_state) {
  20e2c9:	eb 3e                	jmp    20e309 <writeCurrentStackTrace+0x109>
            AddressState.LookingForStartAddress => |addr| {
  20e2cb:	8a 45 b8             	mov    al,BYTE PTR [rbp-0x48]
  20e2ce:	f6 d0                	not    al
  20e2d0:	a8 01                	test   al,0x1
  20e2d2:	0f 84 e3 00 00 00    	je     20e3bb <writeCurrentStackTrace+0x1bb>
  20e2d8:	e9 f9 00 00 00       	jmp    20e3d6 <writeCurrentStackTrace+0x1d6>
                    addr_state = AddressState.NotLookingForStartAddress;
  20e2dd:	48 8b 05 cc 1f ff ff 	mov    rax,QWORD PTR [rip+0xffffffffffff1fcc]        # 2002b0 <__unnamed_100>
  20e2e4:	48 89 45 b0          	mov    QWORD PTR [rbp-0x50],rax
  20e2e8:	48 8b 05 c9 1f ff ff 	mov    rax,QWORD PTR [rip+0xffffffffffff1fc9]        # 2002b8 <__unnamed_100+0x8>
  20e2ef:	48 89 45 b8          	mov    QWORD PTR [rbp-0x48],rax
                if (return_address == addr) {
  20e2f3:	eb 02                	jmp    20e2f7 <writeCurrentStackTrace+0xf7>
                    continue;
  20e2f5:	eb 5e                	jmp    20e355 <writeCurrentStackTrace+0x155>
        switch (addr_state) {
  20e2f7:	eb 10                	jmp    20e309 <writeCurrentStackTrace+0x109>
  20e2f9:	48 8d 3d 10 50 03 00 	lea    rdi,[rip+0x35010]        # 243310 <__unnamed_13>
  20e300:	31 c0                	xor    eax,eax
  20e302:	89 c6                	mov    esi,eax
  20e304:	e8 f7 d2 ff ff       	call   20b600 <panic>
        try printSourceAtAddress(debug_info, out_stream, return_address, tty_color);
  20e309:	48 8b 75 c8          	mov    rsi,QWORD PTR [rbp-0x38]
  20e30d:	48 8b 55 d8          	mov    rdx,QWORD PTR [rbp-0x28]
  20e311:	48 8b 4d 98          	mov    rcx,QWORD PTR [rbp-0x68]
  20e315:	8a 45 c7             	mov    al,BYTE PTR [rbp-0x39]
  20e318:	44 0f b6 c0          	movzx  r8d,al
  20e31c:	48 8b 7d 88          	mov    rdi,QWORD PTR [rbp-0x78]
  20e320:	e8 4b ea 00 00       	call   21cd70 <printSourceAtAddress>
  20e325:	66 89 45 e6          	mov    WORD PTR [rbp-0x1a],ax
  20e329:	66 83 7d e6 00       	cmp    WORD PTR [rbp-0x1a],0x0
  20e32e:	74 25                	je     20e355 <writeCurrentStackTrace+0x155>
  20e330:	66 8b 45 e6          	mov    ax,WORD PTR [rbp-0x1a]
  20e334:	48 8b 7d 88          	mov    rdi,QWORD PTR [rbp-0x78]
  20e338:	66 89 85 74 ff ff ff 	mov    WORD PTR [rbp-0x8c],ax
  20e33f:	e8 4c d9 ff ff       	call   20bc90 <__zig_return_error>
  20e344:	66 8b 85 74 ff ff ff 	mov    ax,WORD PTR [rbp-0x8c]
  20e34b:	48 81 c4 88 00 00 00 	add    rsp,0x88
  20e352:	5b                   	pop    rbx
  20e353:	5d                   	pop    rbp
  20e354:	c3                   	ret    
    while (fp != 0) : (fp = @intToPtr(*const usize, fp).*) {
  20e355:	48 8b 45 a0          	mov    rax,QWORD PTR [rbp-0x60]
  20e359:	48 8b 00             	mov    rax,QWORD PTR [rax]
  20e35c:	48 89 45 a0          	mov    QWORD PTR [rbp-0x60],rax
  20e360:	e9 36 ff ff ff       	jmp    20e29b <writeCurrentStackTrace+0x9b>
  20e365:	31 c0                	xor    eax,eax
  20e367:	66 89 c1             	mov    cx,ax
pub fn writeCurrentStackTrace(out_stream: var, allocator: *mem.Allocator, debug_info: *ElfStackTrace, tty_color: bool, start_addr: ?usize) !void {
  20e36a:	66 89 c8             	mov    ax,cx
  20e36d:	48 81 c4 88 00 00 00 	add    rsp,0x88
  20e374:	5b                   	pop    rbx
  20e375:	5d                   	pop    rbp
  20e376:	c3                   	ret    
  20e377:	48 8d 3d 4a 4e 03 00 	lea    rdi,[rip+0x34e4a]        # 2431c8 <__unnamed_4>
  20e37e:	31 c0                	xor    eax,eax
  20e380:	89 c6                	mov    esi,eax
        const return_address = @intToPtr(*const usize, fp + @sizeOf(usize)).*;
  20e382:	e8 79 d2 ff ff       	call   20b600 <panic>
  20e387:	48 8b 85 78 ff ff ff 	mov    rax,QWORD PTR [rbp-0x88]
  20e38e:	48 8b 08             	mov    rcx,QWORD PTR [rax]
  20e391:	48 89 4d 98          	mov    QWORD PTR [rbp-0x68],rcx
        switch (addr_state) {
  20e395:	8a 55 b8             	mov    dl,BYTE PTR [rbp-0x48]
  20e398:	84 d2                	test   dl,dl
  20e39a:	88 95 73 ff ff ff    	mov    BYTE PTR [rbp-0x8d],dl
  20e3a0:	0f 85 25 ff ff ff    	jne    20e2cb <writeCurrentStackTrace+0xcb>
  20e3a6:	eb 00                	jmp    20e3a8 <writeCurrentStackTrace+0x1a8>
  20e3a8:	8a 85 73 ff ff ff    	mov    al,BYTE PTR [rbp-0x8d]
  20e3ae:	a8 01                	test   al,0x1
  20e3b0:	0f 84 13 ff ff ff    	je     20e2c9 <writeCurrentStackTrace+0xc9>
  20e3b6:	e9 3e ff ff ff       	jmp    20e2f9 <writeCurrentStackTrace+0xf9>
            AddressState.LookingForStartAddress => |addr| {
  20e3bb:	48 8b 45 b0          	mov    rax,QWORD PTR [rbp-0x50]
  20e3bf:	48 89 45 90          	mov    QWORD PTR [rbp-0x70],rax
                if (return_address == addr) {
  20e3c3:	48 8b 45 98          	mov    rax,QWORD PTR [rbp-0x68]
  20e3c7:	48 3b 45 90          	cmp    rax,QWORD PTR [rbp-0x70]
  20e3cb:	0f 84 0c ff ff ff    	je     20e2dd <writeCurrentStackTrace+0xdd>
  20e3d1:	e9 1f ff ff ff       	jmp    20e2f5 <writeCurrentStackTrace+0xf5>
  20e3d6:	48 8d 3d 23 52 03 00 	lea    rdi,[rip+0x35223]        # 243600 <__unnamed_29>
  20e3dd:	31 c0                	xor    eax,eax
  20e3df:	89 c6                	mov    esi,eax
            AddressState.LookingForStartAddress => |addr| {
  20e3e1:	e8 1a d2 ff ff       	call   20b600 <panic>
  20e3e6:	66 2e 0f 1f 84 00 00 	nop    WORD PTR cs:[rax+rax*1+0x0]
  20e3ed:	00 00 00 

000000000020e3f0 <format.26>:
pub fn format(context: var, comptime Errors: type, output: fn (@typeOf(context), []const u8) Errors!void, comptime fmt: []const u8, args: ...) Errors!void {
  20e3f0:	55                   	push   rbp
  20e3f1:	48 89 e5             	mov    rbp,rsp
  20e3f4:	48 83 ec 30          	sub    rsp,0x30
  20e3f8:	48 8d 05 11 50 03 00 	lea    rax,[rip+0x35011]        # 243410 <__unnamed_30>
  20e3ff:	48 89 75 f0          	mov    QWORD PTR [rbp-0x10],rsi
  20e403:	48 89 55 e8          	mov    QWORD PTR [rbp-0x18],rdx
        try output(context, fmt[start_index..]);
  20e407:	48 8b 55 e8          	mov    rdx,QWORD PTR [rbp-0x18]
  20e40b:	48 8b 75 f0          	mov    rsi,QWORD PTR [rbp-0x10]
  20e40f:	48 89 7d e0          	mov    QWORD PTR [rbp-0x20],rdi
  20e413:	48 89 55 d8          	mov    QWORD PTR [rbp-0x28],rdx
  20e417:	48 89 c2             	mov    rdx,rax
  20e41a:	48 8b 45 d8          	mov    rax,QWORD PTR [rbp-0x28]
  20e41e:	ff d0                	call   rax
  20e420:	66 89 45 fe          	mov    WORD PTR [rbp-0x2],ax
  20e424:	66 83 7d fe 00       	cmp    WORD PTR [rbp-0x2],0x0
  20e429:	74 1b                	je     20e446 <format.26+0x56>
  20e42b:	66 8b 45 fe          	mov    ax,WORD PTR [rbp-0x2]
  20e42f:	48 8b 7d e0          	mov    rdi,QWORD PTR [rbp-0x20]
  20e433:	66 89 45 d6          	mov    WORD PTR [rbp-0x2a],ax
  20e437:	e8 54 d8 ff ff       	call   20bc90 <__zig_return_error>
  20e43c:	66 8b 45 d6          	mov    ax,WORD PTR [rbp-0x2a]
  20e440:	48 83 c4 30          	add    rsp,0x30
  20e444:	5d                   	pop    rbp
  20e445:	c3                   	ret    
  20e446:	31 c0                	xor    eax,eax
  20e448:	66 89 c1             	mov    cx,ax
pub fn format(context: var, comptime Errors: type, output: fn (@typeOf(context), []const u8) Errors!void, comptime fmt: []const u8, args: ...) Errors!void {
  20e44b:	66 89 c8             	mov    ax,cx
  20e44e:	48 83 c4 30          	add    rsp,0x30
  20e452:	5d                   	pop    rbp
  20e453:	c3                   	ret    
  20e454:	66 66 66 2e 0f 1f 84 	data16 data16 nop WORD PTR cs:[rax+rax*1+0x0]
  20e45b:	00 00 00 00 00 

000000000020e460 <syscall2>:
          [arg1] "{rdi}" (arg1)
        : "rcx", "r11"
    );
}

pub fn syscall2(number: usize, arg1: usize, arg2: usize) usize {
  20e460:	55                   	push   rbp
  20e461:	48 89 e5             	mov    rbp,rsp
  20e464:	48 89 7d f8          	mov    QWORD PTR [rbp-0x8],rdi
  20e468:	48 89 75 f0          	mov    QWORD PTR [rbp-0x10],rsi
  20e46c:	48 89 55 e8          	mov    QWORD PTR [rbp-0x18],rdx
    return asm volatile ("syscall"
        : [ret] "={rax}" (-> usize)
        : [number] "{rax}" (number),
  20e470:	48 8b 45 f8          	mov    rax,QWORD PTR [rbp-0x8]
          [arg1] "{rdi}" (arg1),
  20e474:	48 8b 7d f0          	mov    rdi,QWORD PTR [rbp-0x10]
          [arg2] "{rsi}" (arg2)
  20e478:	48 8b 75 e8          	mov    rsi,QWORD PTR [rbp-0x18]
    return asm volatile ("syscall"
  20e47c:	0f 05                	syscall 
  20e47e:	5d                   	pop    rbp
  20e47f:	c3                   	ret    

000000000020e480 <format.27>:
  20e480:	55                   	push   rbp
  20e481:	48 89 e5             	mov    rbp,rsp
  20e484:	48 83 ec 50          	sub    rsp,0x50
  20e488:	48 8d 05 a1 4f 03 00 	lea    rax,[rip+0x34fa1]        # 243430 <__unnamed_31>
  20e48f:	48 89 75 e8          	mov    QWORD PTR [rbp-0x18],rsi
  20e493:	48 89 55 e0          	mov    QWORD PTR [rbp-0x20],rdx
  20e497:	48 89 4d d8          	mov    QWORD PTR [rbp-0x28],rcx
  20e49b:	4c 89 45 d0          	mov    QWORD PTR [rbp-0x30],r8
                        try output(context, fmt[start_index..i]);
  20e49f:	48 8b 4d e0          	mov    rcx,QWORD PTR [rbp-0x20]
  20e4a3:	48 8b 75 e8          	mov    rsi,QWORD PTR [rbp-0x18]
  20e4a7:	48 89 7d c8          	mov    QWORD PTR [rbp-0x38],rdi
  20e4ab:	48 89 c2             	mov    rdx,rax
  20e4ae:	ff d1                	call   rcx
  20e4b0:	66 89 45 fe          	mov    WORD PTR [rbp-0x2],ax
  20e4b4:	66 83 7d fe 00       	cmp    WORD PTR [rbp-0x2],0x0
  20e4b9:	74 1b                	je     20e4d6 <format.27+0x56>
  20e4bb:	66 8b 45 fe          	mov    ax,WORD PTR [rbp-0x2]
  20e4bf:	48 8b 7d c8          	mov    rdi,QWORD PTR [rbp-0x38]
  20e4c3:	66 89 45 c6          	mov    WORD PTR [rbp-0x3a],ax
  20e4c7:	e8 c4 d7 ff ff       	call   20bc90 <__zig_return_error>
  20e4cc:	66 8b 45 c6          	mov    ax,WORD PTR [rbp-0x3a]
  20e4d0:	48 83 c4 50          	add    rsp,0x50
  20e4d4:	5d                   	pop    rbp
  20e4d5:	c3                   	ret    
                    try formatType(args[next_arg], fmt[0..0], context, Errors, output);
  20e4d6:	48 8b 75 d8          	mov    rsi,QWORD PTR [rbp-0x28]
  20e4da:	48 8b 55 e8          	mov    rdx,QWORD PTR [rbp-0x18]
  20e4de:	48 8b 4d e0          	mov    rcx,QWORD PTR [rbp-0x20]
  20e4e2:	48 8b 7d c8          	mov    rdi,QWORD PTR [rbp-0x38]
  20e4e6:	e8 e5 00 00 00       	call   20e5d0 <formatType.28>
  20e4eb:	66 89 45 fc          	mov    WORD PTR [rbp-0x4],ax
  20e4ef:	66 83 7d fc 00       	cmp    WORD PTR [rbp-0x4],0x0
  20e4f4:	74 1b                	je     20e511 <format.27+0x91>
  20e4f6:	66 8b 45 fc          	mov    ax,WORD PTR [rbp-0x4]
  20e4fa:	48 8b 7d c8          	mov    rdi,QWORD PTR [rbp-0x38]
  20e4fe:	66 89 45 c4          	mov    WORD PTR [rbp-0x3c],ax
  20e502:	e8 89 d7 ff ff       	call   20bc90 <__zig_return_error>
  20e507:	66 8b 45 c4          	mov    ax,WORD PTR [rbp-0x3c]
  20e50b:	48 83 c4 50          	add    rsp,0x50
  20e50f:	5d                   	pop    rbp
  20e510:	c3                   	ret    
  20e511:	48 8d 15 30 4f 03 00 	lea    rdx,[rip+0x34f30]        # 243448 <__unnamed_32>
                        try output(context, fmt[start_index..i]);
  20e518:	48 8b 45 e0          	mov    rax,QWORD PTR [rbp-0x20]
  20e51c:	48 8b 75 e8          	mov    rsi,QWORD PTR [rbp-0x18]
  20e520:	48 8b 7d c8          	mov    rdi,QWORD PTR [rbp-0x38]
  20e524:	ff d0                	call   rax
  20e526:	66 89 45 fa          	mov    WORD PTR [rbp-0x6],ax
  20e52a:	66 83 7d fa 00       	cmp    WORD PTR [rbp-0x6],0x0
  20e52f:	74 1b                	je     20e54c <format.27+0xcc>
  20e531:	66 8b 45 fa          	mov    ax,WORD PTR [rbp-0x6]
  20e535:	48 8b 7d c8          	mov    rdi,QWORD PTR [rbp-0x38]
  20e539:	66 89 45 c2          	mov    WORD PTR [rbp-0x3e],ax
  20e53d:	e8 4e d7 ff ff       	call   20bc90 <__zig_return_error>
  20e542:	66 8b 45 c2          	mov    ax,WORD PTR [rbp-0x3e]
  20e546:	48 83 c4 50          	add    rsp,0x50
  20e54a:	5d                   	pop    rbp
  20e54b:	c3                   	ret    
                    try formatType(args[next_arg], fmt[0..0], context, Errors, output);
  20e54c:	48 8b 75 d0          	mov    rsi,QWORD PTR [rbp-0x30]
  20e550:	48 8b 55 e8          	mov    rdx,QWORD PTR [rbp-0x18]
  20e554:	48 8b 4d e0          	mov    rcx,QWORD PTR [rbp-0x20]
  20e558:	48 8b 7d c8          	mov    rdi,QWORD PTR [rbp-0x38]
  20e55c:	e8 6f 00 00 00       	call   20e5d0 <formatType.28>
  20e561:	66 89 45 f8          	mov    WORD PTR [rbp-0x8],ax
  20e565:	66 83 7d f8 00       	cmp    WORD PTR [rbp-0x8],0x0
  20e56a:	74 1b                	je     20e587 <format.27+0x107>
  20e56c:	66 8b 45 f8          	mov    ax,WORD PTR [rbp-0x8]
  20e570:	48 8b 7d c8          	mov    rdi,QWORD PTR [rbp-0x38]
  20e574:	66 89 45 c0          	mov    WORD PTR [rbp-0x40],ax
  20e578:	e8 13 d7 ff ff       	call   20bc90 <__zig_return_error>
  20e57d:	66 8b 45 c0          	mov    ax,WORD PTR [rbp-0x40]
  20e581:	48 83 c4 50          	add    rsp,0x50
  20e585:	5d                   	pop    rbp
  20e586:	c3                   	ret    
  20e587:	48 8d 15 d2 4e 03 00 	lea    rdx,[rip+0x34ed2]        # 243460 <__unnamed_33>
        try output(context, fmt[start_index..]);
  20e58e:	48 8b 45 e0          	mov    rax,QWORD PTR [rbp-0x20]
  20e592:	48 8b 75 e8          	mov    rsi,QWORD PTR [rbp-0x18]
  20e596:	48 8b 7d c8          	mov    rdi,QWORD PTR [rbp-0x38]
  20e59a:	ff d0                	call   rax
  20e59c:	66 89 45 f6          	mov    WORD PTR [rbp-0xa],ax
  20e5a0:	66 83 7d f6 00       	cmp    WORD PTR [rbp-0xa],0x0
  20e5a5:	74 1b                	je     20e5c2 <format.27+0x142>
  20e5a7:	66 8b 45 f6          	mov    ax,WORD PTR [rbp-0xa]
  20e5ab:	48 8b 7d c8          	mov    rdi,QWORD PTR [rbp-0x38]
  20e5af:	66 89 45 be          	mov    WORD PTR [rbp-0x42],ax
  20e5b3:	e8 d8 d6 ff ff       	call   20bc90 <__zig_return_error>
  20e5b8:	66 8b 45 be          	mov    ax,WORD PTR [rbp-0x42]
  20e5bc:	48 83 c4 50          	add    rsp,0x50
  20e5c0:	5d                   	pop    rbp
  20e5c1:	c3                   	ret    
  20e5c2:	31 c0                	xor    eax,eax
  20e5c4:	66 89 c1             	mov    cx,ax
pub fn format(context: var, comptime Errors: type, output: fn (@typeOf(context), []const u8) Errors!void, comptime fmt: []const u8, args: ...) Errors!void {
  20e5c7:	66 89 c8             	mov    ax,cx
  20e5ca:	48 83 c4 50          	add    rsp,0x50
  20e5ce:	5d                   	pop    rbp
  20e5cf:	c3                   	ret    

000000000020e5d0 <formatType.28>:
pub fn formatType(
  20e5d0:	55                   	push   rbp
  20e5d1:	48 89 e5             	mov    rbp,rsp
  20e5d4:	48 83 ec 30          	sub    rsp,0x30
  20e5d8:	48 89 75 f8          	mov    QWORD PTR [rbp-0x8],rsi
  20e5dc:	48 89 55 f0          	mov    QWORD PTR [rbp-0x10],rdx
  20e5e0:	48 89 4d e8          	mov    QWORD PTR [rbp-0x18],rcx
            return formatValue(value, fmt, context, Errors, output);
  20e5e4:	48 8b 75 f8          	mov    rsi,QWORD PTR [rbp-0x8]
  20e5e8:	48 8b 55 f0          	mov    rdx,QWORD PTR [rbp-0x10]
  20e5ec:	48 8b 4d e8          	mov    rcx,QWORD PTR [rbp-0x18]
  20e5f0:	48 89 7d e0          	mov    QWORD PTR [rbp-0x20],rdi
  20e5f4:	e8 77 7a 01 00       	call   226070 <formatValue>
  20e5f9:	66 83 f8 00          	cmp    ax,0x0
  20e5fd:	66 89 45 de          	mov    WORD PTR [rbp-0x22],ax
  20e601:	74 0b                	je     20e60e <formatType.28+0x3e>
  20e603:	48 8b 7d e0          	mov    rdi,QWORD PTR [rbp-0x20]
  20e607:	e8 84 d6 ff ff       	call   20bc90 <__zig_return_error>
  20e60c:	eb 02                	jmp    20e610 <formatType.28+0x40>
  20e60e:	eb 00                	jmp    20e610 <formatType.28+0x40>
  20e610:	66 8b 45 de          	mov    ax,WORD PTR [rbp-0x22]
  20e614:	48 83 c4 30          	add    rsp,0x30
  20e618:	5d                   	pop    rbp
  20e619:	c3                   	ret    
  20e61a:	66 0f 1f 44 00 00    	nop    WORD PTR [rax+rax*1+0x0]

000000000020e620 <syscall4>:
          [arg3] "{rdx}" (arg3)
        : "rcx", "r11"
    );
}

pub fn syscall4(number: usize, arg1: usize, arg2: usize, arg3: usize, arg4: usize) usize {
  20e620:	55                   	push   rbp
  20e621:	48 89 e5             	mov    rbp,rsp
  20e624:	48 89 7d f8          	mov    QWORD PTR [rbp-0x8],rdi
  20e628:	48 89 75 f0          	mov    QWORD PTR [rbp-0x10],rsi
  20e62c:	48 89 55 e8          	mov    QWORD PTR [rbp-0x18],rdx
  20e630:	48 89 4d e0          	mov    QWORD PTR [rbp-0x20],rcx
  20e634:	4c 89 45 d8          	mov    QWORD PTR [rbp-0x28],r8
    return asm volatile ("syscall"
        : [ret] "={rax}" (-> usize)
        : [number] "{rax}" (number),
  20e638:	48 8b 45 f8          	mov    rax,QWORD PTR [rbp-0x8]
          [arg1] "{rdi}" (arg1),
  20e63c:	48 8b 7d f0          	mov    rdi,QWORD PTR [rbp-0x10]
          [arg2] "{rsi}" (arg2),
  20e640:	48 8b 75 e8          	mov    rsi,QWORD PTR [rbp-0x18]
          [arg3] "{rdx}" (arg3),
  20e644:	48 8b 55 e0          	mov    rdx,QWORD PTR [rbp-0x20]
          [arg4] "{r10}" (arg4)
  20e648:	4c 8b 55 d8          	mov    r10,QWORD PTR [rbp-0x28]
    return asm volatile ("syscall"
  20e64c:	0f 05                	syscall 
  20e64e:	5d                   	pop    rbp
  20e64f:	c3                   	ret    

000000000020e650 <syscall6>:
          [arg5] "{r8}" (arg5)
        : "rcx", "r11"
    );
}

pub fn syscall6(
  20e650:	55                   	push   rbp
  20e651:	48 89 e5             	mov    rbp,rsp
  20e654:	48 8b 45 10          	mov    rax,QWORD PTR [rbp+0x10]
  20e658:	48 89 7d f8          	mov    QWORD PTR [rbp-0x8],rdi
  20e65c:	48 89 75 f0          	mov    QWORD PTR [rbp-0x10],rsi
  20e660:	48 89 55 e8          	mov    QWORD PTR [rbp-0x18],rdx
  20e664:	48 89 4d e0          	mov    QWORD PTR [rbp-0x20],rcx
  20e668:	4c 89 45 d8          	mov    QWORD PTR [rbp-0x28],r8
  20e66c:	4c 89 4d d0          	mov    QWORD PTR [rbp-0x30],r9
    arg5: usize,
    arg6: usize,
) usize {
    return asm volatile ("syscall"
        : [ret] "={rax}" (-> usize)
        : [number] "{rax}" (number),
  20e670:	48 8b 4d f8          	mov    rcx,QWORD PTR [rbp-0x8]
          [arg1] "{rdi}" (arg1),
  20e674:	48 8b 7d f0          	mov    rdi,QWORD PTR [rbp-0x10]
          [arg2] "{rsi}" (arg2),
  20e678:	48 8b 75 e8          	mov    rsi,QWORD PTR [rbp-0x18]
          [arg3] "{rdx}" (arg3),
  20e67c:	48 8b 55 e0          	mov    rdx,QWORD PTR [rbp-0x20]
          [arg4] "{r10}" (arg4),
  20e680:	4c 8b 55 d8          	mov    r10,QWORD PTR [rbp-0x28]
          [arg5] "{r8}" (arg5),
  20e684:	4c 8b 45 d0          	mov    r8,QWORD PTR [rbp-0x30]
          [arg6] "{r9}" (arg6)
  20e688:	4c 8b 4d 10          	mov    r9,QWORD PTR [rbp+0x10]
    return asm volatile ("syscall"
  20e68c:	48 89 45 c8          	mov    QWORD PTR [rbp-0x38],rax
  20e690:	48 89 c8             	mov    rax,rcx
  20e693:	0f 05                	syscall 
  20e695:	5d                   	pop    rbp
  20e696:	c3                   	ret    
  20e697:	66 0f 1f 84 00 00 00 	nop    WORD PTR [rax+rax*1+0x0]
  20e69e:	00 00 

000000000020e6a0 <syscall4.29>:
pub fn syscall4(number: usize, arg1: usize, arg2: usize, arg3: usize, arg4: usize) usize {
  20e6a0:	55                   	push   rbp
  20e6a1:	48 89 e5             	mov    rbp,rsp
  20e6a4:	48 89 7d f8          	mov    QWORD PTR [rbp-0x8],rdi
  20e6a8:	48 89 75 f0          	mov    QWORD PTR [rbp-0x10],rsi
  20e6ac:	48 89 55 e8          	mov    QWORD PTR [rbp-0x18],rdx
  20e6b0:	48 89 4d e0          	mov    QWORD PTR [rbp-0x20],rcx
  20e6b4:	4c 89 45 d8          	mov    QWORD PTR [rbp-0x28],r8
        : [number] "{rax}" (number),
  20e6b8:	48 8b 45 f8          	mov    rax,QWORD PTR [rbp-0x8]
          [arg1] "{rdi}" (arg1),
  20e6bc:	48 8b 7d f0          	mov    rdi,QWORD PTR [rbp-0x10]
          [arg2] "{rsi}" (arg2),
  20e6c0:	48 8b 75 e8          	mov    rsi,QWORD PTR [rbp-0x18]
          [arg3] "{rdx}" (arg3),
  20e6c4:	48 8b 55 e0          	mov    rdx,QWORD PTR [rbp-0x20]
          [arg4] "{r10}" (arg4)
  20e6c8:	4c 8b 55 d8          	mov    r10,QWORD PTR [rbp-0x28]
    return asm volatile ("syscall"
  20e6cc:	0f 05                	syscall 
  20e6ce:	5d                   	pop    rbp
  20e6cf:	c3                   	ret    

000000000020e6d0 <format.30>:
pub fn format(context: var, comptime Errors: type, output: fn (@typeOf(context), []const u8) Errors!void, comptime fmt: []const u8, args: ...) Errors!void {
  20e6d0:	55                   	push   rbp
  20e6d1:	48 89 e5             	mov    rbp,rsp
  20e6d4:	48 83 ec 40          	sub    rsp,0x40
  20e6d8:	48 8d 05 99 4d 03 00 	lea    rax,[rip+0x34d99]        # 243478 <__unnamed_34>
  20e6df:	48 89 75 f0          	mov    QWORD PTR [rbp-0x10],rsi
  20e6e3:	48 89 55 e8          	mov    QWORD PTR [rbp-0x18],rdx
  20e6e7:	c5 fb 11 45 e0       	vmovsd QWORD PTR [rbp-0x20],xmm0
                        try output(context, fmt[start_index..i]);
  20e6ec:	48 8b 55 e8          	mov    rdx,QWORD PTR [rbp-0x18]
  20e6f0:	48 8b 75 f0          	mov    rsi,QWORD PTR [rbp-0x10]
  20e6f4:	48 89 7d d8          	mov    QWORD PTR [rbp-0x28],rdi
  20e6f8:	48 89 55 d0          	mov    QWORD PTR [rbp-0x30],rdx
  20e6fc:	48 89 c2             	mov    rdx,rax
  20e6ff:	48 8b 45 d0          	mov    rax,QWORD PTR [rbp-0x30]
  20e703:	ff d0                	call   rax
  20e705:	66 89 45 fe          	mov    WORD PTR [rbp-0x2],ax
  20e709:	66 83 7d fe 00       	cmp    WORD PTR [rbp-0x2],0x0
  20e70e:	74 1b                	je     20e72b <format.30+0x5b>
  20e710:	66 8b 45 fe          	mov    ax,WORD PTR [rbp-0x2]
  20e714:	48 8b 7d d8          	mov    rdi,QWORD PTR [rbp-0x28]
  20e718:	66 89 45 ce          	mov    WORD PTR [rbp-0x32],ax
  20e71c:	e8 6f d5 ff ff       	call   20bc90 <__zig_return_error>
  20e721:	66 8b 45 ce          	mov    ax,WORD PTR [rbp-0x32]
  20e725:	48 83 c4 40          	add    rsp,0x40
  20e729:	5d                   	pop    rbp
  20e72a:	c3                   	ret    
                    try formatType(args[next_arg], fmt[s..i], context, Errors, output);
  20e72b:	c5 fb 10 45 e0       	vmovsd xmm0,QWORD PTR [rbp-0x20]
  20e730:	48 8b 75 f0          	mov    rsi,QWORD PTR [rbp-0x10]
  20e734:	48 8b 55 e8          	mov    rdx,QWORD PTR [rbp-0x18]
  20e738:	48 8b 7d d8          	mov    rdi,QWORD PTR [rbp-0x28]
  20e73c:	e8 6f 00 00 00       	call   20e7b0 <formatType.31>
  20e741:	66 89 45 fc          	mov    WORD PTR [rbp-0x4],ax
  20e745:	66 83 7d fc 00       	cmp    WORD PTR [rbp-0x4],0x0
  20e74a:	74 1b                	je     20e767 <format.30+0x97>
  20e74c:	66 8b 45 fc          	mov    ax,WORD PTR [rbp-0x4]
  20e750:	48 8b 7d d8          	mov    rdi,QWORD PTR [rbp-0x28]
  20e754:	66 89 45 cc          	mov    WORD PTR [rbp-0x34],ax
  20e758:	e8 33 d5 ff ff       	call   20bc90 <__zig_return_error>
  20e75d:	66 8b 45 cc          	mov    ax,WORD PTR [rbp-0x34]
  20e761:	48 83 c4 40          	add    rsp,0x40
  20e765:	5d                   	pop    rbp
  20e766:	c3                   	ret    
  20e767:	48 8d 15 22 4d 03 00 	lea    rdx,[rip+0x34d22]        # 243490 <__unnamed_35>
        try output(context, fmt[start_index..]);
  20e76e:	48 8b 45 e8          	mov    rax,QWORD PTR [rbp-0x18]
  20e772:	48 8b 75 f0          	mov    rsi,QWORD PTR [rbp-0x10]
  20e776:	48 8b 7d d8          	mov    rdi,QWORD PTR [rbp-0x28]
  20e77a:	ff d0                	call   rax
  20e77c:	66 89 45 fa          	mov    WORD PTR [rbp-0x6],ax
  20e780:	66 83 7d fa 00       	cmp    WORD PTR [rbp-0x6],0x0
  20e785:	74 1b                	je     20e7a2 <format.30+0xd2>
  20e787:	66 8b 45 fa          	mov    ax,WORD PTR [rbp-0x6]
  20e78b:	48 8b 7d d8          	mov    rdi,QWORD PTR [rbp-0x28]
  20e78f:	66 89 45 ca          	mov    WORD PTR [rbp-0x36],ax
  20e793:	e8 f8 d4 ff ff       	call   20bc90 <__zig_return_error>
  20e798:	66 8b 45 ca          	mov    ax,WORD PTR [rbp-0x36]
  20e79c:	48 83 c4 40          	add    rsp,0x40
  20e7a0:	5d                   	pop    rbp
  20e7a1:	c3                   	ret    
  20e7a2:	31 c0                	xor    eax,eax
  20e7a4:	66 89 c1             	mov    cx,ax
pub fn format(context: var, comptime Errors: type, output: fn (@typeOf(context), []const u8) Errors!void, comptime fmt: []const u8, args: ...) Errors!void {
  20e7a7:	66 89 c8             	mov    ax,cx
  20e7aa:	48 83 c4 40          	add    rsp,0x40
  20e7ae:	5d                   	pop    rbp
  20e7af:	c3                   	ret    

000000000020e7b0 <formatType.31>:
pub fn formatType(
  20e7b0:	55                   	push   rbp
  20e7b1:	48 89 e5             	mov    rbp,rsp
  20e7b4:	48 83 ec 30          	sub    rsp,0x30
  20e7b8:	c5 fb 11 45 f8       	vmovsd QWORD PTR [rbp-0x8],xmm0
  20e7bd:	48 89 75 f0          	mov    QWORD PTR [rbp-0x10],rsi
  20e7c1:	48 89 55 e8          	mov    QWORD PTR [rbp-0x18],rdx
            return formatValue(value, fmt, context, Errors, output);
  20e7c5:	c5 fb 10 45 f8       	vmovsd xmm0,QWORD PTR [rbp-0x8]
  20e7ca:	48 8b 75 f0          	mov    rsi,QWORD PTR [rbp-0x10]
  20e7ce:	48 8b 55 e8          	mov    rdx,QWORD PTR [rbp-0x18]
  20e7d2:	48 89 7d e0          	mov    QWORD PTR [rbp-0x20],rdi
  20e7d6:	e8 e5 78 01 00       	call   2260c0 <formatValue.96>
  20e7db:	66 83 f8 00          	cmp    ax,0x0
  20e7df:	66 89 45 de          	mov    WORD PTR [rbp-0x22],ax
  20e7e3:	74 0b                	je     20e7f0 <formatType.31+0x40>
  20e7e5:	48 8b 7d e0          	mov    rdi,QWORD PTR [rbp-0x20]
  20e7e9:	e8 a2 d4 ff ff       	call   20bc90 <__zig_return_error>
  20e7ee:	eb 02                	jmp    20e7f2 <formatType.31+0x42>
  20e7f0:	eb 00                	jmp    20e7f2 <formatType.31+0x42>
  20e7f2:	66 8b 45 de          	mov    ax,WORD PTR [rbp-0x22]
  20e7f6:	48 83 c4 30          	add    rsp,0x30
  20e7fa:	5d                   	pop    rbp
  20e7fb:	c3                   	ret    
  20e7fc:	0f 1f 40 00          	nop    DWORD PTR [rax+0x0]

000000000020e800 <blockAppSignals>:

fn blockAllSignals(set: *sigset_t) void {
    _ = syscall4(SYS_rt_sigprocmask, SIG_BLOCK, @ptrToInt(&all_mask), @ptrToInt(set), NSIG / 8);
}

fn blockAppSignals(set: *sigset_t) void {
  20e800:	55                   	push   rbp
  20e801:	48 89 e5             	mov    rbp,rsp
  20e804:	48 83 ec 20          	sub    rsp,0x20
  20e808:	b8 0e 00 00 00       	mov    eax,0xe
  20e80d:	89 c1                	mov    ecx,eax
  20e80f:	31 c0                	xor    eax,eax
  20e811:	89 c6                	mov    esi,eax
  20e813:	48 8d 15 26 24 ff ff 	lea    rdx,[rip+0xffffffffffff2426]        # 200c40 <app_mask>
  20e81a:	b8 08 00 00 00       	mov    eax,0x8
  20e81f:	41 89 c0             	mov    r8d,eax
  20e822:	48 89 7d f8          	mov    QWORD PTR [rbp-0x8],rdi
    _ = syscall4(SYS_rt_sigprocmask, SIG_BLOCK, @ptrToInt(&app_mask), @ptrToInt(set), NSIG / 8);
  20e826:	48 8b 7d f8          	mov    rdi,QWORD PTR [rbp-0x8]
  20e82a:	48 89 7d f0          	mov    QWORD PTR [rbp-0x10],rdi
  20e82e:	48 89 cf             	mov    rdi,rcx
  20e831:	48 8b 4d f0          	mov    rcx,QWORD PTR [rbp-0x10]
  20e835:	e8 66 fe ff ff       	call   20e6a0 <syscall4.29>
fn blockAppSignals(set: *sigset_t) void {
  20e83a:	48 89 45 e8          	mov    QWORD PTR [rbp-0x18],rax
  20e83e:	48 83 c4 20          	add    rsp,0x20
  20e842:	5d                   	pop    rbp
  20e843:	c3                   	ret    
  20e844:	66 66 66 2e 0f 1f 84 	data16 data16 nop WORD PTR cs:[rax+rax*1+0x0]
  20e84b:	00 00 00 00 00 

000000000020e850 <syscall0>:
pub fn syscall0(number: usize) usize {
  20e850:	55                   	push   rbp
  20e851:	48 89 e5             	mov    rbp,rsp
  20e854:	48 89 7d f8          	mov    QWORD PTR [rbp-0x8],rdi
        : [number] "{rax}" (number)
  20e858:	48 8b 45 f8          	mov    rax,QWORD PTR [rbp-0x8]
    return asm volatile ("syscall"
  20e85c:	0f 05                	syscall 
  20e85e:	5d                   	pop    rbp
  20e85f:	c3                   	ret    

000000000020e860 <restoreSignals>:
}

fn restoreSignals(set: *sigset_t) void {
  20e860:	55                   	push   rbp
  20e861:	48 89 e5             	mov    rbp,rsp
  20e864:	48 83 ec 20          	sub    rsp,0x20
  20e868:	b8 0e 00 00 00       	mov    eax,0xe
  20e86d:	89 c1                	mov    ecx,eax
  20e86f:	b8 02 00 00 00       	mov    eax,0x2
  20e874:	89 c6                	mov    esi,eax
  20e876:	31 c0                	xor    eax,eax
  20e878:	89 c2                	mov    edx,eax
  20e87a:	b8 08 00 00 00       	mov    eax,0x8
  20e87f:	41 89 c0             	mov    r8d,eax
  20e882:	48 89 7d f8          	mov    QWORD PTR [rbp-0x8],rdi
    _ = syscall4(SYS_rt_sigprocmask, SIG_SETMASK, @ptrToInt(set), 0, NSIG / 8);
  20e886:	48 8b 7d f8          	mov    rdi,QWORD PTR [rbp-0x8]
  20e88a:	48 89 7d f0          	mov    QWORD PTR [rbp-0x10],rdi
  20e88e:	48 89 cf             	mov    rdi,rcx
  20e891:	48 8b 4d f0          	mov    rcx,QWORD PTR [rbp-0x10]
  20e895:	48 89 55 e8          	mov    QWORD PTR [rbp-0x18],rdx
  20e899:	48 89 ca             	mov    rdx,rcx
  20e89c:	48 8b 4d e8          	mov    rcx,QWORD PTR [rbp-0x18]
  20e8a0:	e8 fb fd ff ff       	call   20e6a0 <syscall4.29>
fn restoreSignals(set: *sigset_t) void {
  20e8a5:	48 89 45 e0          	mov    QWORD PTR [rbp-0x20],rax
  20e8a9:	48 83 c4 20          	add    rsp,0x20
  20e8ad:	5d                   	pop    rbp
  20e8ae:	c3                   	ret    
  20e8af:	90                   	nop

000000000020e8b0 <File_write>:
        }
    }

    pub const WriteError = os.WindowsWriteError || os.PosixWriteError;

    pub fn write(self: *File, bytes: []const u8) WriteError!void {
  20e8b0:	55                   	push   rbp
  20e8b1:	48 89 e5             	mov    rbp,rsp
  20e8b4:	48 83 ec 20          	sub    rsp,0x20
  20e8b8:	48 89 75 f0          	mov    QWORD PTR [rbp-0x10],rsi
        if (is_posix) {
            try os.posixWrite(self.handle, bytes);
  20e8bc:	48 8b 75 f0          	mov    rsi,QWORD PTR [rbp-0x10]
  20e8c0:	8b 36                	mov    esi,DWORD PTR [rsi]
  20e8c2:	48 89 7d e8          	mov    QWORD PTR [rbp-0x18],rdi
  20e8c6:	e8 35 00 00 00       	call   20e900 <posixWrite>
  20e8cb:	66 89 45 fe          	mov    WORD PTR [rbp-0x2],ax
  20e8cf:	66 83 7d fe 00       	cmp    WORD PTR [rbp-0x2],0x0
  20e8d4:	74 1b                	je     20e8f1 <File_write+0x41>
  20e8d6:	66 8b 45 fe          	mov    ax,WORD PTR [rbp-0x2]
  20e8da:	48 8b 7d e8          	mov    rdi,QWORD PTR [rbp-0x18]
  20e8de:	66 89 45 e6          	mov    WORD PTR [rbp-0x1a],ax
  20e8e2:	e8 a9 d3 ff ff       	call   20bc90 <__zig_return_error>
  20e8e7:	66 8b 45 e6          	mov    ax,WORD PTR [rbp-0x1a]
  20e8eb:	48 83 c4 20          	add    rsp,0x20
  20e8ef:	5d                   	pop    rbp
  20e8f0:	c3                   	ret    
  20e8f1:	31 c0                	xor    eax,eax
  20e8f3:	66 89 c1             	mov    cx,ax
    pub fn write(self: *File, bytes: []const u8) WriteError!void {
  20e8f6:	66 89 c8             	mov    ax,cx
  20e8f9:	48 83 c4 20          	add    rsp,0x20
  20e8fd:	5d                   	pop    rbp
  20e8fe:	c3                   	ret    
  20e8ff:	90                   	nop

000000000020e900 <posixWrite>:
pub fn posixWrite(fd: i32, bytes: []const u8) !void {
  20e900:	55                   	push   rbp
  20e901:	48 89 e5             	mov    rbp,rsp
  20e904:	48 81 ec d0 00 00 00 	sub    rsp,0xd0
  20e90b:	89 75 fc             	mov    DWORD PTR [rbp-0x4],esi
    var index: usize = 0;
  20e90e:	48 c7 45 f0 00 00 00 	mov    QWORD PTR [rbp-0x10],0x0
  20e915:	00 
  20e916:	48 89 7d d0          	mov    QWORD PTR [rbp-0x30],rdi
  20e91a:	48 89 55 c8          	mov    QWORD PTR [rbp-0x38],rdx
    while (index < bytes.len) {
  20e91e:	48 8b 45 f0          	mov    rax,QWORD PTR [rbp-0x10]
  20e922:	48 8b 4d c8          	mov    rcx,QWORD PTR [rbp-0x38]
  20e926:	48 3b 41 08          	cmp    rax,QWORD PTR [rcx+0x8]
  20e92a:	0f 83 08 02 00 00    	jae    20eb38 <posixWrite+0x238>
        const amt_to_write = math.min(bytes.len - index, usize(max_bytes_len));
  20e930:	48 8b 45 c8          	mov    rax,QWORD PTR [rbp-0x38]
  20e934:	48 8b 48 08          	mov    rcx,QWORD PTR [rax+0x8]
  20e938:	48 2b 4d f0          	sub    rcx,QWORD PTR [rbp-0x10]
  20e93c:	0f 92 c2             	setb   dl
  20e93f:	48 89 4d c0          	mov    QWORD PTR [rbp-0x40],rcx
  20e943:	88 55 bf             	mov    BYTE PTR [rbp-0x41],dl
  20e946:	0f 82 fd 01 00 00    	jb     20eb49 <posixWrite+0x249>
  20e94c:	e9 08 02 00 00       	jmp    20eb59 <posixWrite+0x259>
            return switch (write_err) {
  20e951:	48 8b 45 d8          	mov    rax,QWORD PTR [rbp-0x28]
  20e955:	48 89 c1             	mov    rcx,rax
  20e958:	48 83 e9 01          	sub    rcx,0x1
  20e95c:	48 89 45 b0          	mov    QWORD PTR [rbp-0x50],rax
