
./zig-cache/test:     file format elf64-x86-64


Disassembly of section .text:

0000000000203000 <assert>:
/// This function invokes undefined behavior when `ok` is `false`.
/// In Debug and ReleaseSafe modes, calls to this function are always
/// generated, and the `unreachable` statement triggers a panic.
/// In ReleaseFast and ReleaseSmall modes, calls to this function can be
/// optimized away.
pub fn assert(ok: bool) void {
  203000:	55                   	push   rbp
  203001:	48 89 e5             	mov    rbp,rsp
  203004:	48 83 ec 10          	sub    rsp,0x10
  203008:	40 88 f8             	mov    al,dil
  20300b:	24 01                	and    al,0x1
  20300d:	88 45 ff             	mov    BYTE PTR [rbp-0x1],al
    if (!ok) {
  203010:	8a 45 ff             	mov    al,BYTE PTR [rbp-0x1]
  203013:	84 c0                	test   al,al
  203015:	75 12                	jne    203029 <assert+0x29>
  203017:	eb 00                	jmp    203019 <assert+0x19>
  203019:	48 8d 3d 10 23 02 00 	lea    rdi,[rip+0x22310]        # 225330 <__unnamed_1>
  203020:	31 c0                	xor    eax,eax
  203022:	89 c6                	mov    esi,eax
        // In ReleaseFast test mode, we still want assert(false) to crash, so
        // we insert an explicit call to @panic instead of unreachable.
        // TODO we should use `assertOrPanic` in tests and remove this logic.
        if (builtin.is_test) {
            @panic("assertion failure");
  203024:	e8 97 00 00 00       	call   2030c0 <panic>
    if (!ok) {
  203029:	eb 00                	jmp    20302b <assert+0x2b>
pub fn assert(ok: bool) void {
  20302b:	48 83 c4 10          	add    rsp,0x10
  20302f:	5d                   	pop    rbp
  203030:	c3                   	ret    
  203031:	66 66 66 66 66 66 2e 	data16 data16 data16 data16 data16 nop WORD PTR cs:[rax+rax*1+0x0]
  203038:	0f 1f 84 00 00 00 00 
  20303f:	00 

0000000000203040 <loop_opt>:
        val = @atomicLoad(u32, &gValue, AtomicOrder.SeqCst);
    }
    return val;
}

test "loop_opt" {
  203040:	55                   	push   rbp
  203041:	48 89 e5             	mov    rbp,rsp
  203044:	48 83 ec 40          	sub    rsp,0x40
  203048:	48 8d 7d e8          	lea    rdi,[rbp-0x18]
  20304c:	b8 4e 61 bc 00       	mov    eax,0xbc614e
  203051:	89 c6                	mov    esi,eax
    var prng = std.rand.DefaultPrng.init(12345678);
  203053:	e8 a8 01 00 00       	call   203200 <Xoroshiro128_init>
  203058:	48 8d 7d d0          	lea    rdi,[rbp-0x30]
  20305c:	48 8b 75 e8          	mov    rsi,QWORD PTR [rbp-0x18]
  203060:	48 89 75 d0          	mov    QWORD PTR [rbp-0x30],rsi
  203064:	48 8b 75 f0          	mov    rsi,QWORD PTR [rbp-0x10]
  203068:	48 89 75 d8          	mov    QWORD PTR [rbp-0x28],rsi
  20306c:	48 8b 75 f8          	mov    rsi,QWORD PTR [rbp-0x8]
  203070:	48 89 75 e0          	mov    QWORD PTR [rbp-0x20],rsi
    setValue(prng.random.scalar(u32));
  203074:	e8 f7 01 00 00       	call   203270 <Random_scalar>
  203079:	89 c7                	mov    edi,eax
  20307b:	e8 70 02 00 00       	call   2032f0 <setValue>
  203080:	bf 01 00 00 00       	mov    edi,0x1
  203085:	b8 e8 03 00 00       	mov    eax,0x3e8
  20308a:	89 c6                	mov    esi,eax

    var new_value = waitWhileExpectedValue(1, 1000);
  20308c:	e8 7f 02 00 00       	call   203310 <waitWhileExpectedValue>
  203091:	89 45 cc             	mov    DWORD PTR [rbp-0x34],eax
    warn("new_value={}\n", new_value);
  203094:	8b 7d cc             	mov    edi,DWORD PTR [rbp-0x34]
  203097:	e8 34 03 00 00       	call   2033d0 <warn>
    assert(new_value != 1);
  20309c:	83 7d cc 01          	cmp    DWORD PTR [rbp-0x34],0x1
  2030a0:	0f 95 c1             	setne  cl
  2030a3:	0f b6 f9             	movzx  edi,cl
  2030a6:	e8 55 ff ff ff       	call   203000 <assert>
  2030ab:	31 c0                	xor    eax,eax
  2030ad:	66 89 c2             	mov    dx,ax
test "loop_opt" {
  2030b0:	66 89 d0             	mov    ax,dx
  2030b3:	48 83 c4 40          	add    rsp,0x40
  2030b7:	5d                   	pop    rbp
  2030b8:	c3                   	ret    
  2030b9:	0f 1f 80 00 00 00 00 	nop    DWORD PTR [rax+0x0]

00000000002030c0 <panic>:
// have to be added in the compiler.

const builtin = @import("builtin");
const std = @import("std");

pub fn panic(msg: []const u8, error_return_trace: ?*builtin.StackTrace) noreturn {
  2030c0:	55                   	push   rbp
  2030c1:	48 89 e5             	mov    rbp,rsp
  2030c4:	48 83 ec 30          	sub    rsp,0x30
  2030c8:	48 8d 45 f0          	lea    rax,[rbp-0x10]
  2030cc:	48 89 75 e8          	mov    QWORD PTR [rbp-0x18],rsi
        // TODO: fix panic in zen.
        builtin.Os.freestanding, builtin.Os.zen => {
            while (true) {}
        },
        else => {
            const first_trace_addr = @ptrToInt(@returnAddress());
  2030d0:	48 8b 75 08          	mov    rsi,QWORD PTR [rbp+0x8]
  2030d4:	48 89 75 e0          	mov    QWORD PTR [rbp-0x20],rsi
            std.debug.panicExtra(error_return_trace, first_trace_addr, "{}", msg);
  2030d8:	48 8b 75 e8          	mov    rsi,QWORD PTR [rbp-0x18]
  2030dc:	48 8b 4d e0          	mov    rcx,QWORD PTR [rbp-0x20]
  2030e0:	48 89 4d f0          	mov    QWORD PTR [rbp-0x10],rcx
  2030e4:	c6 45 f8 01          	mov    BYTE PTR [rbp-0x8],0x1
  2030e8:	48 89 7d d8          	mov    QWORD PTR [rbp-0x28],rdi
  2030ec:	48 89 f7             	mov    rdi,rsi
  2030ef:	48 89 c6             	mov    rsi,rax
  2030f2:	48 8b 55 d8          	mov    rdx,QWORD PTR [rbp-0x28]
  2030f6:	e8 05 00 00 00       	call   203100 <panicExtra>
  2030fb:	0f 1f 44 00 00       	nop    DWORD PTR [rax+rax*1+0x0]

0000000000203100 <panicExtra>:
    panicExtra(null, first_trace_addr, format, args);
}

var panicking: u8 = 0; // TODO make this a bool

pub fn panicExtra(trace: ?*const builtin.StackTrace, first_trace_addr: ?usize, comptime format: []const u8, args: ...) noreturn {
  203100:	55                   	push   rbp
  203101:	48 89 e5             	mov    rbp,rsp
  203104:	48 81 ec 60 01 00 00 	sub    rsp,0x160
  20310b:	48 c7 85 f8 fe ff ff 	mov    QWORD PTR [rbp-0x108],0x0
  203112:	00 00 00 00 
  203116:	48 8d 85 10 ff ff ff 	lea    rax,[rbp-0xf0]
  20311d:	48 89 85 00 ff ff ff 	mov    QWORD PTR [rbp-0x100],rax
  203124:	48 c7 85 08 ff ff ff 	mov    QWORD PTR [rbp-0xf8],0x1e
  20312b:	1e 00 00 00 
  20312f:	48 89 bd c8 fe ff ff 	mov    QWORD PTR [rbp-0x138],rdi
    @setCold(true);

    if (@atomicRmw(u8, &panicking, builtin.AtomicRmwOp.Xchg, 1, builtin.AtomicOrder.SeqCst) == 1) {
  203136:	b1 01                	mov    cl,0x1
  203138:	86 0d c2 2e 02 00    	xchg   BYTE PTR [rip+0x22ec2],cl        # 226000 <panicking>
  20313e:	80 f9 01             	cmp    cl,0x1
  203141:	48 89 b5 b0 fe ff ff 	mov    QWORD PTR [rbp-0x150],rsi
  203148:	48 89 95 a8 fe ff ff 	mov    QWORD PTR [rbp-0x158],rdx
  20314f:	75 05                	jne    203156 <panicExtra+0x56>
        // Panicked during a panic.

        // TODO detect if a different thread caused the panic, because in that case
        // we would want to return here instead of calling abort, so that the thread
        // which first called panic can finish printing a stack trace.
        os.abort();
  203151:	e8 3a 03 00 00       	call   203490 <abort>
    if (@atomicRmw(u8, &panicking, builtin.AtomicRmwOp.Xchg, 1, builtin.AtomicOrder.SeqCst) == 1) {
  203156:	eb 00                	jmp    203158 <panicExtra+0x58>
  203158:	48 8d bd e8 fe ff ff 	lea    rdi,[rbp-0x118]
  20315f:	48 8d b5 f8 fe ff ff 	lea    rsi,[rbp-0x108]
    }
    const stderr = getStderrStream() catch os.abort();
  203166:	e8 55 03 00 00       	call   2034c0 <getStderrStream>
  20316b:	66 83 bd e8 fe ff ff 	cmp    WORD PTR [rbp-0x118],0x0
  203172:	00 
  203173:	74 05                	je     20317a <panicExtra+0x7a>
  203175:	e8 16 03 00 00       	call   203490 <abort>
  20317a:	48 8b 85 f0 fe ff ff 	mov    rax,QWORD PTR [rbp-0x110]
  203181:	48 89 85 a0 fe ff ff 	mov    QWORD PTR [rbp-0x160],rax
  203188:	48 8d bd f8 fe ff ff 	lea    rdi,[rbp-0x108]
  20318f:	48 8b 85 a0 fe ff ff 	mov    rax,QWORD PTR [rbp-0x160]
  203196:	48 89 85 c0 fe ff ff 	mov    QWORD PTR [rbp-0x140],rax
    stderr.print(format ++ "\n", args) catch os.abort();
  20319d:	48 8b b5 c0 fe ff ff 	mov    rsi,QWORD PTR [rbp-0x140]
  2031a4:	48 8b 95 a8 fe ff ff 	mov    rdx,QWORD PTR [rbp-0x158]
  2031ab:	e8 20 04 00 00       	call   2035d0 <OutStream(error{SystemResources,OperationAborted,IoPending,BrokenPipe,Unexpected,WouldBlock,FileClosed,DestinationAddressRequired,DiskQuota,FileTooBig,InputOutput,NoSpaceLeft,AccessDenied,})_print>
  2031b0:	66 89 85 d6 fe ff ff 	mov    WORD PTR [rbp-0x12a],ax
  2031b7:	66 83 bd d6 fe ff ff 	cmp    WORD PTR [rbp-0x12a],0x0
  2031be:	00 
  2031bf:	74 05                	je     2031c6 <panicExtra+0xc6>
  2031c1:	e8 ca 02 00 00       	call   203490 <abort>
    if (trace) |t| {
  2031c6:	48 83 bd c8 fe ff ff 	cmp    QWORD PTR [rbp-0x138],0x0
  2031cd:	00 
  2031ce:	74 1c                	je     2031ec <panicExtra+0xec>
  2031d0:	48 8b 85 c8 fe ff ff 	mov    rax,QWORD PTR [rbp-0x138]
  2031d7:	48 89 85 b8 fe ff ff 	mov    QWORD PTR [rbp-0x148],rax
        dumpStackTrace(t);
  2031de:	48 8b bd b8 fe ff ff 	mov    rdi,QWORD PTR [rbp-0x148]
  2031e5:	e8 36 04 00 00       	call   203620 <dumpStackTrace>
    if (trace) |t| {
  2031ea:	eb 02                	jmp    2031ee <panicExtra+0xee>
  2031ec:	eb 00                	jmp    2031ee <panicExtra+0xee>
    }
    dumpCurrentStackTrace(first_trace_addr);
  2031ee:	48 8b bd b0 fe ff ff 	mov    rdi,QWORD PTR [rbp-0x150]
  2031f5:	e8 d6 06 00 00       	call   2038d0 <dumpCurrentStackTrace>

    os.abort();
  2031fa:	e8 91 02 00 00       	call   203490 <abort>
  2031ff:	90                   	nop

0000000000203200 <Xoroshiro128_init>:
pub const Xoroshiro128 = struct {
    random: Random,

    s: [2]u64,

    pub fn init(init_s: u64) Xoroshiro128 {
  203200:	55                   	push   rbp
  203201:	48 89 e5             	mov    rbp,rsp
  203204:	48 83 ec 30          	sub    rsp,0x30
  203208:	48 89 f8             	mov    rax,rdi
  20320b:	48 8d 4d e0          	lea    rcx,[rbp-0x20]
  20320f:	48 89 75 f8          	mov    QWORD PTR [rbp-0x8],rsi
        var x = Xoroshiro128{
  203213:	48 8b 35 c6 20 02 00 	mov    rsi,QWORD PTR [rip+0x220c6]        # 2252e0 <__unnamed_2>
  20321a:	48 89 75 e0          	mov    QWORD PTR [rbp-0x20],rsi
  20321e:	48 8b 35 c3 20 02 00 	mov    rsi,QWORD PTR [rip+0x220c3]        # 2252e8 <__unnamed_2+0x8>
  203225:	48 89 75 e8          	mov    QWORD PTR [rbp-0x18],rsi
  203229:	48 8b 35 c0 20 02 00 	mov    rsi,QWORD PTR [rip+0x220c0]        # 2252f0 <__unnamed_2+0x10>
  203230:	48 89 75 f0          	mov    QWORD PTR [rbp-0x10],rsi
            .random = Random{ .fillFn = fill },
            .s = undefined,
        };

        x.seed(init_s);
  203234:	48 8b 75 f8          	mov    rsi,QWORD PTR [rbp-0x8]
  203238:	48 89 7d d8          	mov    QWORD PTR [rbp-0x28],rdi
  20323c:	48 89 cf             	mov    rdi,rcx
  20323f:	48 89 45 d0          	mov    QWORD PTR [rbp-0x30],rax
  203243:	e8 28 0e 00 00       	call   204070 <Xoroshiro128_seed>
        return x;
  203248:	48 8b 45 e0          	mov    rax,QWORD PTR [rbp-0x20]
  20324c:	48 8b 4d d8          	mov    rcx,QWORD PTR [rbp-0x28]
  203250:	48 89 01             	mov    QWORD PTR [rcx],rax
  203253:	48 8b 45 e8          	mov    rax,QWORD PTR [rbp-0x18]
  203257:	48 89 41 08          	mov    QWORD PTR [rcx+0x8],rax
  20325b:	48 8b 45 f0          	mov    rax,QWORD PTR [rbp-0x10]
  20325f:	48 89 41 10          	mov    QWORD PTR [rcx+0x10],rax
  203263:	48 8b 45 d0          	mov    rax,QWORD PTR [rbp-0x30]
  203267:	48 83 c4 30          	add    rsp,0x30
  20326b:	5d                   	pop    rbp
  20326c:	c3                   	ret    
  20326d:	0f 1f 00             	nop    DWORD PTR [rax]

0000000000203270 <Random_scalar>:
    pub fn scalar(r: *Random, comptime T: type) T {
  203270:	55                   	push   rbp
  203271:	48 89 e5             	mov    rbp,rsp
  203274:	48 83 ec 40          	sub    rsp,0x40
  203278:	b0 01                	mov    al,0x1
  20327a:	48 89 7d d0          	mov    QWORD PTR [rbp-0x30],rdi
        var rand_bytes: [@sizeOf(T)]u8 = undefined;
  20327e:	8b 0d e0 f1 ff ff    	mov    ecx,DWORD PTR [rip+0xfffffffffffff1e0]        # 202464 <__unnamed_21>
  203284:	89 4d cc             	mov    DWORD PTR [rbp-0x34],ecx
        r.bytes(rand_bytes[0..]);
  203287:	48 8b 7d d0          	mov    rdi,QWORD PTR [rbp-0x30]
  20328b:	a8 01                	test   al,0x1
  20328d:	48 89 7d c0          	mov    QWORD PTR [rbp-0x40],rdi
  203291:	75 10                	jne    2032a3 <Random_scalar+0x33>
  203293:	48 8d 3d 66 20 02 00 	lea    rdi,[rip+0x22066]        # 225300 <__unnamed_4>
  20329a:	31 c0                	xor    eax,eax
  20329c:	89 c6                	mov    esi,eax
  20329e:	e8 1d fe ff ff       	call   2030c0 <panic>
  2032a3:	48 8d 75 f0          	lea    rsi,[rbp-0x10]
  2032a7:	48 8d 45 cc          	lea    rax,[rbp-0x34]
  2032ab:	48 89 45 f0          	mov    QWORD PTR [rbp-0x10],rax
  2032af:	48 c7 45 f8 04 00 00 	mov    QWORD PTR [rbp-0x8],0x4
  2032b6:	00 
  2032b7:	48 8b 7d c0          	mov    rdi,QWORD PTR [rbp-0x40]
  2032bb:	e8 10 0e 00 00       	call   2040d0 <Random_bytes>
  2032c0:	48 8d 7d d8          	lea    rdi,[rbp-0x28]
  2032c4:	be 01 00 00 00       	mov    esi,0x1
  2032c9:	48 8d 45 cc          	lea    rax,[rbp-0x34]
            return mem.readInt(rand_bytes, T, builtin.Endian.Little);
  2032cd:	48 89 45 d8          	mov    QWORD PTR [rbp-0x28],rax
  2032d1:	48 c7 45 e0 04 00 00 	mov    QWORD PTR [rbp-0x20],0x4
  2032d8:	00 
  2032d9:	e8 22 0e 00 00       	call   204100 <readInt>
  2032de:	48 83 c4 40          	add    rsp,0x40
  2032e2:	5d                   	pop    rbp
  2032e3:	c3                   	ret    
  2032e4:	66 66 66 2e 0f 1f 84 	data16 data16 nop WORD PTR cs:[rax+rax*1+0x0]
  2032eb:	00 00 00 00 00 

00000000002032f0 <setValue>:
pub fn setValue(v: u32) void {
  2032f0:	55                   	push   rbp
  2032f1:	48 89 e5             	mov    rbp,rsp
  2032f4:	89 7d fc             	mov    DWORD PTR [rbp-0x4],edi
    gValue = v;
  2032f7:	8b 7d fc             	mov    edi,DWORD PTR [rbp-0x4]
  2032fa:	89 3d 18 0d 02 00    	mov    DWORD PTR [rip+0x20d18],edi        # 224018 <gValue>
pub fn setValue(v: u32) void {
  203300:	5d                   	pop    rbp
  203301:	c3                   	ret    
  203302:	66 66 66 66 66 2e 0f 	data16 data16 data16 data16 nop WORD PTR cs:[rax+rax*1+0x0]
  203309:	1f 84 00 00 00 00 00 

0000000000203310 <waitWhileExpectedValue>:
pub fn waitWhileExpectedValue(expectedValue: u32, stallCount: u64) u32 {
  203310:	55                   	push   rbp
  203311:	48 89 e5             	mov    rbp,rsp
  203314:	48 83 ec 30          	sub    rsp,0x30
  203318:	89 7d fc             	mov    DWORD PTR [rbp-0x4],edi
  20331b:	48 89 75 f0          	mov    QWORD PTR [rbp-0x10],rsi
    var count = stallCount;
  20331f:	48 8b 75 f0          	mov    rsi,QWORD PTR [rbp-0x10]
  203323:	48 89 75 e8          	mov    QWORD PTR [rbp-0x18],rsi
    var val: u32 = undefined;
  203327:	c7 45 e4 aa aa aa aa 	mov    DWORD PTR [rbp-0x1c],0xaaaaaaaa
    val = @atomicLoad(u32, &gValue, AtomicOrder.SeqCst);
  20332e:	8b 3d e4 0c 02 00    	mov    edi,DWORD PTR [rip+0x20ce4]        # 224018 <gValue>
  203334:	89 7d e4             	mov    DWORD PTR [rbp-0x1c],edi
    while ((val == expectedValue) and (count > 0)) {
  203337:	8b 45 e4             	mov    eax,DWORD PTR [rbp-0x1c]
  20333a:	3b 45 fc             	cmp    eax,DWORD PTR [rbp-0x4]
  20333d:	0f 94 c1             	sete   cl
  203340:	f6 c1 01             	test   cl,0x1
  203343:	88 4d e3             	mov    BYTE PTR [rbp-0x1d],cl
  203346:	75 02                	jne    20334a <waitWhileExpectedValue+0x3a>
  203348:	eb 0b                	jmp    203355 <waitWhileExpectedValue+0x45>
  20334a:	48 83 7d e8 00       	cmp    QWORD PTR [rbp-0x18],0x0
  20334f:	0f 97 c0             	seta   al
  203352:	88 45 e3             	mov    BYTE PTR [rbp-0x1d],al
  203355:	8a 45 e3             	mov    al,BYTE PTR [rbp-0x1d]
  203358:	a8 01                	test   al,0x1
  20335a:	75 02                	jne    20335e <waitWhileExpectedValue+0x4e>
  20335c:	eb 1f                	jmp    20337d <waitWhileExpectedValue+0x6d>
        val = @atomicLoad(u32, &gValue, AtomicOrder.SeqCst);
  20335e:	8b 05 b4 0c 02 00    	mov    eax,DWORD PTR [rip+0x20cb4]        # 224018 <gValue>
  203364:	89 45 e4             	mov    DWORD PTR [rbp-0x1c],eax
        count -= 1;
  203367:	48 8b 4d e8          	mov    rcx,QWORD PTR [rbp-0x18]
  20336b:	48 83 e9 01          	sub    rcx,0x1
  20336f:	0f 92 c2             	setb   dl
  203372:	48 89 4d d8          	mov    QWORD PTR [rbp-0x28],rcx
  203376:	88 55 d7             	mov    BYTE PTR [rbp-0x29],dl
  203379:	72 2f                	jb     2033aa <waitWhileExpectedValue+0x9a>
  20337b:	eb 3d                	jmp    2033ba <waitWhileExpectedValue+0xaa>
    while (val == expectedValue) {
  20337d:	eb 00                	jmp    20337f <waitWhileExpectedValue+0x6f>
  20337f:	8b 45 e4             	mov    eax,DWORD PTR [rbp-0x1c]
  203382:	3b 45 fc             	cmp    eax,DWORD PTR [rbp-0x4]
  203385:	75 1a                	jne    2033a1 <waitWhileExpectedValue+0x91>
        futex_wait(&gValue, expectedValue);
  203387:	8b 75 fc             	mov    esi,DWORD PTR [rbp-0x4]
  20338a:	48 8d 3d 87 0c 02 00 	lea    rdi,[rip+0x20c87]        # 224018 <gValue>
  203391:	e8 0a 0f 00 00       	call   2042a0 <futex_wait>
        val = @atomicLoad(u32, &gValue, AtomicOrder.SeqCst);
  203396:	8b 35 7c 0c 02 00    	mov    esi,DWORD PTR [rip+0x20c7c]        # 224018 <gValue>
  20339c:	89 75 e4             	mov    DWORD PTR [rbp-0x1c],esi
    while (val == expectedValue) {
  20339f:	eb de                	jmp    20337f <waitWhileExpectedValue+0x6f>
    return val;
  2033a1:	8b 45 e4             	mov    eax,DWORD PTR [rbp-0x1c]
  2033a4:	48 83 c4 30          	add    rsp,0x30
  2033a8:	5d                   	pop    rbp
  2033a9:	c3                   	ret    
  2033aa:	48 8d 3d 67 1f 02 00 	lea    rdi,[rip+0x21f67]        # 225318 <__unnamed_5>
  2033b1:	31 c0                	xor    eax,eax
  2033b3:	89 c6                	mov    esi,eax
        count -= 1;
  2033b5:	e8 06 fd ff ff       	call   2030c0 <panic>
  2033ba:	48 8b 45 d8          	mov    rax,QWORD PTR [rbp-0x28]
  2033be:	48 89 45 e8          	mov    QWORD PTR [rbp-0x18],rax
    while ((val == expectedValue) and (count > 0)) {
  2033c2:	e9 70 ff ff ff       	jmp    203337 <waitWhileExpectedValue+0x27>
  2033c7:	66 0f 1f 84 00 00 00 	nop    WORD PTR [rax+rax*1+0x0]
  2033ce:	00 00 

00000000002033d0 <warn>:
pub fn warn(comptime fmt: []const u8, args: ...) void {
  2033d0:	55                   	push   rbp
  2033d1:	48 89 e5             	mov    rbp,rsp
  2033d4:	48 81 ec 40 01 00 00 	sub    rsp,0x140
  2033db:	48 8d 85 e8 fe ff ff 	lea    rax,[rbp-0x118]
  2033e2:	48 8d b5 f8 fe ff ff 	lea    rsi,[rbp-0x108]
  2033e9:	48 8d 8d 10 ff ff ff 	lea    rcx,[rbp-0xf0]
  2033f0:	48 c7 85 f8 fe ff ff 	mov    QWORD PTR [rbp-0x108],0x0
  2033f7:	00 00 00 00 
  2033fb:	48 89 8d 00 ff ff ff 	mov    QWORD PTR [rbp-0x100],rcx
  203402:	48 c7 85 08 ff ff ff 	mov    QWORD PTR [rbp-0xf8],0x1e
  203409:	1e 00 00 00 
  20340d:	89 bd d0 fe ff ff    	mov    DWORD PTR [rbp-0x130],edi
    const stderr = getStderrStream() catch return;
  203413:	48 89 c7             	mov    rdi,rax
  203416:	e8 a5 00 00 00       	call   2034c0 <getStderrStream>
  20341b:	66 83 bd e8 fe ff ff 	cmp    WORD PTR [rbp-0x118],0x0
  203422:	00 
  203423:	74 09                	je     20342e <warn+0x5e>
  203425:	48 81 c4 40 01 00 00 	add    rsp,0x140
  20342c:	5d                   	pop    rbp
  20342d:	c3                   	ret    
  20342e:	48 8b 85 f0 fe ff ff 	mov    rax,QWORD PTR [rbp-0x110]
  203435:	48 89 85 c0 fe ff ff 	mov    QWORD PTR [rbp-0x140],rax
  20343c:	48 8d bd f8 fe ff ff 	lea    rdi,[rbp-0x108]
  203443:	48 8b 85 c0 fe ff ff 	mov    rax,QWORD PTR [rbp-0x140]
  20344a:	48 89 85 c8 fe ff ff 	mov    QWORD PTR [rbp-0x138],rax
    stderr.print(fmt, args) catch return;
  203451:	48 8b b5 c8 fe ff ff 	mov    rsi,QWORD PTR [rbp-0x138]
  203458:	8b 95 d0 fe ff ff    	mov    edx,DWORD PTR [rbp-0x130]
  20345e:	e8 8d 0e 00 00       	call   2042f0 <OutStream(error{SystemResources,OperationAborted,IoPending,BrokenPipe,Unexpected,WouldBlock,FileClosed,DestinationAddressRequired,DiskQuota,FileTooBig,InputOutput,NoSpaceLeft,AccessDenied,})_print.10>
  203463:	66 89 85 d6 fe ff ff 	mov    WORD PTR [rbp-0x12a],ax
  20346a:	66 83 bd d6 fe ff ff 	cmp    WORD PTR [rbp-0x12a],0x0
  203471:	00 
  203472:	74 09                	je     20347d <warn+0xad>
  203474:	48 81 c4 40 01 00 00 	add    rsp,0x140
  20347b:	5d                   	pop    rbp
  20347c:	c3                   	ret    
pub fn warn(comptime fmt: []const u8, args: ...) void {
  20347d:	48 81 c4 40 01 00 00 	add    rsp,0x140
  203484:	5d                   	pop    rbp
  203485:	c3                   	ret    
  203486:	66 2e 0f 1f 84 00 00 	nop    WORD PTR cs:[rax+rax*1+0x0]
  20348d:	00 00 00 

0000000000203490 <abort>:
}

/// Raises a signal in the current kernel thread, ending its execution.
/// If linking against libc, this calls the abort() libc function. Otherwise
/// it uses the zig standard library implementation.
pub fn abort() noreturn {
  203490:	55                   	push   rbp
  203491:	48 89 e5             	mov    rbp,rsp
  203494:	48 83 ec 10          	sub    rsp,0x10
  203498:	bf 06 00 00 00       	mov    edi,0x6
    if (builtin.link_libc) {
        c.abort();
    }
    switch (builtin.os) {
        Os.linux, Os.macosx, Os.ios => {
            _ = posix.raise(posix.SIGABRT);
  20349d:	e8 9e 0e 00 00       	call   204340 <raise>
  2034a2:	bf 09 00 00 00       	mov    edi,0x9
            _ = posix.raise(posix.SIGKILL);
  2034a7:	48 89 45 f8          	mov    QWORD PTR [rbp-0x8],rax
  2034ab:	e8 90 0e 00 00       	call   204340 <raise>
  2034b0:	48 89 45 f0          	mov    QWORD PTR [rbp-0x10],rax
            while (true) {}
  2034b4:	eb fe                	jmp    2034b4 <abort+0x24>
  2034b6:	66 2e 0f 1f 84 00 00 	nop    WORD PTR cs:[rax+rax*1+0x0]
  2034bd:	00 00 00 

00000000002034c0 <getStderrStream>:
pub fn getStderrStream() !*io.OutStream(io.FileOutStream.Error) {
  2034c0:	55                   	push   rbp
  2034c1:	48 89 e5             	mov    rbp,rsp
  2034c4:	48 83 ec 70          	sub    rsp,0x70
  2034c8:	48 89 f8             	mov    rax,rdi
    if (stderr_stream) |st| {
  2034cb:	48 83 3d 35 2b 02 00 	cmp    QWORD PTR [rip+0x22b35],0x0        # 226008 <stderr_stream>
  2034d2:	00 
  2034d3:	48 89 45 a8          	mov    QWORD PTR [rbp-0x58],rax
  2034d7:	48 89 75 a0          	mov    QWORD PTR [rbp-0x60],rsi
  2034db:	48 89 7d 98          	mov    QWORD PTR [rbp-0x68],rdi
  2034df:	74 36                	je     203517 <getStderrStream+0x57>
  2034e1:	48 8b 05 20 2b 02 00 	mov    rax,QWORD PTR [rip+0x22b20]        # 226008 <stderr_stream>
  2034e8:	48 89 45 b8          	mov    QWORD PTR [rbp-0x48],rax
        return st;
  2034ec:	48 8b 45 b8          	mov    rax,QWORD PTR [rbp-0x48]
  2034f0:	66 c7 45 f0 00 00    	mov    WORD PTR [rbp-0x10],0x0
  2034f6:	48 89 45 f8          	mov    QWORD PTR [rbp-0x8],rax
  2034fa:	48 8b 45 f0          	mov    rax,QWORD PTR [rbp-0x10]
  2034fe:	48 8b 4d 98          	mov    rcx,QWORD PTR [rbp-0x68]
  203502:	48 89 01             	mov    QWORD PTR [rcx],rax
  203505:	48 8b 45 f8          	mov    rax,QWORD PTR [rbp-0x8]
  203509:	48 89 41 08          	mov    QWORD PTR [rcx+0x8],rax
  20350d:	48 8b 45 a8          	mov    rax,QWORD PTR [rbp-0x58]
  203511:	48 83 c4 70          	add    rsp,0x70
  203515:	5d                   	pop    rbp
  203516:	c3                   	ret    
  203517:	48 8d 7d e8          	lea    rdi,[rbp-0x18]
        stderr_file = try io.getStdErr();
  20351b:	48 8b 75 a0          	mov    rsi,QWORD PTR [rbp-0x60]
  20351f:	e8 dc 0e 00 00       	call   204400 <getStdErr>
  203524:	66 83 7d e8 00       	cmp    WORD PTR [rbp-0x18],0x0
  203529:	74 36                	je     203561 <getStderrStream+0xa1>
  20352b:	66 8b 45 e8          	mov    ax,WORD PTR [rbp-0x18]
  20352f:	48 8b 7d a0          	mov    rdi,QWORD PTR [rbp-0x60]
  203533:	66 89 45 96          	mov    WORD PTR [rbp-0x6a],ax
  203537:	e8 14 0f 00 00       	call   204450 <__zig_return_error>
  20353c:	66 8b 45 96          	mov    ax,WORD PTR [rbp-0x6a]
  203540:	66 89 45 d0          	mov    WORD PTR [rbp-0x30],ax
  203544:	48 8b 7d d0          	mov    rdi,QWORD PTR [rbp-0x30]
  203548:	48 8b 4d 98          	mov    rcx,QWORD PTR [rbp-0x68]
  20354c:	48 89 39             	mov    QWORD PTR [rcx],rdi
  20354f:	48 8b 7d d8          	mov    rdi,QWORD PTR [rbp-0x28]
  203553:	48 89 79 08          	mov    QWORD PTR [rcx+0x8],rdi
  203557:	48 8b 45 a8          	mov    rax,QWORD PTR [rbp-0x58]
  20355b:	48 83 c4 70          	add    rsp,0x70
  20355f:	5d                   	pop    rbp
  203560:	c3                   	ret    
  203561:	48 8d 7d c0          	lea    rdi,[rbp-0x40]
  203565:	48 8d 35 94 0a 02 00 	lea    rsi,[rip+0x20a94]        # 224000 <stderr_file>
  20356c:	8b 45 ec             	mov    eax,DWORD PTR [rbp-0x14]
  20356f:	89 05 8b 0a 02 00    	mov    DWORD PTR [rip+0x20a8b],eax        # 224000 <stderr_file>
        stderr_file_out_stream = io.FileOutStream.init(&stderr_file);
  203575:	e8 16 0f 00 00       	call   204490 <FileOutStream_init>
  20357a:	48 8d 35 87 0a 02 00 	lea    rsi,[rip+0x20a87]        # 224008 <stderr_file_out_stream>
  203581:	48 83 c6 08          	add    rsi,0x8
  203585:	48 8b 7d c0          	mov    rdi,QWORD PTR [rbp-0x40]
  203589:	48 89 3d 78 0a 02 00 	mov    QWORD PTR [rip+0x20a78],rdi        # 224008 <stderr_file_out_stream>
  203590:	48 8b 7d c8          	mov    rdi,QWORD PTR [rbp-0x38]
  203594:	48 89 3d 75 0a 02 00 	mov    QWORD PTR [rip+0x20a75],rdi        # 224010 <stderr_file_out_stream+0x8>
        const st = &stderr_file_out_stream.stream;
  20359b:	48 89 75 b0          	mov    QWORD PTR [rbp-0x50],rsi
        stderr_stream = st;
  20359f:	48 89 35 62 2a 02 00 	mov    QWORD PTR [rip+0x22a62],rsi        # 226008 <stderr_stream>
        return st;
  2035a6:	48 8b 35 c3 1d 02 00 	mov    rsi,QWORD PTR [rip+0x21dc3]        # 225370 <__unnamed_6>
  2035ad:	48 8b 7d 98          	mov    rdi,QWORD PTR [rbp-0x68]
  2035b1:	48 89 37             	mov    QWORD PTR [rdi],rsi
  2035b4:	48 8b 35 bd 1d 02 00 	mov    rsi,QWORD PTR [rip+0x21dbd]        # 225378 <__unnamed_6+0x8>
  2035bb:	48 89 77 08          	mov    QWORD PTR [rdi+0x8],rsi
  2035bf:	48 8b 45 a8          	mov    rax,QWORD PTR [rbp-0x58]
  2035c3:	48 83 c4 70          	add    rsp,0x70
  2035c7:	5d                   	pop    rbp
  2035c8:	c3                   	ret    
  2035c9:	0f 1f 80 00 00 00 00 	nop    DWORD PTR [rax+0x0]

00000000002035d0 <OutStream(error{SystemResources,OperationAborted,IoPending,BrokenPipe,Unexpected,WouldBlock,FileClosed,DestinationAddressRequired,DiskQuota,FileTooBig,InputOutput,NoSpaceLeft,AccessDenied,})_print>:
        const Self = this;
        pub const Error = WriteError;

        writeFn: fn (self: *Self, bytes: []const u8) Error!void,

        pub fn print(self: *Self, comptime format: []const u8, args: ...) !void {
  2035d0:	55                   	push   rbp
  2035d1:	48 89 e5             	mov    rbp,rsp
  2035d4:	48 83 ec 20          	sub    rsp,0x20
  2035d8:	48 89 75 f8          	mov    QWORD PTR [rbp-0x8],rsi
            return std.fmt.format(self, Error, self.writeFn, format, args);
  2035dc:	48 8b 75 f8          	mov    rsi,QWORD PTR [rbp-0x8]
  2035e0:	48 8b 45 f8          	mov    rax,QWORD PTR [rbp-0x8]
  2035e4:	48 8b 00             	mov    rax,QWORD PTR [rax]
  2035e7:	48 89 7d f0          	mov    QWORD PTR [rbp-0x10],rdi
  2035eb:	48 89 55 e8          	mov    QWORD PTR [rbp-0x18],rdx
  2035ef:	48 89 c2             	mov    rdx,rax
  2035f2:	48 8b 4d e8          	mov    rcx,QWORD PTR [rbp-0x18]
  2035f6:	e8 35 0f 00 00       	call   204530 <format>
  2035fb:	66 83 f8 00          	cmp    ax,0x0
  2035ff:	66 89 45 e6          	mov    WORD PTR [rbp-0x1a],ax
  203603:	74 0b                	je     203610 <OutStream(error{SystemResources,OperationAborted,IoPending,BrokenPipe,Unexpected,WouldBlock,FileClosed,DestinationAddressRequired,DiskQuota,FileTooBig,InputOutput,NoSpaceLeft,AccessDenied,})_print+0x40>
  203605:	48 8b 7d f0          	mov    rdi,QWORD PTR [rbp-0x10]
  203609:	e8 42 0e 00 00       	call   204450 <__zig_return_error>
  20360e:	eb 02                	jmp    203612 <OutStream(error{SystemResources,OperationAborted,IoPending,BrokenPipe,Unexpected,WouldBlock,FileClosed,DestinationAddressRequired,DiskQuota,FileTooBig,InputOutput,NoSpaceLeft,AccessDenied,})_print+0x42>
  203610:	eb 00                	jmp    203612 <OutStream(error{SystemResources,OperationAborted,IoPending,BrokenPipe,Unexpected,WouldBlock,FileClosed,DestinationAddressRequired,DiskQuota,FileTooBig,InputOutput,NoSpaceLeft,AccessDenied,})_print+0x42>
  203612:	66 8b 45 e6          	mov    ax,WORD PTR [rbp-0x1a]
  203616:	48 83 c4 20          	add    rsp,0x20
  20361a:	5d                   	pop    rbp
  20361b:	c3                   	ret    
  20361c:	0f 1f 40 00          	nop    DWORD PTR [rax+0x0]

0000000000203620 <dumpStackTrace>:
pub fn dumpStackTrace(stack_trace: *const builtin.StackTrace) void {
  203620:	55                   	push   rbp
  203621:	48 89 e5             	mov    rbp,rsp
  203624:	48 81 ec d0 01 00 00 	sub    rsp,0x1d0
  20362b:	48 8d 85 e8 fe ff ff 	lea    rax,[rbp-0x118]
  203632:	48 8d b5 f8 fe ff ff 	lea    rsi,[rbp-0x108]
  203639:	48 8d 8d 10 ff ff ff 	lea    rcx,[rbp-0xf0]
  203640:	48 c7 85 f8 fe ff ff 	mov    QWORD PTR [rbp-0x108],0x0
  203647:	00 00 00 00 
  20364b:	48 89 8d 00 ff ff ff 	mov    QWORD PTR [rbp-0x100],rcx
  203652:	48 c7 85 08 ff ff ff 	mov    QWORD PTR [rbp-0xf8],0x1e
  203659:	1e 00 00 00 
  20365d:	48 89 bd a8 fe ff ff 	mov    QWORD PTR [rbp-0x158],rdi
    const stderr = getStderrStream() catch return;
  203664:	48 89 c7             	mov    rdi,rax
  203667:	e8 54 fe ff ff       	call   2034c0 <getStderrStream>
  20366c:	66 83 bd e8 fe ff ff 	cmp    WORD PTR [rbp-0x118],0x0
  203673:	00 
  203674:	74 09                	je     20367f <dumpStackTrace+0x5f>
  203676:	48 81 c4 d0 01 00 00 	add    rsp,0x1d0
  20367d:	5d                   	pop    rbp
  20367e:	c3                   	ret    
  20367f:	48 8b 85 f0 fe ff ff 	mov    rax,QWORD PTR [rbp-0x110]
  203686:	48 89 85 80 fe ff ff 	mov    QWORD PTR [rbp-0x180],rax
  20368d:	48 8d bd c8 fe ff ff 	lea    rdi,[rbp-0x138]
  203694:	48 8d b5 f8 fe ff ff 	lea    rsi,[rbp-0x108]
  20369b:	48 8b 85 80 fe ff ff 	mov    rax,QWORD PTR [rbp-0x180]
  2036a2:	48 89 85 a0 fe ff ff 	mov    QWORD PTR [rbp-0x160],rax
    const debug_info = getSelfDebugInfo() catch |err| {
  2036a9:	e8 82 0f 00 00       	call   204630 <getSelfDebugInfo>
  2036ae:	66 83 bd c8 fe ff ff 	cmp    WORD PTR [rbp-0x138],0x0
  2036b5:	00 
  2036b6:	74 4b                	je     203703 <dumpStackTrace+0xe3>
  2036b8:	66 8b 85 c8 fe ff ff 	mov    ax,WORD PTR [rbp-0x138]
  2036bf:	66 89 85 9e fe ff ff 	mov    WORD PTR [rbp-0x162],ax
        stderr.print("Unable to dump stack trace: Unable to open debug info: {}\n", @errorName(err)) catch return;
  2036c6:	48 8b b5 a0 fe ff ff 	mov    rsi,QWORD PTR [rbp-0x160]
  2036cd:	66 8b 85 9e fe ff ff 	mov    ax,WORD PTR [rbp-0x162]
  2036d4:	66 83 f8 00          	cmp    ax,0x0
  2036d8:	48 89 b5 78 fe ff ff 	mov    QWORD PTR [rbp-0x188],rsi
  2036df:	66 89 85 76 fe ff ff 	mov    WORD PTR [rbp-0x18a],ax
  2036e6:	0f 85 69 01 00 00    	jne    203855 <dumpStackTrace+0x235>
  2036ec:	e9 0b 01 00 00       	jmp    2037fc <dumpStackTrace+0x1dc>
  2036f1:	48 81 c4 d0 01 00 00 	add    rsp,0x1d0
  2036f8:	5d                   	pop    rbp
  2036f9:	c3                   	ret    
        return;
  2036fa:	48 81 c4 d0 01 00 00 	add    rsp,0x1d0
  203701:	5d                   	pop    rbp
  203702:	c3                   	ret    
    const debug_info = getSelfDebugInfo() catch |err| {
  203703:	48 8b 85 d0 fe ff ff 	mov    rax,QWORD PTR [rbp-0x130]
  20370a:	48 89 85 68 fe ff ff 	mov    QWORD PTR [rbp-0x198],rax
  203711:	48 8b 85 68 fe ff ff 	mov    rax,QWORD PTR [rbp-0x198]
  203718:	48 89 85 90 fe ff ff 	mov    QWORD PTR [rbp-0x170],rax
    writeStackTrace(stack_trace, stderr, getDebugInfoAllocator(), debug_info, wantTtyColor()) catch |err| {
  20371f:	48 8b b5 a8 fe ff ff 	mov    rsi,QWORD PTR [rbp-0x158]
  203726:	48 8b 95 a0 fe ff ff 	mov    rdx,QWORD PTR [rbp-0x160]
  20372d:	48 89 b5 60 fe ff ff 	mov    QWORD PTR [rbp-0x1a0],rsi
  203734:	48 89 95 58 fe ff ff 	mov    QWORD PTR [rbp-0x1a8],rdx
  20373b:	e8 40 10 00 00       	call   204780 <getDebugInfoAllocator>
  203740:	4c 8b 85 90 fe ff ff 	mov    r8,QWORD PTR [rbp-0x170]
  203747:	48 89 85 50 fe ff ff 	mov    QWORD PTR [rbp-0x1b0],rax
  20374e:	4c 89 85 48 fe ff ff 	mov    QWORD PTR [rbp-0x1b8],r8
  203755:	e8 e6 10 00 00       	call   204840 <wantTtyColor>
  20375a:	48 8d 95 f8 fe ff ff 	lea    rdx,[rbp-0x108]
  203761:	44 0f b6 c8          	movzx  r9d,al
  203765:	48 8d bd f8 fe ff ff 	lea    rdi,[rbp-0x108]
  20376c:	48 8b b5 60 fe ff ff 	mov    rsi,QWORD PTR [rbp-0x1a0]
  203773:	4c 8b 85 58 fe ff ff 	mov    r8,QWORD PTR [rbp-0x1a8]
  20377a:	48 89 95 40 fe ff ff 	mov    QWORD PTR [rbp-0x1c0],rdx
  203781:	4c 89 c2             	mov    rdx,r8
  203784:	48 8b 8d 50 fe ff ff 	mov    rcx,QWORD PTR [rbp-0x1b0]
  20378b:	4c 8b 85 48 fe ff ff 	mov    r8,QWORD PTR [rbp-0x1b8]
  203792:	e8 d9 11 00 00       	call   204970 <writeStackTrace>
  203797:	66 89 85 b4 fe ff ff 	mov    WORD PTR [rbp-0x14c],ax
  20379e:	66 83 bd b4 fe ff ff 	cmp    WORD PTR [rbp-0x14c],0x0
  2037a5:	00 
  2037a6:	74 4b                	je     2037f3 <dumpStackTrace+0x1d3>
  2037a8:	66 8b 85 b4 fe ff ff 	mov    ax,WORD PTR [rbp-0x14c]
  2037af:	66 89 85 8e fe ff ff 	mov    WORD PTR [rbp-0x172],ax
        stderr.print("Unable to dump stack trace: {}\n", @errorName(err)) catch return;
  2037b6:	48 8b b5 a0 fe ff ff 	mov    rsi,QWORD PTR [rbp-0x160]
  2037bd:	66 8b 85 8e fe ff ff 	mov    ax,WORD PTR [rbp-0x172]
  2037c4:	66 83 f8 00          	cmp    ax,0x0
  2037c8:	48 89 b5 38 fe ff ff 	mov    QWORD PTR [rbp-0x1c8],rsi
  2037cf:	66 89 85 36 fe ff ff 	mov    WORD PTR [rbp-0x1ca],ax
  2037d6:	0f 85 e1 00 00 00    	jne    2038bd <dumpStackTrace+0x29d>
  2037dc:	e9 83 00 00 00       	jmp    203864 <dumpStackTrace+0x244>
  2037e1:	48 81 c4 d0 01 00 00 	add    rsp,0x1d0
  2037e8:	5d                   	pop    rbp
  2037e9:	c3                   	ret    
        return;
  2037ea:	48 81 c4 d0 01 00 00 	add    rsp,0x1d0
  2037f1:	5d                   	pop    rbp
  2037f2:	c3                   	ret    
pub fn dumpStackTrace(stack_trace: *const builtin.StackTrace) void {
  2037f3:	48 81 c4 d0 01 00 00 	add    rsp,0x1d0
  2037fa:	5d                   	pop    rbp
  2037fb:	c3                   	ret    
  2037fc:	48 8d 3d fd 1a 02 00 	lea    rdi,[rip+0x21afd]        # 225300 <__unnamed_4>
  203803:	31 c0                	xor    eax,eax
  203805:	89 c6                	mov    esi,eax
        stderr.print("Unable to dump stack trace: Unable to open debug info: {}\n", @errorName(err)) catch return;
  203807:	e8 b4 f8 ff ff       	call   2030c0 <panic>
  20380c:	48 8d bd f8 fe ff ff 	lea    rdi,[rbp-0x108]
  203813:	48 8d 05 e6 17 02 00 	lea    rax,[rip+0x217e6]        # 225000 <raw+0xf68>
  20381a:	66 8b 8d 76 fe ff ff 	mov    cx,WORD PTR [rbp-0x18a]
  203821:	48 0f bf d1          	movsx  rdx,cx
  203825:	48 c1 e2 04          	shl    rdx,0x4
  203829:	48 01 d0             	add    rax,rdx
  20382c:	48 8b b5 78 fe ff ff 	mov    rsi,QWORD PTR [rbp-0x188]
  203833:	48 89 c2             	mov    rdx,rax
  203836:	e8 f5 0e 00 00       	call   204730 <OutStream(error{SystemResources,OperationAborted,IoPending,BrokenPipe,Unexpected,WouldBlock,FileClosed,DestinationAddressRequired,DiskQuota,FileTooBig,InputOutput,NoSpaceLeft,AccessDenied,})_print.11>
  20383b:	66 89 85 b6 fe ff ff 	mov    WORD PTR [rbp-0x14a],ax
  203842:	66 83 bd b6 fe ff ff 	cmp    WORD PTR [rbp-0x14a],0x0
  203849:	00 
  20384a:	0f 85 a1 fe ff ff    	jne    2036f1 <dumpStackTrace+0xd1>
  203850:	e9 a5 fe ff ff       	jmp    2036fa <dumpStackTrace+0xda>
  203855:	66 8b 85 76 fe ff ff 	mov    ax,WORD PTR [rbp-0x18a]
  20385c:	66 83 f8 27          	cmp    ax,0x27
  203860:	72 aa                	jb     20380c <dumpStackTrace+0x1ec>
  203862:	eb 98                	jmp    2037fc <dumpStackTrace+0x1dc>
  203864:	48 8d 3d 95 1a 02 00 	lea    rdi,[rip+0x21a95]        # 225300 <__unnamed_4>
  20386b:	31 c0                	xor    eax,eax
  20386d:	89 c6                	mov    esi,eax
        stderr.print("Unable to dump stack trace: {}\n", @errorName(err)) catch return;
  20386f:	e8 4c f8 ff ff       	call   2030c0 <panic>
  203874:	48 8d bd f8 fe ff ff 	lea    rdi,[rbp-0x108]
  20387b:	48 8d 05 7e 17 02 00 	lea    rax,[rip+0x2177e]        # 225000 <raw+0xf68>
  203882:	66 8b 8d 36 fe ff ff 	mov    cx,WORD PTR [rbp-0x1ca]
  203889:	48 0f bf d1          	movsx  rdx,cx
  20388d:	48 c1 e2 04          	shl    rdx,0x4
  203891:	48 01 d0             	add    rax,rdx
  203894:	48 8b b5 38 fe ff ff 	mov    rsi,QWORD PTR [rbp-0x1c8]
  20389b:	48 89 c2             	mov    rdx,rax
  20389e:	e8 5d 13 00 00       	call   204c00 <OutStream(error{SystemResources,OperationAborted,IoPending,BrokenPipe,Unexpected,WouldBlock,FileClosed,DestinationAddressRequired,DiskQuota,FileTooBig,InputOutput,NoSpaceLeft,AccessDenied,})_print.12>
  2038a3:	66 89 85 b2 fe ff ff 	mov    WORD PTR [rbp-0x14e],ax
  2038aa:	66 83 bd b2 fe ff ff 	cmp    WORD PTR [rbp-0x14e],0x0
  2038b1:	00 
  2038b2:	0f 85 29 ff ff ff    	jne    2037e1 <dumpStackTrace+0x1c1>
  2038b8:	e9 2d ff ff ff       	jmp    2037ea <dumpStackTrace+0x1ca>
  2038bd:	66 8b 85 36 fe ff ff 	mov    ax,WORD PTR [rbp-0x1ca]
  2038c4:	66 83 f8 27          	cmp    ax,0x27
  2038c8:	72 aa                	jb     203874 <dumpStackTrace+0x254>
  2038ca:	eb 98                	jmp    203864 <dumpStackTrace+0x244>
  2038cc:	0f 1f 40 00          	nop    DWORD PTR [rax+0x0]

00000000002038d0 <dumpCurrentStackTrace>:
pub fn dumpCurrentStackTrace(start_addr: ?usize) void {
  2038d0:	55                   	push   rbp
  2038d1:	48 89 e5             	mov    rbp,rsp
  2038d4:	48 81 ec d0 01 00 00 	sub    rsp,0x1d0
  2038db:	48 8d 85 e8 fe ff ff 	lea    rax,[rbp-0x118]
  2038e2:	48 8d b5 f8 fe ff ff 	lea    rsi,[rbp-0x108]
  2038e9:	48 8d 8d 10 ff ff ff 	lea    rcx,[rbp-0xf0]
  2038f0:	48 c7 85 f8 fe ff ff 	mov    QWORD PTR [rbp-0x108],0x0
  2038f7:	00 00 00 00 
  2038fb:	48 89 8d 00 ff ff ff 	mov    QWORD PTR [rbp-0x100],rcx
  203902:	48 c7 85 08 ff ff ff 	mov    QWORD PTR [rbp-0xf8],0x1e
  203909:	1e 00 00 00 
    const stderr = getStderrStream() catch return;
  20390d:	48 89 bd 88 fe ff ff 	mov    QWORD PTR [rbp-0x178],rdi
  203914:	48 89 c7             	mov    rdi,rax
  203917:	e8 a4 fb ff ff       	call   2034c0 <getStderrStream>
  20391c:	66 83 bd e8 fe ff ff 	cmp    WORD PTR [rbp-0x118],0x0
  203923:	00 
  203924:	74 09                	je     20392f <dumpCurrentStackTrace+0x5f>
  203926:	48 81 c4 d0 01 00 00 	add    rsp,0x1d0
  20392d:	5d                   	pop    rbp
  20392e:	c3                   	ret    
  20392f:	48 8b 85 f0 fe ff ff 	mov    rax,QWORD PTR [rbp-0x110]
  203936:	48 89 85 80 fe ff ff 	mov    QWORD PTR [rbp-0x180],rax
  20393d:	48 8d bd c8 fe ff ff 	lea    rdi,[rbp-0x138]
  203944:	48 8d b5 f8 fe ff ff 	lea    rsi,[rbp-0x108]
  20394b:	48 8b 85 80 fe ff ff 	mov    rax,QWORD PTR [rbp-0x180]
  203952:	48 89 85 a8 fe ff ff 	mov    QWORD PTR [rbp-0x158],rax
    const debug_info = getSelfDebugInfo() catch |err| {
  203959:	e8 d2 0c 00 00       	call   204630 <getSelfDebugInfo>
  20395e:	66 83 bd c8 fe ff ff 	cmp    WORD PTR [rbp-0x138],0x0
  203965:	00 
  203966:	74 4b                	je     2039b3 <dumpCurrentStackTrace+0xe3>
  203968:	66 8b 85 c8 fe ff ff 	mov    ax,WORD PTR [rbp-0x138]
  20396f:	66 89 85 a6 fe ff ff 	mov    WORD PTR [rbp-0x15a],ax
        stderr.print("Unable to dump stack trace: Unable to open debug info: {}\n", @errorName(err)) catch return;
  203976:	48 8b b5 a8 fe ff ff 	mov    rsi,QWORD PTR [rbp-0x158]
  20397d:	66 8b 85 a6 fe ff ff 	mov    ax,WORD PTR [rbp-0x15a]
  203984:	66 83 f8 00          	cmp    ax,0x0
  203988:	48 89 b5 78 fe ff ff 	mov    QWORD PTR [rbp-0x188],rsi
  20398f:	66 89 85 76 fe ff ff 	mov    WORD PTR [rbp-0x18a],ax
  203996:	0f 85 5b 01 00 00    	jne    203af7 <dumpCurrentStackTrace+0x227>
  20399c:	e9 fd 00 00 00       	jmp    203a9e <dumpCurrentStackTrace+0x1ce>
  2039a1:	48 81 c4 d0 01 00 00 	add    rsp,0x1d0
  2039a8:	5d                   	pop    rbp
  2039a9:	c3                   	ret    
        return;
  2039aa:	48 81 c4 d0 01 00 00 	add    rsp,0x1d0
  2039b1:	5d                   	pop    rbp
  2039b2:	c3                   	ret    
    const debug_info = getSelfDebugInfo() catch |err| {
  2039b3:	48 8b 85 d0 fe ff ff 	mov    rax,QWORD PTR [rbp-0x130]
  2039ba:	48 89 85 68 fe ff ff 	mov    QWORD PTR [rbp-0x198],rax
  2039c1:	48 8b 85 68 fe ff ff 	mov    rax,QWORD PTR [rbp-0x198]
  2039c8:	48 89 85 98 fe ff ff 	mov    QWORD PTR [rbp-0x168],rax
    writeCurrentStackTrace(stderr, getDebugInfoAllocator(), debug_info, wantTtyColor(), start_addr) catch |err| {
  2039cf:	48 8b b5 a8 fe ff ff 	mov    rsi,QWORD PTR [rbp-0x158]
  2039d6:	48 89 b5 60 fe ff ff 	mov    QWORD PTR [rbp-0x1a0],rsi
  2039dd:	e8 9e 0d 00 00       	call   204780 <getDebugInfoAllocator>
  2039e2:	48 8b 8d 98 fe ff ff 	mov    rcx,QWORD PTR [rbp-0x168]
  2039e9:	48 89 85 58 fe ff ff 	mov    QWORD PTR [rbp-0x1a8],rax
  2039f0:	48 89 8d 50 fe ff ff 	mov    QWORD PTR [rbp-0x1b0],rcx
  2039f7:	e8 44 0e 00 00       	call   204840 <wantTtyColor>
  2039fc:	48 8d 8d f8 fe ff ff 	lea    rcx,[rbp-0x108]
  203a03:	44 0f b6 c0          	movzx  r8d,al
  203a07:	48 8d bd f8 fe ff ff 	lea    rdi,[rbp-0x108]
  203a0e:	48 8b b5 60 fe ff ff 	mov    rsi,QWORD PTR [rbp-0x1a0]
  203a15:	48 8b 95 58 fe ff ff 	mov    rdx,QWORD PTR [rbp-0x1a8]
  203a1c:	4c 8b 8d 50 fe ff ff 	mov    r9,QWORD PTR [rbp-0x1b0]
  203a23:	48 89 8d 48 fe ff ff 	mov    QWORD PTR [rbp-0x1b8],rcx
  203a2a:	4c 89 c9             	mov    rcx,r9
  203a2d:	4c 8b 8d 88 fe ff ff 	mov    r9,QWORD PTR [rbp-0x178]
  203a34:	e8 17 12 00 00       	call   204c50 <writeCurrentStackTrace>
  203a39:	66 89 85 b4 fe ff ff 	mov    WORD PTR [rbp-0x14c],ax
  203a40:	66 83 bd b4 fe ff ff 	cmp    WORD PTR [rbp-0x14c],0x0
  203a47:	00 
  203a48:	74 4b                	je     203a95 <dumpCurrentStackTrace+0x1c5>
  203a4a:	66 8b 85 b4 fe ff ff 	mov    ax,WORD PTR [rbp-0x14c]
  203a51:	66 89 85 96 fe ff ff 	mov    WORD PTR [rbp-0x16a],ax
        stderr.print("Unable to dump stack trace: {}\n", @errorName(err)) catch return;
  203a58:	48 8b b5 a8 fe ff ff 	mov    rsi,QWORD PTR [rbp-0x158]
  203a5f:	66 8b 85 96 fe ff ff 	mov    ax,WORD PTR [rbp-0x16a]
  203a66:	66 83 f8 00          	cmp    ax,0x0
  203a6a:	48 89 b5 40 fe ff ff 	mov    QWORD PTR [rbp-0x1c0],rsi
  203a71:	66 89 85 3e fe ff ff 	mov    WORD PTR [rbp-0x1c2],ax
  203a78:	0f 85 e1 00 00 00    	jne    203b5f <dumpCurrentStackTrace+0x28f>
  203a7e:	e9 83 00 00 00       	jmp    203b06 <dumpCurrentStackTrace+0x236>
  203a83:	48 81 c4 d0 01 00 00 	add    rsp,0x1d0
  203a8a:	5d                   	pop    rbp
  203a8b:	c3                   	ret    
        return;
  203a8c:	48 81 c4 d0 01 00 00 	add    rsp,0x1d0
  203a93:	5d                   	pop    rbp
  203a94:	c3                   	ret    
pub fn dumpCurrentStackTrace(start_addr: ?usize) void {
  203a95:	48 81 c4 d0 01 00 00 	add    rsp,0x1d0
  203a9c:	5d                   	pop    rbp
  203a9d:	c3                   	ret    
  203a9e:	48 8d 3d 5b 18 02 00 	lea    rdi,[rip+0x2185b]        # 225300 <__unnamed_4>
  203aa5:	31 c0                	xor    eax,eax
  203aa7:	89 c6                	mov    esi,eax
        stderr.print("Unable to dump stack trace: Unable to open debug info: {}\n", @errorName(err)) catch return;
  203aa9:	e8 12 f6 ff ff       	call   2030c0 <panic>
  203aae:	48 8d bd f8 fe ff ff 	lea    rdi,[rbp-0x108]
  203ab5:	48 8d 05 44 15 02 00 	lea    rax,[rip+0x21544]        # 225000 <raw+0xf68>
  203abc:	66 8b 8d 76 fe ff ff 	mov    cx,WORD PTR [rbp-0x18a]
  203ac3:	48 0f bf d1          	movsx  rdx,cx
  203ac7:	48 c1 e2 04          	shl    rdx,0x4
  203acb:	48 01 d0             	add    rax,rdx
  203ace:	48 8b b5 78 fe ff ff 	mov    rsi,QWORD PTR [rbp-0x188]
  203ad5:	48 89 c2             	mov    rdx,rax
  203ad8:	e8 53 0c 00 00       	call   204730 <OutStream(error{SystemResources,OperationAborted,IoPending,BrokenPipe,Unexpected,WouldBlock,FileClosed,DestinationAddressRequired,DiskQuota,FileTooBig,InputOutput,NoSpaceLeft,AccessDenied,})_print.11>
  203add:	66 89 85 b6 fe ff ff 	mov    WORD PTR [rbp-0x14a],ax
  203ae4:	66 83 bd b6 fe ff ff 	cmp    WORD PTR [rbp-0x14a],0x0
  203aeb:	00 
  203aec:	0f 85 af fe ff ff    	jne    2039a1 <dumpCurrentStackTrace+0xd1>
  203af2:	e9 b3 fe ff ff       	jmp    2039aa <dumpCurrentStackTrace+0xda>
  203af7:	66 8b 85 76 fe ff ff 	mov    ax,WORD PTR [rbp-0x18a]
  203afe:	66 83 f8 27          	cmp    ax,0x27
  203b02:	72 aa                	jb     203aae <dumpCurrentStackTrace+0x1de>
  203b04:	eb 98                	jmp    203a9e <dumpCurrentStackTrace+0x1ce>
  203b06:	48 8d 3d f3 17 02 00 	lea    rdi,[rip+0x217f3]        # 225300 <__unnamed_4>
  203b0d:	31 c0                	xor    eax,eax
  203b0f:	89 c6                	mov    esi,eax
        stderr.print("Unable to dump stack trace: {}\n", @errorName(err)) catch return;
  203b11:	e8 aa f5 ff ff       	call   2030c0 <panic>
  203b16:	48 8d bd f8 fe ff ff 	lea    rdi,[rbp-0x108]
  203b1d:	48 8d 05 dc 14 02 00 	lea    rax,[rip+0x214dc]        # 225000 <raw+0xf68>
  203b24:	66 8b 8d 3e fe ff ff 	mov    cx,WORD PTR [rbp-0x1c2]
  203b2b:	48 0f bf d1          	movsx  rdx,cx
  203b2f:	48 c1 e2 04          	shl    rdx,0x4
  203b33:	48 01 d0             	add    rax,rdx
  203b36:	48 8b b5 40 fe ff ff 	mov    rsi,QWORD PTR [rbp-0x1c0]
  203b3d:	48 89 c2             	mov    rdx,rax
  203b40:	e8 bb 10 00 00       	call   204c00 <OutStream(error{SystemResources,OperationAborted,IoPending,BrokenPipe,Unexpected,WouldBlock,FileClosed,DestinationAddressRequired,DiskQuota,FileTooBig,InputOutput,NoSpaceLeft,AccessDenied,})_print.12>
  203b45:	66 89 85 b2 fe ff ff 	mov    WORD PTR [rbp-0x14e],ax
  203b4c:	66 83 bd b2 fe ff ff 	cmp    WORD PTR [rbp-0x14e],0x0
  203b53:	00 
  203b54:	0f 85 29 ff ff ff    	jne    203a83 <dumpCurrentStackTrace+0x1b3>
  203b5a:	e9 2d ff ff ff       	jmp    203a8c <dumpCurrentStackTrace+0x1bc>
  203b5f:	66 8b 85 3e fe ff ff 	mov    ax,WORD PTR [rbp-0x1c2]
  203b66:	66 83 f8 27          	cmp    ax,0x27
  203b6a:	72 aa                	jb     203b16 <dumpCurrentStackTrace+0x246>
  203b6c:	eb 98                	jmp    203b06 <dumpCurrentStackTrace+0x236>
  203b6e:	66 90                	xchg   ax,ax

0000000000203b70 <Xoroshiro128_fill>:

        self.s[0] = gen.next();
        self.s[1] = gen.next();
    }

    fn fill(r: *Random, buf: []u8) void {
  203b70:	55                   	push   rbp
  203b71:	48 89 e5             	mov    rbp,rsp
  203b74:	48 81 ec f0 00 00 00 	sub    rsp,0xf0
  203b7b:	48 89 7d f8          	mov    QWORD PTR [rbp-0x8],rdi
        const self = @fieldParentPtr(Xoroshiro128, "random", r);
  203b7f:	48 8b 7d f8          	mov    rdi,QWORD PTR [rbp-0x8]
  203b83:	48 89 7d f0          	mov    QWORD PTR [rbp-0x10],rdi

        var i: usize = 0;
  203b87:	48 c7 45 e8 00 00 00 	mov    QWORD PTR [rbp-0x18],0x0
  203b8e:	00 
        const aligned_len = buf.len - (buf.len & 7);
  203b8f:	48 8b 7e 08          	mov    rdi,QWORD PTR [rsi+0x8]
  203b93:	48 8b 46 08          	mov    rax,QWORD PTR [rsi+0x8]
  203b97:	48 83 e0 07          	and    rax,0x7
  203b9b:	48 29 c7             	sub    rdi,rax
  203b9e:	0f 92 c1             	setb   cl
  203ba1:	48 89 75 c8          	mov    QWORD PTR [rbp-0x38],rsi
  203ba5:	48 89 7d c0          	mov    QWORD PTR [rbp-0x40],rdi
  203ba9:	88 4d bf             	mov    BYTE PTR [rbp-0x41],cl
  203bac:	0f 82 83 00 00 00    	jb     203c35 <Xoroshiro128_fill+0xc5>
  203bb2:	e9 8e 00 00 00       	jmp    203c45 <Xoroshiro128_fill+0xd5>

        // Complete 8 byte segments.
        while (i < aligned_len) : (i += 8) {
  203bb7:	48 8b 45 e8          	mov    rax,QWORD PTR [rbp-0x18]
  203bbb:	48 3b 45 e0          	cmp    rax,QWORD PTR [rbp-0x20]
  203bbf:	73 23                	jae    203be4 <Xoroshiro128_fill+0x74>
            var n = self.next();
  203bc1:	48 8b 7d f0          	mov    rdi,QWORD PTR [rbp-0x10]
  203bc5:	e8 76 12 00 00       	call   204e40 <Xoroshiro128_next>
  203bca:	48 89 45 d8          	mov    QWORD PTR [rbp-0x28],rax
            comptime var j: usize = 0;
            inline while (j < 8) : (j += 1) {
                buf[i + j] = @truncate(u8, n);
  203bce:	48 8b 45 e8          	mov    rax,QWORD PTR [rbp-0x18]
  203bd2:	48 83 c0 00          	add    rax,0x0
  203bd6:	0f 92 c1             	setb   cl
  203bd9:	48 89 45 b0          	mov    QWORD PTR [rbp-0x50],rax
  203bdd:	88 4d af             	mov    BYTE PTR [rbp-0x51],cl
  203be0:	72 70                	jb     203c52 <Xoroshiro128_fill+0xe2>
  203be2:	eb 7e                	jmp    203c62 <Xoroshiro128_fill+0xf2>
                n >>= 8;
            }
        }

        // Remaining. (cuts the stream)
        if (i != buf.len) {
  203be4:	48 8b 45 e8          	mov    rax,QWORD PTR [rbp-0x18]
  203be8:	48 8b 4d c8          	mov    rcx,QWORD PTR [rbp-0x38]
  203bec:	48 3b 41 08          	cmp    rax,QWORD PTR [rcx+0x8]
  203bf0:	74 38                	je     203c2a <Xoroshiro128_fill+0xba>
            var n = self.next();
  203bf2:	48 8b 7d f0          	mov    rdi,QWORD PTR [rbp-0x10]
  203bf6:	e8 45 12 00 00       	call   204e40 <Xoroshiro128_next>
  203bfb:	48 89 45 d0          	mov    QWORD PTR [rbp-0x30],rax
            while (i < buf.len) : (i += 1) {
  203bff:	48 8b 45 e8          	mov    rax,QWORD PTR [rbp-0x18]
  203c03:	48 8b 4d c8          	mov    rcx,QWORD PTR [rbp-0x38]
  203c07:	48 3b 41 08          	cmp    rax,QWORD PTR [rcx+0x8]
  203c0b:	73 1b                	jae    203c28 <Xoroshiro128_fill+0xb8>
                buf[i] = @truncate(u8, n);
  203c0d:	48 8b 45 e8          	mov    rax,QWORD PTR [rbp-0x18]
  203c11:	48 8b 4d c8          	mov    rcx,QWORD PTR [rbp-0x38]
  203c15:	48 3b 41 08          	cmp    rax,QWORD PTR [rcx+0x8]
  203c19:	48 89 45 a0          	mov    QWORD PTR [rbp-0x60],rax
  203c1d:	0f 82 e1 03 00 00    	jb     204004 <Xoroshiro128_fill+0x494>
  203c23:	e9 cc 03 00 00       	jmp    203ff4 <Xoroshiro128_fill+0x484>
        if (i != buf.len) {
  203c28:	eb 02                	jmp    203c2c <Xoroshiro128_fill+0xbc>
  203c2a:	eb 00                	jmp    203c2c <Xoroshiro128_fill+0xbc>
    fn fill(r: *Random, buf: []u8) void {
  203c2c:	48 81 c4 f0 00 00 00 	add    rsp,0xf0
  203c33:	5d                   	pop    rbp
  203c34:	c3                   	ret    
  203c35:	48 8d 3d dc 16 02 00 	lea    rdi,[rip+0x216dc]        # 225318 <__unnamed_5>
  203c3c:	31 c0                	xor    eax,eax
  203c3e:	89 c6                	mov    esi,eax
        const aligned_len = buf.len - (buf.len & 7);
  203c40:	e8 7b f4 ff ff       	call   2030c0 <panic>
  203c45:	48 8b 45 c0          	mov    rax,QWORD PTR [rbp-0x40]
  203c49:	48 89 45 e0          	mov    QWORD PTR [rbp-0x20],rax
        while (i < aligned_len) : (i += 8) {
  203c4d:	e9 65 ff ff ff       	jmp    203bb7 <Xoroshiro128_fill+0x47>
  203c52:	48 8d 3d bf 16 02 00 	lea    rdi,[rip+0x216bf]        # 225318 <__unnamed_5>
  203c59:	31 c0                	xor    eax,eax
  203c5b:	89 c6                	mov    esi,eax
                buf[i + j] = @truncate(u8, n);
  203c5d:	e8 5e f4 ff ff       	call   2030c0 <panic>
  203c62:	48 8b 45 b0          	mov    rax,QWORD PTR [rbp-0x50]
  203c66:	48 8b 4d c8          	mov    rcx,QWORD PTR [rbp-0x38]
  203c6a:	48 3b 41 08          	cmp    rax,QWORD PTR [rcx+0x8]
  203c6e:	72 10                	jb     203c80 <Xoroshiro128_fill+0x110>
  203c70:	48 8d 3d 89 16 02 00 	lea    rdi,[rip+0x21689]        # 225300 <__unnamed_4>
  203c77:	31 c0                	xor    eax,eax
  203c79:	89 c6                	mov    esi,eax
  203c7b:	e8 40 f4 ff ff       	call   2030c0 <panic>
  203c80:	48 8b 45 c8          	mov    rax,QWORD PTR [rbp-0x38]
  203c84:	48 8b 08             	mov    rcx,QWORD PTR [rax]
  203c87:	48 8b 55 d8          	mov    rdx,QWORD PTR [rbp-0x28]
  203c8b:	40 88 d6             	mov    sil,dl
  203c8e:	48 8b 55 b0          	mov    rdx,QWORD PTR [rbp-0x50]
  203c92:	40 88 34 11          	mov    BYTE PTR [rcx+rdx*1],sil
                n >>= 8;
  203c96:	48 8b 4d d8          	mov    rcx,QWORD PTR [rbp-0x28]
  203c9a:	48 c1 e9 08          	shr    rcx,0x8
  203c9e:	48 89 4d d8          	mov    QWORD PTR [rbp-0x28],rcx
                buf[i + j] = @truncate(u8, n);
  203ca2:	48 8b 4d e8          	mov    rcx,QWORD PTR [rbp-0x18]
  203ca6:	48 83 c1 01          	add    rcx,0x1
  203caa:	40 0f 92 c6          	setb   sil
  203cae:	48 89 4d 98          	mov    QWORD PTR [rbp-0x68],rcx
  203cb2:	40 88 75 97          	mov    BYTE PTR [rbp-0x69],sil
  203cb6:	72 02                	jb     203cba <Xoroshiro128_fill+0x14a>
  203cb8:	eb 10                	jmp    203cca <Xoroshiro128_fill+0x15a>
  203cba:	48 8d 3d 57 16 02 00 	lea    rdi,[rip+0x21657]        # 225318 <__unnamed_5>
  203cc1:	31 c0                	xor    eax,eax
  203cc3:	89 c6                	mov    esi,eax
  203cc5:	e8 f6 f3 ff ff       	call   2030c0 <panic>
  203cca:	48 8b 45 98          	mov    rax,QWORD PTR [rbp-0x68]
  203cce:	48 8b 4d c8          	mov    rcx,QWORD PTR [rbp-0x38]
  203cd2:	48 3b 41 08          	cmp    rax,QWORD PTR [rcx+0x8]
  203cd6:	72 10                	jb     203ce8 <Xoroshiro128_fill+0x178>
  203cd8:	48 8d 3d 21 16 02 00 	lea    rdi,[rip+0x21621]        # 225300 <__unnamed_4>
  203cdf:	31 c0                	xor    eax,eax
  203ce1:	89 c6                	mov    esi,eax
  203ce3:	e8 d8 f3 ff ff       	call   2030c0 <panic>
  203ce8:	48 8b 45 c8          	mov    rax,QWORD PTR [rbp-0x38]
  203cec:	48 8b 08             	mov    rcx,QWORD PTR [rax]
  203cef:	48 8b 55 d8          	mov    rdx,QWORD PTR [rbp-0x28]
  203cf3:	40 88 d6             	mov    sil,dl
  203cf6:	48 8b 55 98          	mov    rdx,QWORD PTR [rbp-0x68]
  203cfa:	40 88 34 11          	mov    BYTE PTR [rcx+rdx*1],sil
                n >>= 8;
  203cfe:	48 8b 4d d8          	mov    rcx,QWORD PTR [rbp-0x28]
  203d02:	48 c1 e9 08          	shr    rcx,0x8
  203d06:	48 89 4d d8          	mov    QWORD PTR [rbp-0x28],rcx
                buf[i + j] = @truncate(u8, n);
  203d0a:	48 8b 4d e8          	mov    rcx,QWORD PTR [rbp-0x18]
  203d0e:	48 83 c1 02          	add    rcx,0x2
  203d12:	40 0f 92 c6          	setb   sil
  203d16:	48 89 4d 88          	mov    QWORD PTR [rbp-0x78],rcx
  203d1a:	40 88 75 87          	mov    BYTE PTR [rbp-0x79],sil
  203d1e:	72 02                	jb     203d22 <Xoroshiro128_fill+0x1b2>
  203d20:	eb 10                	jmp    203d32 <Xoroshiro128_fill+0x1c2>
  203d22:	48 8d 3d ef 15 02 00 	lea    rdi,[rip+0x215ef]        # 225318 <__unnamed_5>
  203d29:	31 c0                	xor    eax,eax
  203d2b:	89 c6                	mov    esi,eax
  203d2d:	e8 8e f3 ff ff       	call   2030c0 <panic>
  203d32:	48 8b 45 88          	mov    rax,QWORD PTR [rbp-0x78]
  203d36:	48 8b 4d c8          	mov    rcx,QWORD PTR [rbp-0x38]
  203d3a:	48 3b 41 08          	cmp    rax,QWORD PTR [rcx+0x8]
  203d3e:	72 10                	jb     203d50 <Xoroshiro128_fill+0x1e0>
  203d40:	48 8d 3d b9 15 02 00 	lea    rdi,[rip+0x215b9]        # 225300 <__unnamed_4>
  203d47:	31 c0                	xor    eax,eax
  203d49:	89 c6                	mov    esi,eax
  203d4b:	e8 70 f3 ff ff       	call   2030c0 <panic>
  203d50:	48 8b 45 c8          	mov    rax,QWORD PTR [rbp-0x38]
  203d54:	48 8b 08             	mov    rcx,QWORD PTR [rax]
  203d57:	48 8b 55 d8          	mov    rdx,QWORD PTR [rbp-0x28]
  203d5b:	40 88 d6             	mov    sil,dl
  203d5e:	48 8b 55 88          	mov    rdx,QWORD PTR [rbp-0x78]
  203d62:	40 88 34 11          	mov    BYTE PTR [rcx+rdx*1],sil
                n >>= 8;
  203d66:	48 8b 4d d8          	mov    rcx,QWORD PTR [rbp-0x28]
  203d6a:	48 c1 e9 08          	shr    rcx,0x8
  203d6e:	48 89 4d d8          	mov    QWORD PTR [rbp-0x28],rcx
                buf[i + j] = @truncate(u8, n);
  203d72:	48 8b 4d e8          	mov    rcx,QWORD PTR [rbp-0x18]
  203d76:	48 83 c1 03          	add    rcx,0x3
  203d7a:	40 0f 92 c6          	setb   sil
  203d7e:	48 89 8d 78 ff ff ff 	mov    QWORD PTR [rbp-0x88],rcx
  203d85:	40 88 b5 77 ff ff ff 	mov    BYTE PTR [rbp-0x89],sil
  203d8c:	72 02                	jb     203d90 <Xoroshiro128_fill+0x220>
  203d8e:	eb 10                	jmp    203da0 <Xoroshiro128_fill+0x230>
  203d90:	48 8d 3d 81 15 02 00 	lea    rdi,[rip+0x21581]        # 225318 <__unnamed_5>
  203d97:	31 c0                	xor    eax,eax
  203d99:	89 c6                	mov    esi,eax
  203d9b:	e8 20 f3 ff ff       	call   2030c0 <panic>
  203da0:	48 8b 85 78 ff ff ff 	mov    rax,QWORD PTR [rbp-0x88]
  203da7:	48 8b 4d c8          	mov    rcx,QWORD PTR [rbp-0x38]
  203dab:	48 3b 41 08          	cmp    rax,QWORD PTR [rcx+0x8]
  203daf:	72 10                	jb     203dc1 <Xoroshiro128_fill+0x251>
  203db1:	48 8d 3d 48 15 02 00 	lea    rdi,[rip+0x21548]        # 225300 <__unnamed_4>
  203db8:	31 c0                	xor    eax,eax
  203dba:	89 c6                	mov    esi,eax
  203dbc:	e8 ff f2 ff ff       	call   2030c0 <panic>
  203dc1:	48 8b 45 c8          	mov    rax,QWORD PTR [rbp-0x38]
  203dc5:	48 8b 08             	mov    rcx,QWORD PTR [rax]
  203dc8:	48 8b 55 d8          	mov    rdx,QWORD PTR [rbp-0x28]
  203dcc:	40 88 d6             	mov    sil,dl
  203dcf:	48 8b 95 78 ff ff ff 	mov    rdx,QWORD PTR [rbp-0x88]
  203dd6:	40 88 34 11          	mov    BYTE PTR [rcx+rdx*1],sil
                n >>= 8;
  203dda:	48 8b 4d d8          	mov    rcx,QWORD PTR [rbp-0x28]
  203dde:	48 c1 e9 08          	shr    rcx,0x8
  203de2:	48 89 4d d8          	mov    QWORD PTR [rbp-0x28],rcx
                buf[i + j] = @truncate(u8, n);
  203de6:	48 8b 4d e8          	mov    rcx,QWORD PTR [rbp-0x18]
  203dea:	48 83 c1 04          	add    rcx,0x4
  203dee:	40 0f 92 c6          	setb   sil
  203df2:	48 89 8d 68 ff ff ff 	mov    QWORD PTR [rbp-0x98],rcx
  203df9:	40 88 b5 67 ff ff ff 	mov    BYTE PTR [rbp-0x99],sil
  203e00:	72 02                	jb     203e04 <Xoroshiro128_fill+0x294>
  203e02:	eb 10                	jmp    203e14 <Xoroshiro128_fill+0x2a4>
  203e04:	48 8d 3d 0d 15 02 00 	lea    rdi,[rip+0x2150d]        # 225318 <__unnamed_5>
  203e0b:	31 c0                	xor    eax,eax
  203e0d:	89 c6                	mov    esi,eax
  203e0f:	e8 ac f2 ff ff       	call   2030c0 <panic>
  203e14:	48 8b 85 68 ff ff ff 	mov    rax,QWORD PTR [rbp-0x98]
  203e1b:	48 8b 4d c8          	mov    rcx,QWORD PTR [rbp-0x38]
  203e1f:	48 3b 41 08          	cmp    rax,QWORD PTR [rcx+0x8]
  203e23:	72 10                	jb     203e35 <Xoroshiro128_fill+0x2c5>
  203e25:	48 8d 3d d4 14 02 00 	lea    rdi,[rip+0x214d4]        # 225300 <__unnamed_4>
  203e2c:	31 c0                	xor    eax,eax
  203e2e:	89 c6                	mov    esi,eax
  203e30:	e8 8b f2 ff ff       	call   2030c0 <panic>
  203e35:	48 8b 45 c8          	mov    rax,QWORD PTR [rbp-0x38]
  203e39:	48 8b 08             	mov    rcx,QWORD PTR [rax]
  203e3c:	48 8b 55 d8          	mov    rdx,QWORD PTR [rbp-0x28]
  203e40:	40 88 d6             	mov    sil,dl
  203e43:	48 8b 95 68 ff ff ff 	mov    rdx,QWORD PTR [rbp-0x98]
  203e4a:	40 88 34 11          	mov    BYTE PTR [rcx+rdx*1],sil
                n >>= 8;
  203e4e:	48 8b 4d d8          	mov    rcx,QWORD PTR [rbp-0x28]
  203e52:	48 c1 e9 08          	shr    rcx,0x8
  203e56:	48 89 4d d8          	mov    QWORD PTR [rbp-0x28],rcx
                buf[i + j] = @truncate(u8, n);
  203e5a:	48 8b 4d e8          	mov    rcx,QWORD PTR [rbp-0x18]
  203e5e:	48 83 c1 05          	add    rcx,0x5
  203e62:	40 0f 92 c6          	setb   sil
  203e66:	48 89 8d 58 ff ff ff 	mov    QWORD PTR [rbp-0xa8],rcx
  203e6d:	40 88 b5 57 ff ff ff 	mov    BYTE PTR [rbp-0xa9],sil
  203e74:	72 02                	jb     203e78 <Xoroshiro128_fill+0x308>
  203e76:	eb 10                	jmp    203e88 <Xoroshiro128_fill+0x318>
  203e78:	48 8d 3d 99 14 02 00 	lea    rdi,[rip+0x21499]        # 225318 <__unnamed_5>
  203e7f:	31 c0                	xor    eax,eax
  203e81:	89 c6                	mov    esi,eax
  203e83:	e8 38 f2 ff ff       	call   2030c0 <panic>
  203e88:	48 8b 85 58 ff ff ff 	mov    rax,QWORD PTR [rbp-0xa8]
  203e8f:	48 8b 4d c8          	mov    rcx,QWORD PTR [rbp-0x38]
  203e93:	48 3b 41 08          	cmp    rax,QWORD PTR [rcx+0x8]
  203e97:	72 10                	jb     203ea9 <Xoroshiro128_fill+0x339>
  203e99:	48 8d 3d 60 14 02 00 	lea    rdi,[rip+0x21460]        # 225300 <__unnamed_4>
  203ea0:	31 c0                	xor    eax,eax
  203ea2:	89 c6                	mov    esi,eax
  203ea4:	e8 17 f2 ff ff       	call   2030c0 <panic>
  203ea9:	48 8b 45 c8          	mov    rax,QWORD PTR [rbp-0x38]
  203ead:	48 8b 08             	mov    rcx,QWORD PTR [rax]
  203eb0:	48 8b 55 d8          	mov    rdx,QWORD PTR [rbp-0x28]
  203eb4:	40 88 d6             	mov    sil,dl
  203eb7:	48 8b 95 58 ff ff ff 	mov    rdx,QWORD PTR [rbp-0xa8]
  203ebe:	40 88 34 11          	mov    BYTE PTR [rcx+rdx*1],sil
                n >>= 8;
  203ec2:	48 8b 4d d8          	mov    rcx,QWORD PTR [rbp-0x28]
  203ec6:	48 c1 e9 08          	shr    rcx,0x8
  203eca:	48 89 4d d8          	mov    QWORD PTR [rbp-0x28],rcx
                buf[i + j] = @truncate(u8, n);
  203ece:	48 8b 4d e8          	mov    rcx,QWORD PTR [rbp-0x18]
  203ed2:	48 83 c1 06          	add    rcx,0x6
  203ed6:	40 0f 92 c6          	setb   sil
  203eda:	48 89 8d 48 ff ff ff 	mov    QWORD PTR [rbp-0xb8],rcx
  203ee1:	40 88 b5 47 ff ff ff 	mov    BYTE PTR [rbp-0xb9],sil
  203ee8:	72 02                	jb     203eec <Xoroshiro128_fill+0x37c>
  203eea:	eb 10                	jmp    203efc <Xoroshiro128_fill+0x38c>
  203eec:	48 8d 3d 25 14 02 00 	lea    rdi,[rip+0x21425]        # 225318 <__unnamed_5>
  203ef3:	31 c0                	xor    eax,eax
  203ef5:	89 c6                	mov    esi,eax
  203ef7:	e8 c4 f1 ff ff       	call   2030c0 <panic>
  203efc:	48 8b 85 48 ff ff ff 	mov    rax,QWORD PTR [rbp-0xb8]
  203f03:	48 8b 4d c8          	mov    rcx,QWORD PTR [rbp-0x38]
  203f07:	48 3b 41 08          	cmp    rax,QWORD PTR [rcx+0x8]
  203f0b:	72 10                	jb     203f1d <Xoroshiro128_fill+0x3ad>
  203f0d:	48 8d 3d ec 13 02 00 	lea    rdi,[rip+0x213ec]        # 225300 <__unnamed_4>
  203f14:	31 c0                	xor    eax,eax
  203f16:	89 c6                	mov    esi,eax
  203f18:	e8 a3 f1 ff ff       	call   2030c0 <panic>
  203f1d:	48 8b 45 c8          	mov    rax,QWORD PTR [rbp-0x38]
  203f21:	48 8b 08             	mov    rcx,QWORD PTR [rax]
  203f24:	48 8b 55 d8          	mov    rdx,QWORD PTR [rbp-0x28]
  203f28:	40 88 d6             	mov    sil,dl
  203f2b:	48 8b 95 48 ff ff ff 	mov    rdx,QWORD PTR [rbp-0xb8]
  203f32:	40 88 34 11          	mov    BYTE PTR [rcx+rdx*1],sil
                n >>= 8;
  203f36:	48 8b 4d d8          	mov    rcx,QWORD PTR [rbp-0x28]
  203f3a:	48 c1 e9 08          	shr    rcx,0x8
  203f3e:	48 89 4d d8          	mov    QWORD PTR [rbp-0x28],rcx
                buf[i + j] = @truncate(u8, n);
  203f42:	48 8b 4d e8          	mov    rcx,QWORD PTR [rbp-0x18]
  203f46:	48 83 c1 07          	add    rcx,0x7
  203f4a:	40 0f 92 c6          	setb   sil
  203f4e:	48 89 8d 38 ff ff ff 	mov    QWORD PTR [rbp-0xc8],rcx
  203f55:	40 88 b5 37 ff ff ff 	mov    BYTE PTR [rbp-0xc9],sil
  203f5c:	72 02                	jb     203f60 <Xoroshiro128_fill+0x3f0>
  203f5e:	eb 10                	jmp    203f70 <Xoroshiro128_fill+0x400>
  203f60:	48 8d 3d b1 13 02 00 	lea    rdi,[rip+0x213b1]        # 225318 <__unnamed_5>
  203f67:	31 c0                	xor    eax,eax
  203f69:	89 c6                	mov    esi,eax
  203f6b:	e8 50 f1 ff ff       	call   2030c0 <panic>
  203f70:	48 8b 85 38 ff ff ff 	mov    rax,QWORD PTR [rbp-0xc8]
  203f77:	48 8b 4d c8          	mov    rcx,QWORD PTR [rbp-0x38]
  203f7b:	48 3b 41 08          	cmp    rax,QWORD PTR [rcx+0x8]
  203f7f:	72 10                	jb     203f91 <Xoroshiro128_fill+0x421>
  203f81:	48 8d 3d 78 13 02 00 	lea    rdi,[rip+0x21378]        # 225300 <__unnamed_4>
  203f88:	31 c0                	xor    eax,eax
  203f8a:	89 c6                	mov    esi,eax
  203f8c:	e8 2f f1 ff ff       	call   2030c0 <panic>
  203f91:	48 8b 45 c8          	mov    rax,QWORD PTR [rbp-0x38]
  203f95:	48 8b 08             	mov    rcx,QWORD PTR [rax]
  203f98:	48 8b 55 d8          	mov    rdx,QWORD PTR [rbp-0x28]
  203f9c:	40 88 d6             	mov    sil,dl
  203f9f:	48 8b 95 38 ff ff ff 	mov    rdx,QWORD PTR [rbp-0xc8]
  203fa6:	40 88 34 11          	mov    BYTE PTR [rcx+rdx*1],sil
                n >>= 8;
  203faa:	48 8b 4d d8          	mov    rcx,QWORD PTR [rbp-0x28]
  203fae:	48 c1 e9 08          	shr    rcx,0x8
  203fb2:	48 89 4d d8          	mov    QWORD PTR [rbp-0x28],rcx
        while (i < aligned_len) : (i += 8) {
  203fb6:	48 8b 4d e8          	mov    rcx,QWORD PTR [rbp-0x18]
  203fba:	48 83 c1 08          	add    rcx,0x8
  203fbe:	40 0f 92 c6          	setb   sil
  203fc2:	48 89 8d 28 ff ff ff 	mov    QWORD PTR [rbp-0xd8],rcx
  203fc9:	40 88 b5 27 ff ff ff 	mov    BYTE PTR [rbp-0xd9],sil
  203fd0:	72 02                	jb     203fd4 <Xoroshiro128_fill+0x464>
  203fd2:	eb 10                	jmp    203fe4 <Xoroshiro128_fill+0x474>
  203fd4:	48 8d 3d 3d 13 02 00 	lea    rdi,[rip+0x2133d]        # 225318 <__unnamed_5>
  203fdb:	31 c0                	xor    eax,eax
  203fdd:	89 c6                	mov    esi,eax
  203fdf:	e8 dc f0 ff ff       	call   2030c0 <panic>
  203fe4:	48 8b 85 28 ff ff ff 	mov    rax,QWORD PTR [rbp-0xd8]
  203feb:	48 89 45 e8          	mov    QWORD PTR [rbp-0x18],rax
  203fef:	e9 c3 fb ff ff       	jmp    203bb7 <Xoroshiro128_fill+0x47>
  203ff4:	48 8d 3d 05 13 02 00 	lea    rdi,[rip+0x21305]        # 225300 <__unnamed_4>
  203ffb:	31 c0                	xor    eax,eax
  203ffd:	89 c6                	mov    esi,eax
                buf[i] = @truncate(u8, n);
  203fff:	e8 bc f0 ff ff       	call   2030c0 <panic>
  204004:	48 8b 45 c8          	mov    rax,QWORD PTR [rbp-0x38]
  204008:	48 8b 08             	mov    rcx,QWORD PTR [rax]
  20400b:	48 8b 55 d0          	mov    rdx,QWORD PTR [rbp-0x30]
  20400f:	40 88 d6             	mov    sil,dl
  204012:	48 8b 55 a0          	mov    rdx,QWORD PTR [rbp-0x60]
  204016:	40 88 34 11          	mov    BYTE PTR [rcx+rdx*1],sil
                n >>= 8;
  20401a:	48 8b 4d d0          	mov    rcx,QWORD PTR [rbp-0x30]
  20401e:	48 c1 e9 08          	shr    rcx,0x8
  204022:	48 89 4d d0          	mov    QWORD PTR [rbp-0x30],rcx
            while (i < buf.len) : (i += 1) {
  204026:	48 8b 4d e8          	mov    rcx,QWORD PTR [rbp-0x18]
  20402a:	48 83 c1 01          	add    rcx,0x1
  20402e:	40 0f 92 c6          	setb   sil
  204032:	48 89 8d 18 ff ff ff 	mov    QWORD PTR [rbp-0xe8],rcx
  204039:	40 88 b5 17 ff ff ff 	mov    BYTE PTR [rbp-0xe9],sil
  204040:	72 02                	jb     204044 <Xoroshiro128_fill+0x4d4>
  204042:	eb 10                	jmp    204054 <Xoroshiro128_fill+0x4e4>
  204044:	48 8d 3d cd 12 02 00 	lea    rdi,[rip+0x212cd]        # 225318 <__unnamed_5>
  20404b:	31 c0                	xor    eax,eax
  20404d:	89 c6                	mov    esi,eax
  20404f:	e8 6c f0 ff ff       	call   2030c0 <panic>
  204054:	48 8b 85 18 ff ff ff 	mov    rax,QWORD PTR [rbp-0xe8]
  20405b:	48 89 45 e8          	mov    QWORD PTR [rbp-0x18],rax
  20405f:	e9 9b fb ff ff       	jmp    203bff <Xoroshiro128_fill+0x8f>
  204064:	66 66 66 2e 0f 1f 84 	data16 data16 nop WORD PTR cs:[rax+rax*1+0x0]
  20406b:	00 00 00 00 00 

0000000000204070 <Xoroshiro128_seed>:
    fn seed(self: *Xoroshiro128, init_s: u64) void {
  204070:	55                   	push   rbp
  204071:	48 89 e5             	mov    rbp,rsp
  204074:	48 83 ec 30          	sub    rsp,0x30
  204078:	48 8d 45 f8          	lea    rax,[rbp-0x8]
  20407c:	48 89 7d f0          	mov    QWORD PTR [rbp-0x10],rdi
  204080:	48 89 75 e8          	mov    QWORD PTR [rbp-0x18],rsi
        var gen = SplitMix64.init(init_s);
  204084:	48 8b 75 e8          	mov    rsi,QWORD PTR [rbp-0x18]
  204088:	48 89 c7             	mov    rdi,rax
  20408b:	e8 50 0e 00 00       	call   204ee0 <SplitMix64_init>
  204090:	48 8d 7d e0          	lea    rdi,[rbp-0x20]
  204094:	48 8b 45 f8          	mov    rax,QWORD PTR [rbp-0x8]
  204098:	48 89 45 e0          	mov    QWORD PTR [rbp-0x20],rax
        self.s[0] = gen.next();
  20409c:	48 8b 45 f0          	mov    rax,QWORD PTR [rbp-0x10]
  2040a0:	48 89 45 d8          	mov    QWORD PTR [rbp-0x28],rax
  2040a4:	e8 57 0e 00 00       	call   204f00 <SplitMix64_next>
  2040a9:	48 8d 7d e0          	lea    rdi,[rbp-0x20]
  2040ad:	48 8b 75 d8          	mov    rsi,QWORD PTR [rbp-0x28]
  2040b1:	48 89 46 08          	mov    QWORD PTR [rsi+0x8],rax
        self.s[1] = gen.next();
  2040b5:	48 8b 45 f0          	mov    rax,QWORD PTR [rbp-0x10]
  2040b9:	48 89 45 d0          	mov    QWORD PTR [rbp-0x30],rax
  2040bd:	e8 3e 0e 00 00       	call   204f00 <SplitMix64_next>
  2040c2:	48 8b 75 d0          	mov    rsi,QWORD PTR [rbp-0x30]
  2040c6:	48 89 46 10          	mov    QWORD PTR [rsi+0x10],rax
    fn seed(self: *Xoroshiro128, init_s: u64) void {
  2040ca:	48 83 c4 30          	add    rsp,0x30
  2040ce:	5d                   	pop    rbp
  2040cf:	c3                   	ret    

00000000002040d0 <Random_bytes>:
    pub fn bytes(r: *Random, buf: []u8) void {
  2040d0:	55                   	push   rbp
  2040d1:	48 89 e5             	mov    rbp,rsp
  2040d4:	48 83 ec 10          	sub    rsp,0x10
  2040d8:	48 89 7d f8          	mov    QWORD PTR [rbp-0x8],rdi
        r.fillFn(r, buf);
  2040dc:	48 8b 7d f8          	mov    rdi,QWORD PTR [rbp-0x8]
  2040e0:	48 8b 3f             	mov    rdi,QWORD PTR [rdi]
  2040e3:	48 8b 45 f8          	mov    rax,QWORD PTR [rbp-0x8]
  2040e7:	48 89 7d f0          	mov    QWORD PTR [rbp-0x10],rdi
  2040eb:	48 89 c7             	mov    rdi,rax
  2040ee:	48 8b 45 f0          	mov    rax,QWORD PTR [rbp-0x10]
  2040f2:	ff d0                	call   rax
    pub fn bytes(r: *Random, buf: []u8) void {
  2040f4:	48 83 c4 10          	add    rsp,0x10
  2040f8:	5d                   	pop    rbp
  2040f9:	c3                   	ret    
  2040fa:	66 0f 1f 44 00 00    	nop    WORD PTR [rax+rax*1+0x0]

0000000000204100 <readInt>:

/// Reads an integer from memory with size equal to bytes.len.
/// T specifies the return type, which must be large enough to store
/// the result.
/// See also ::readIntBE or ::readIntLE.
pub fn readInt(bytes: []const u8, comptime T: type, endian: builtin.Endian) T {
  204100:	55                   	push   rbp
  204101:	48 89 e5             	mov    rbp,rsp
  204104:	48 83 ec 70          	sub    rsp,0x70
  204108:	40 88 f0             	mov    al,sil
  20410b:	24 01                	and    al,0x1
  20410d:	88 45 ff             	mov    BYTE PTR [rbp-0x1],al
    if (T.bit_count == 8) {
        return bytes[0];
    }
    var result: T = 0;
  204110:	c7 45 f8 00 00 00 00 	mov    DWORD PTR [rbp-0x8],0x0
    switch (endian) {
  204117:	8a 45 ff             	mov    al,BYTE PTR [rbp-0x1]
  20411a:	84 c0                	test   al,al
  20411c:	48 89 7d d0          	mov    QWORD PTR [rbp-0x30],rdi
  204120:	88 45 cf             	mov    BYTE PTR [rbp-0x31],al
  204123:	75 7e                	jne    2041a3 <readInt+0xa3>
  204125:	eb 00                	jmp    204127 <readInt+0x27>
  204127:	8a 45 cf             	mov    al,BYTE PTR [rbp-0x31]
  20412a:	f6 d0                	not    al
  20412c:	a8 01                	test   al,0x1
  20412e:	0f 84 ee 00 00 00    	je     204222 <readInt+0x122>
  204134:	eb 00                	jmp    204136 <readInt+0x36>
  204136:	48 8d 7d f7          	lea    rdi,[rbp-0x9]
  20413a:	be aa 00 00 00       	mov    esi,0xaa
  20413f:	b8 01 00 00 00       	mov    eax,0x1
  204144:	89 c2                	mov    edx,eax
        builtin.Endian.Big => {
            for (bytes) |b| {
  204146:	e8 65 db 01 00       	call   221cb0 <memset>
  20414b:	48 c7 45 e8 00 00 00 	mov    QWORD PTR [rbp-0x18],0x0
  204152:	00 
  204153:	48 8b 55 d0          	mov    rdx,QWORD PTR [rbp-0x30]
  204157:	48 8b 7a 08          	mov    rdi,QWORD PTR [rdx+0x8]
  20415b:	48 89 7d c0          	mov    QWORD PTR [rbp-0x40],rdi
  20415f:	48 8b 45 e8          	mov    rax,QWORD PTR [rbp-0x18]
  204163:	48 8b 4d c0          	mov    rcx,QWORD PTR [rbp-0x40]
  204167:	48 39 c8             	cmp    rax,rcx
  20416a:	48 89 45 b8          	mov    QWORD PTR [rbp-0x48],rax
  20416e:	73 2e                	jae    20419e <readInt+0x9e>
  204170:	48 8b 45 d0          	mov    rax,QWORD PTR [rbp-0x30]
  204174:	48 8b 08             	mov    rcx,QWORD PTR [rax]
  204177:	48 8b 55 b8          	mov    rdx,QWORD PTR [rbp-0x48]
  20417b:	40 8a 34 11          	mov    sil,BYTE PTR [rcx+rdx*1]
  20417f:	40 88 75 f7          	mov    BYTE PTR [rbp-0x9],sil
                result = (result << 8) | b;
  204183:	8b 7d f8             	mov    edi,DWORD PTR [rbp-0x8]
  204186:	c1 e7 08             	shl    edi,0x8
  204189:	44 0f b6 45 f7       	movzx  r8d,BYTE PTR [rbp-0x9]
  20418e:	44 09 c7             	or     edi,r8d
  204191:	89 7d f8             	mov    DWORD PTR [rbp-0x8],edi
            for (bytes) |b| {
  204194:	48 83 c2 01          	add    rdx,0x1
  204198:	48 89 55 e8          	mov    QWORD PTR [rbp-0x18],rdx
  20419c:	eb c1                	jmp    20415f <readInt+0x5f>
    switch (endian) {
  20419e:	e9 8f 00 00 00       	jmp    204232 <readInt+0x132>
  2041a3:	48 8d 7d e7          	lea    rdi,[rbp-0x19]
  2041a7:	be aa 00 00 00       	mov    esi,0xaa
  2041ac:	b8 01 00 00 00       	mov    eax,0x1
  2041b1:	89 c2                	mov    edx,eax
            }
        },
        builtin.Endian.Little => {
            const ShiftType = math.Log2Int(T);
            for (bytes) |b, index| {
  2041b3:	e8 f8 da 01 00       	call   221cb0 <memset>
  2041b8:	48 c7 45 d8 00 00 00 	mov    QWORD PTR [rbp-0x28],0x0
  2041bf:	00 
  2041c0:	48 8b 55 d0          	mov    rdx,QWORD PTR [rbp-0x30]
  2041c4:	48 8b 7a 08          	mov    rdi,QWORD PTR [rdx+0x8]
  2041c8:	48 89 7d b0          	mov    QWORD PTR [rbp-0x50],rdi
  2041cc:	48 8b 45 d8          	mov    rax,QWORD PTR [rbp-0x28]
  2041d0:	48 8b 4d b0          	mov    rcx,QWORD PTR [rbp-0x50]
  2041d4:	48 39 c8             	cmp    rax,rcx
  2041d7:	48 89 45 a8          	mov    QWORD PTR [rbp-0x58],rax
  2041db:	73 43                	jae    204220 <readInt+0x120>
  2041dd:	b8 08 00 00 00       	mov    eax,0x8
  2041e2:	89 c1                	mov    ecx,eax
  2041e4:	48 8b 55 d0          	mov    rdx,QWORD PTR [rbp-0x30]
  2041e8:	48 8b 32             	mov    rsi,QWORD PTR [rdx]
  2041eb:	48 8b 7d a8          	mov    rdi,QWORD PTR [rbp-0x58]
  2041ef:	44 8a 04 3e          	mov    r8b,BYTE PTR [rsi+rdi*1]
  2041f3:	44 88 45 e7          	mov    BYTE PTR [rbp-0x19],r8b
                result = result | (T(b) << @intCast(ShiftType, index * 8));
  2041f7:	8b 45 f8             	mov    eax,DWORD PTR [rbp-0x8]
  2041fa:	44 0f b6 4d e7       	movzx  r9d,BYTE PTR [rbp-0x19]
  2041ff:	48 8b 75 d8          	mov    rsi,QWORD PTR [rbp-0x28]
  204203:	89 45 a4             	mov    DWORD PTR [rbp-0x5c],eax
  204206:	48 89 f0             	mov    rax,rsi
  204209:	48 f7 e1             	mul    rcx
  20420c:	41 0f 90 c0          	seto   r8b
  204210:	44 89 4d a0          	mov    DWORD PTR [rbp-0x60],r9d
  204214:	48 89 45 98          	mov    QWORD PTR [rbp-0x68],rax
  204218:	44 88 45 97          	mov    BYTE PTR [rbp-0x69],r8b
  20421c:	70 1d                	jo     20423b <readInt+0x13b>
  20421e:	eb 2b                	jmp    20424b <readInt+0x14b>
    switch (endian) {
  204220:	eb 10                	jmp    204232 <readInt+0x132>
  204222:	48 8d 3d 97 11 02 00 	lea    rdi,[rip+0x21197]        # 2253c0 <__unnamed_7>
  204229:	31 c0                	xor    eax,eax
  20422b:	89 c6                	mov    esi,eax
  20422d:	e8 8e ee ff ff       	call   2030c0 <panic>
            }
        },
    }
    return result;
  204232:	8b 45 f8             	mov    eax,DWORD PTR [rbp-0x8]
  204235:	48 83 c4 70          	add    rsp,0x70
  204239:	5d                   	pop    rbp
  20423a:	c3                   	ret    
  20423b:	48 8d 3d d6 10 02 00 	lea    rdi,[rip+0x210d6]        # 225318 <__unnamed_5>
  204242:	31 c0                	xor    eax,eax
  204244:	89 c6                	mov    esi,eax
                result = result | (T(b) << @intCast(ShiftType, index * 8));
  204246:	e8 75 ee ff ff       	call   2030c0 <panic>
  20424b:	48 8b 45 98          	mov    rax,QWORD PTR [rbp-0x68]
  20424f:	88 c1                	mov    cl,al
  204251:	89 c2                	mov    edx,eax
  204253:	83 e2 1f             	and    edx,0x1f
  204256:	89 d6                	mov    esi,edx
  204258:	48 39 f0             	cmp    rax,rsi
  20425b:	88 4d 96             	mov    BYTE PTR [rbp-0x6a],cl
  20425e:	75 26                	jne    204286 <readInt+0x186>
  204260:	8a 45 96             	mov    al,BYTE PTR [rbp-0x6a]
  204263:	24 1f                	and    al,0x1f
  204265:	0f b6 c8             	movzx  ecx,al
  204268:	8b 55 a0             	mov    edx,DWORD PTR [rbp-0x60]
  20426b:	d3 e2                	shl    edx,cl
  20426d:	8b 75 a4             	mov    esi,DWORD PTR [rbp-0x5c]
  204270:	09 d6                	or     esi,edx
  204272:	89 75 f8             	mov    DWORD PTR [rbp-0x8],esi
            for (bytes) |b, index| {
  204275:	48 8b 7d a8          	mov    rdi,QWORD PTR [rbp-0x58]
  204279:	48 83 c7 01          	add    rdi,0x1
  20427d:	48 89 7d d8          	mov    QWORD PTR [rbp-0x28],rdi
  204281:	e9 46 ff ff ff       	jmp    2041cc <readInt+0xcc>
  204286:	48 8d 3d 1b 11 02 00 	lea    rdi,[rip+0x2111b]        # 2253a8 <__unnamed_8>
  20428d:	31 c0                	xor    eax,eax
  20428f:	89 c6                	mov    esi,eax
                result = result | (T(b) << @intCast(ShiftType, index * 8));
  204291:	e8 2a ee ff ff       	call   2030c0 <panic>
  204296:	66 2e 0f 1f 84 00 00 	nop    WORD PTR cs:[rax+rax*1+0x0]
  20429d:	00 00 00 

00000000002042a0 <futex_wait>:
pub fn futex_wait(pVal: *u32, expected_value: u32) void {
  2042a0:	55                   	push   rbp
  2042a1:	48 89 e5             	mov    rbp,rsp
  2042a4:	48 83 ec 30          	sub    rsp,0x30
  2042a8:	b8 ca 00 00 00       	mov    eax,0xca
  2042ad:	89 c1                	mov    ecx,eax
  2042af:	31 c0                	xor    eax,eax
  2042b1:	89 c2                	mov    edx,eax
  2042b3:	48 89 7d f8          	mov    QWORD PTR [rbp-0x8],rdi
  2042b7:	89 75 f4             	mov    DWORD PTR [rbp-0xc],esi
    _ = syscall4(SYS_futex, @ptrToInt(pVal), linux.FUTEX_WAIT, expected_value, 0);
  2042ba:	48 8b 75 f8          	mov    rsi,QWORD PTR [rbp-0x8]
  2042be:	8b 45 f4             	mov    eax,DWORD PTR [rbp-0xc]
  2042c1:	89 c7                	mov    edi,eax
  2042c3:	48 89 7d e8          	mov    QWORD PTR [rbp-0x18],rdi
  2042c7:	48 89 cf             	mov    rdi,rcx
  2042ca:	48 89 55 e0          	mov    QWORD PTR [rbp-0x20],rdx
  2042ce:	48 8b 4d e8          	mov    rcx,QWORD PTR [rbp-0x18]
  2042d2:	4c 8b 45 e0          	mov    r8,QWORD PTR [rbp-0x20]
  2042d6:	e8 a5 0c 00 00       	call   204f80 <syscall4>
pub fn futex_wait(pVal: *u32, expected_value: u32) void {
  2042db:	48 89 45 d8          	mov    QWORD PTR [rbp-0x28],rax
  2042df:	48 83 c4 30          	add    rsp,0x30
  2042e3:	5d                   	pop    rbp
  2042e4:	c3                   	ret    
  2042e5:	66 66 2e 0f 1f 84 00 	data16 nop WORD PTR cs:[rax+rax*1+0x0]
  2042ec:	00 00 00 00 

00000000002042f0 <OutStream(error{SystemResources,OperationAborted,IoPending,BrokenPipe,Unexpected,WouldBlock,FileClosed,DestinationAddressRequired,DiskQuota,FileTooBig,InputOutput,NoSpaceLeft,AccessDenied,})_print.10>:
        pub fn print(self: *Self, comptime format: []const u8, args: ...) !void {
  2042f0:	55                   	push   rbp
  2042f1:	48 89 e5             	mov    rbp,rsp
  2042f4:	48 83 ec 20          	sub    rsp,0x20
  2042f8:	48 89 75 f8          	mov    QWORD PTR [rbp-0x8],rsi
  2042fc:	89 55 f4             	mov    DWORD PTR [rbp-0xc],edx
            return std.fmt.format(self, Error, self.writeFn, format, args);
  2042ff:	48 8b 75 f8          	mov    rsi,QWORD PTR [rbp-0x8]
  204303:	48 8b 45 f8          	mov    rax,QWORD PTR [rbp-0x8]
  204307:	48 8b 10             	mov    rdx,QWORD PTR [rax]
  20430a:	8b 4d f4             	mov    ecx,DWORD PTR [rbp-0xc]
  20430d:	48 89 7d e8          	mov    QWORD PTR [rbp-0x18],rdi
  204311:	e8 9a 0c 00 00       	call   204fb0 <format.13>
  204316:	66 83 f8 00          	cmp    ax,0x0
  20431a:	66 89 45 e6          	mov    WORD PTR [rbp-0x1a],ax
  20431e:	74 0b                	je     20432b <OutStream(error{SystemResources,OperationAborted,IoPending,BrokenPipe,Unexpected,WouldBlock,FileClosed,DestinationAddressRequired,DiskQuota,FileTooBig,InputOutput,NoSpaceLeft,AccessDenied,})_print.10+0x3b>
  204320:	48 8b 7d e8          	mov    rdi,QWORD PTR [rbp-0x18]
  204324:	e8 27 01 00 00       	call   204450 <__zig_return_error>
  204329:	eb 02                	jmp    20432d <OutStream(error{SystemResources,OperationAborted,IoPending,BrokenPipe,Unexpected,WouldBlock,FileClosed,DestinationAddressRequired,DiskQuota,FileTooBig,InputOutput,NoSpaceLeft,AccessDenied,})_print.10+0x3d>
  20432b:	eb 00                	jmp    20432d <OutStream(error{SystemResources,OperationAborted,IoPending,BrokenPipe,Unexpected,WouldBlock,FileClosed,DestinationAddressRequired,DiskQuota,FileTooBig,InputOutput,NoSpaceLeft,AccessDenied,})_print.10+0x3d>
  20432d:	66 8b 45 e6          	mov    ax,WORD PTR [rbp-0x1a]
  204331:	48 83 c4 20          	add    rsp,0x20
  204335:	5d                   	pop    rbp
  204336:	c3                   	ret    
  204337:	66 0f 1f 84 00 00 00 	nop    WORD PTR [rax+rax*1+0x0]
  20433e:	00 00 

0000000000204340 <raise>:
pub const SIG_ERR = @intToPtr(extern fn (i32) void, @maxValue(usize));
pub const SIG_DFL = @intToPtr(extern fn (i32) void, 0);
pub const SIG_IGN = @intToPtr(extern fn (i32) void, 1);
pub const empty_sigset = []usize{0} ** sigset_t.len;

pub fn raise(sig: i32) usize {
  204340:	55                   	push   rbp
  204341:	48 89 e5             	mov    rbp,rsp
  204344:	48 81 ec b0 00 00 00 	sub    rsp,0xb0
  20434b:	48 8d 85 78 ff ff ff 	lea    rax,[rbp-0x88]
  204352:	48 8d 0d 5f c2 ff ff 	lea    rcx,[rip+0xffffffffffffc25f]        # 2005b8 <__unnamed_9>
  204359:	ba 80 00 00 00       	mov    edx,0x80
  20435e:	89 7d fc             	mov    DWORD PTR [rbp-0x4],edi
    var set: sigset_t = undefined;
  204361:	48 89 c6             	mov    rsi,rax
  204364:	48 89 f7             	mov    rdi,rsi
  204367:	48 89 ce             	mov    rsi,rcx
  20436a:	48 89 85 60 ff ff ff 	mov    QWORD PTR [rbp-0xa0],rax
  204371:	e8 8a d9 01 00       	call   221d00 <memcpy>
    blockAppSignals(&set);
  204376:	48 8b bd 60 ff ff ff 	mov    rdi,QWORD PTR [rbp-0xa0]
  20437d:	e8 5e 0d 00 00       	call   2050e0 <blockAppSignals>
  204382:	41 b8 ba 00 00 00    	mov    r8d,0xba
  204388:	44 89 c7             	mov    edi,r8d
    const tid = @intCast(i32, syscall0(SYS_gettid));
  20438b:	e8 a0 0d 00 00       	call   205130 <syscall0>
  204390:	41 89 c0             	mov    r8d,eax
  204393:	49 63 c8             	movsxd rcx,r8d
  204396:	48 39 c8             	cmp    rax,rcx
  204399:	44 89 85 5c ff ff ff 	mov    DWORD PTR [rbp-0xa4],r8d
  2043a0:	75 46                	jne    2043e8 <raise+0xa8>
  2043a2:	b8 c8 00 00 00       	mov    eax,0xc8
  2043a7:	89 c7                	mov    edi,eax
  2043a9:	8b 85 5c ff ff ff    	mov    eax,DWORD PTR [rbp-0xa4]
  2043af:	89 85 74 ff ff ff    	mov    DWORD PTR [rbp-0x8c],eax
    const ret = syscall2(SYS_tkill, @intCast(usize, tid), @intCast(usize, sig));
  2043b5:	48 63 b5 74 ff ff ff 	movsxd rsi,DWORD PTR [rbp-0x8c]
  2043bc:	48 63 55 fc          	movsxd rdx,DWORD PTR [rbp-0x4]
  2043c0:	e8 7b 0d 00 00       	call   205140 <syscall2>
  2043c5:	48 8d bd 78 ff ff ff 	lea    rdi,[rbp-0x88]
  2043cc:	48 89 85 68 ff ff ff 	mov    QWORD PTR [rbp-0x98],rax
    restoreSignals(&set);
  2043d3:	e8 88 0d 00 00       	call   205160 <restoreSignals>
    return ret;
  2043d8:	48 8b 85 68 ff ff ff 	mov    rax,QWORD PTR [rbp-0x98]
  2043df:	48 81 c4 b0 00 00 00 	add    rsp,0xb0
  2043e6:	5d                   	pop    rbp
  2043e7:	c3                   	ret    
  2043e8:	48 8d 3d b9 0f 02 00 	lea    rdi,[rip+0x20fb9]        # 2253a8 <__unnamed_8>
  2043ef:	31 c0                	xor    eax,eax
  2043f1:	89 c6                	mov    esi,eax
    const tid = @intCast(i32, syscall0(SYS_gettid));
  2043f3:	e8 c8 ec ff ff       	call   2030c0 <panic>
  2043f8:	0f 1f 84 00 00 00 00 	nop    DWORD PTR [rax+rax*1+0x0]
  2043ff:	00 

0000000000204400 <getStdErr>:
pub fn getStdErr() GetStdIoErrs!File {
  204400:	55                   	push   rbp
  204401:	48 89 e5             	mov    rbp,rsp
  204404:	48 83 ec 20          	sub    rsp,0x20
  204408:	48 89 f8             	mov    rax,rdi
  20440b:	48 8d 4d f8          	lea    rcx,[rbp-0x8]
  20440f:	be 02 00 00 00       	mov    esi,0x2
    return File.openHandle(handle);
  204414:	48 89 7d e8          	mov    QWORD PTR [rbp-0x18],rdi
  204418:	48 89 cf             	mov    rdi,rcx
  20441b:	48 89 45 e0          	mov    QWORD PTR [rbp-0x20],rax
  20441f:	e8 9c 00 00 00       	call   2044c0 <File_openHandle>
  204424:	66 c7 45 f0 00 00    	mov    WORD PTR [rbp-0x10],0x0
  20442a:	8b 75 f8             	mov    esi,DWORD PTR [rbp-0x8]
  20442d:	89 75 f4             	mov    DWORD PTR [rbp-0xc],esi
  204430:	48 8b 45 f0          	mov    rax,QWORD PTR [rbp-0x10]
  204434:	48 8b 4d e8          	mov    rcx,QWORD PTR [rbp-0x18]
  204438:	48 89 01             	mov    QWORD PTR [rcx],rax
  20443b:	48 8b 45 e0          	mov    rax,QWORD PTR [rbp-0x20]
  20443f:	48 83 c4 20          	add    rsp,0x20
  204443:	5d                   	pop    rbp
  204444:	c3                   	ret    
  204445:	66 66 2e 0f 1f 84 00 	data16 nop WORD PTR cs:[rax+rax*1+0x0]
  20444c:	00 00 00 00 

0000000000204450 <__zig_return_error>:
  204450:	55                   	push   rbp
  204451:	48 89 e5             	mov    rbp,rsp
  204454:	48 8b 45 08          	mov    rax,QWORD PTR [rbp+0x8]
  204458:	48 8b 4f 10          	mov    rcx,QWORD PTR [rdi+0x10]
  20445c:	48 8b 17             	mov    rdx,QWORD PTR [rdi]
  20445f:	48 89 45 f8          	mov    QWORD PTR [rbp-0x8],rax
  204463:	48 89 d0             	mov    rax,rdx
  204466:	31 f6                	xor    esi,esi
  204468:	48 89 55 f0          	mov    QWORD PTR [rbp-0x10],rdx
  20446c:	89 f2                	mov    edx,esi
  20446e:	48 f7 f1             	div    rcx
  204471:	48 8b 4f 08          	mov    rcx,QWORD PTR [rdi+0x8]
  204475:	4c 8b 45 f8          	mov    r8,QWORD PTR [rbp-0x8]
  204479:	4c 89 04 d1          	mov    QWORD PTR [rcx+rdx*8],r8
  20447d:	48 8b 4d f0          	mov    rcx,QWORD PTR [rbp-0x10]
  204481:	48 83 c1 01          	add    rcx,0x1
  204485:	48 89 0f             	mov    QWORD PTR [rdi],rcx
  204488:	5d                   	pop    rbp
  204489:	c3                   	ret    
  20448a:	66 0f 1f 44 00 00    	nop    WORD PTR [rax+rax*1+0x0]

0000000000204490 <FileOutStream_init>:
    pub fn init(file: *File) FileOutStream {
  204490:	55                   	push   rbp
  204491:	48 89 e5             	mov    rbp,rsp
  204494:	48 89 f8             	mov    rax,rdi
  204497:	48 89 75 e8          	mov    QWORD PTR [rbp-0x18],rsi
            .file = file,
  20449b:	48 8b 75 e8          	mov    rsi,QWORD PTR [rbp-0x18]
        return FileOutStream{
  20449f:	48 89 75 f0          	mov    QWORD PTR [rbp-0x10],rsi
  2044a3:	48 8b 35 d6 0e 02 00 	mov    rsi,QWORD PTR [rip+0x20ed6]        # 225380 <__unnamed_10>
  2044aa:	48 89 75 f8          	mov    QWORD PTR [rbp-0x8],rsi
  2044ae:	48 8b 75 f0          	mov    rsi,QWORD PTR [rbp-0x10]
  2044b2:	48 89 37             	mov    QWORD PTR [rdi],rsi
  2044b5:	48 8b 75 f8          	mov    rsi,QWORD PTR [rbp-0x8]
  2044b9:	48 89 77 08          	mov    QWORD PTR [rdi+0x8],rsi
  2044bd:	5d                   	pop    rbp
  2044be:	c3                   	ret    
  2044bf:	90                   	nop

00000000002044c0 <File_openHandle>:
        } else {
            @compileError("TODO implement openWriteMode for this OS");
        }
    }

    pub fn openHandle(handle: os.FileHandle) File {
  2044c0:	55                   	push   rbp
  2044c1:	48 89 e5             	mov    rbp,rsp
  2044c4:	48 89 f8             	mov    rax,rdi
  2044c7:	89 75 f4             	mov    DWORD PTR [rbp-0xc],esi
        return File{ .handle = handle };
  2044ca:	8b 75 f4             	mov    esi,DWORD PTR [rbp-0xc]
  2044cd:	89 75 f8             	mov    DWORD PTR [rbp-0x8],esi
  2044d0:	8b 75 f8             	mov    esi,DWORD PTR [rbp-0x8]
  2044d3:	89 37                	mov    DWORD PTR [rdi],esi
  2044d5:	5d                   	pop    rbp
  2044d6:	c3                   	ret    
  2044d7:	66 0f 1f 84 00 00 00 	nop    WORD PTR [rax+rax*1+0x0]
  2044de:	00 00 

00000000002044e0 <FileOutStream_writeFn>:
    fn writeFn(out_stream: *Stream, bytes: []const u8) !void {
  2044e0:	55                   	push   rbp
  2044e1:	48 89 e5             	mov    rbp,rsp
  2044e4:	48 83 ec 20          	sub    rsp,0x20
  2044e8:	48 89 75 f8          	mov    QWORD PTR [rbp-0x8],rsi
        const self = @fieldParentPtr(FileOutStream, "stream", out_stream);
  2044ec:	48 8b 75 f8          	mov    rsi,QWORD PTR [rbp-0x8]
  2044f0:	48 83 ee 08          	sub    rsi,0x8
  2044f4:	48 89 75 f0          	mov    QWORD PTR [rbp-0x10],rsi
        return self.file.write(bytes);
  2044f8:	48 8b 75 f0          	mov    rsi,QWORD PTR [rbp-0x10]
  2044fc:	48 8b 36             	mov    rsi,QWORD PTR [rsi]
  2044ff:	48 89 7d e8          	mov    QWORD PTR [rbp-0x18],rdi
  204503:	e8 a8 0c 00 00       	call   2051b0 <File_write>
  204508:	66 83 f8 00          	cmp    ax,0x0
  20450c:	66 89 45 e6          	mov    WORD PTR [rbp-0x1a],ax
  204510:	74 0b                	je     20451d <FileOutStream_writeFn+0x3d>
  204512:	48 8b 7d e8          	mov    rdi,QWORD PTR [rbp-0x18]
  204516:	e8 35 ff ff ff       	call   204450 <__zig_return_error>
  20451b:	eb 02                	jmp    20451f <FileOutStream_writeFn+0x3f>
  20451d:	eb 00                	jmp    20451f <FileOutStream_writeFn+0x3f>
  20451f:	66 8b 45 e6          	mov    ax,WORD PTR [rbp-0x1a]
  204523:	48 83 c4 20          	add    rsp,0x20
  204527:	5d                   	pop    rbp
  204528:	c3                   	ret    
  204529:	0f 1f 80 00 00 00 00 	nop    DWORD PTR [rax+0x0]

0000000000204530 <format>:
const max_int_digits = 65;

/// Renders fmt string with args, calling output with slices of bytes.
/// If `output` returns an error, the error is returned from `format` and
/// `output` is not called again.
pub fn format(context: var, comptime Errors: type, output: fn (@typeOf(context), []const u8) Errors!void, comptime fmt: []const u8, args: ...) Errors!void {
  204530:	55                   	push   rbp
  204531:	48 89 e5             	mov    rbp,rsp
  204534:	48 83 ec 30          	sub    rsp,0x30
  204538:	48 89 75 f0          	mov    QWORD PTR [rbp-0x10],rsi
  20453c:	48 89 55 e8          	mov    QWORD PTR [rbp-0x18],rdx
                '{' => {
                    state = State.Start;
                    start_index = i;
                },
                '}' => {
                    try formatType(args[next_arg], fmt[0..0], context, Errors, output);
  204540:	48 8b 55 f0          	mov    rdx,QWORD PTR [rbp-0x10]
  204544:	48 8b 75 e8          	mov    rsi,QWORD PTR [rbp-0x18]
  204548:	48 89 7d e0          	mov    QWORD PTR [rbp-0x20],rdi
  20454c:	48 89 75 d8          	mov    QWORD PTR [rbp-0x28],rsi
  204550:	48 89 ce             	mov    rsi,rcx
  204553:	48 8b 4d d8          	mov    rcx,QWORD PTR [rbp-0x28]
  204557:	e8 74 00 00 00       	call   2045d0 <formatType>
  20455c:	66 89 45 fe          	mov    WORD PTR [rbp-0x2],ax
  204560:	66 83 7d fe 00       	cmp    WORD PTR [rbp-0x2],0x0
  204565:	74 1b                	je     204582 <format+0x52>
  204567:	66 8b 45 fe          	mov    ax,WORD PTR [rbp-0x2]
  20456b:	48 8b 7d e0          	mov    rdi,QWORD PTR [rbp-0x20]
  20456f:	66 89 45 d6          	mov    WORD PTR [rbp-0x2a],ax
  204573:	e8 d8 fe ff ff       	call   204450 <__zig_return_error>
  204578:	66 8b 45 d6          	mov    ax,WORD PTR [rbp-0x2a]
  20457c:	48 83 c4 30          	add    rsp,0x30
  204580:	5d                   	pop    rbp
  204581:	c3                   	ret    
  204582:	48 8d 15 07 0e 02 00 	lea    rdx,[rip+0x20e07]        # 225390 <__unnamed_11>
        if (state != State.Start) {
            @compileError("Incomplete format string: " ++ fmt);
        }
    }
    if (start_index < fmt.len) {
        try output(context, fmt[start_index..]);
  204589:	48 8b 45 e8          	mov    rax,QWORD PTR [rbp-0x18]
  20458d:	48 8b 75 f0          	mov    rsi,QWORD PTR [rbp-0x10]
  204591:	48 8b 7d e0          	mov    rdi,QWORD PTR [rbp-0x20]
  204595:	ff d0                	call   rax
  204597:	66 89 45 fc          	mov    WORD PTR [rbp-0x4],ax
  20459b:	66 83 7d fc 00       	cmp    WORD PTR [rbp-0x4],0x0
  2045a0:	74 1b                	je     2045bd <format+0x8d>
  2045a2:	66 8b 45 fc          	mov    ax,WORD PTR [rbp-0x4]
  2045a6:	48 8b 7d e0          	mov    rdi,QWORD PTR [rbp-0x20]
  2045aa:	66 89 45 d4          	mov    WORD PTR [rbp-0x2c],ax
  2045ae:	e8 9d fe ff ff       	call   204450 <__zig_return_error>
  2045b3:	66 8b 45 d4          	mov    ax,WORD PTR [rbp-0x2c]
  2045b7:	48 83 c4 30          	add    rsp,0x30
  2045bb:	5d                   	pop    rbp
  2045bc:	c3                   	ret    
  2045bd:	31 c0                	xor    eax,eax
  2045bf:	66 89 c1             	mov    cx,ax
pub fn format(context: var, comptime Errors: type, output: fn (@typeOf(context), []const u8) Errors!void, comptime fmt: []const u8, args: ...) Errors!void {
  2045c2:	66 89 c8             	mov    ax,cx
  2045c5:	48 83 c4 30          	add    rsp,0x30
  2045c9:	5d                   	pop    rbp
  2045ca:	c3                   	ret    
  2045cb:	0f 1f 44 00 00       	nop    DWORD PTR [rax+rax*1+0x0]

00000000002045d0 <formatType>:
    }
}

pub fn formatType(
  2045d0:	55                   	push   rbp
  2045d1:	48 89 e5             	mov    rbp,rsp
  2045d4:	48 83 ec 30          	sub    rsp,0x30
  2045d8:	48 8d 45 e0          	lea    rax,[rbp-0x20]
  2045dc:	48 89 55 f8          	mov    QWORD PTR [rbp-0x8],rdx
  2045e0:	48 89 4d f0          	mov    QWORD PTR [rbp-0x10],rcx
                    }
                }
                return format(context, Errors, output, "{}@{x}", @typeName(T.Child), @ptrToInt(value));
            },
            builtin.TypeInfo.Pointer.Size.Slice => {
                const casted_value = ([]const u8)(value);
  2045e4:	48 8b 0e             	mov    rcx,QWORD PTR [rsi]
  2045e7:	48 89 4d e0          	mov    QWORD PTR [rbp-0x20],rcx
  2045eb:	48 8b 4e 08          	mov    rcx,QWORD PTR [rsi+0x8]
  2045ef:	48 89 4d e8          	mov    QWORD PTR [rbp-0x18],rcx
                return output(context, casted_value);
  2045f3:	48 8b 4d f0          	mov    rcx,QWORD PTR [rbp-0x10]
  2045f7:	48 8b 75 f8          	mov    rsi,QWORD PTR [rbp-0x8]
  2045fb:	48 89 7d d8          	mov    QWORD PTR [rbp-0x28],rdi
  2045ff:	48 89 c2             	mov    rdx,rax
  204602:	ff d1                	call   rcx
  204604:	66 83 f8 00          	cmp    ax,0x0
  204608:	66 89 45 d6          	mov    WORD PTR [rbp-0x2a],ax
  20460c:	74 0b                	je     204619 <formatType+0x49>
  20460e:	48 8b 7d d8          	mov    rdi,QWORD PTR [rbp-0x28]
  204612:	e8 39 fe ff ff       	call   204450 <__zig_return_error>
  204617:	eb 02                	jmp    20461b <formatType+0x4b>
  204619:	eb 00                	jmp    20461b <formatType+0x4b>
  20461b:	66 8b 45 d6          	mov    ax,WORD PTR [rbp-0x2a]
  20461f:	48 83 c4 30          	add    rsp,0x30
  204623:	5d                   	pop    rbp
  204624:	c3                   	ret    
  204625:	66 66 2e 0f 1f 84 00 	data16 nop WORD PTR cs:[rax+rax*1+0x0]
  20462c:	00 00 00 00 

0000000000204630 <getSelfDebugInfo>:
pub fn getSelfDebugInfo() !*ElfStackTrace {
  204630:	55                   	push   rbp
  204631:	48 89 e5             	mov    rbp,rsp
  204634:	48 81 ec 80 00 00 00 	sub    rsp,0x80
  20463b:	48 89 f8             	mov    rax,rdi
    if (self_debug_info) |info| {
  20463e:	48 83 3d ca 19 02 00 	cmp    QWORD PTR [rip+0x219ca],0x0        # 226010 <self_debug_info>
  204645:	00 
  204646:	48 89 45 98          	mov    QWORD PTR [rbp-0x68],rax
  20464a:	48 89 75 90          	mov    QWORD PTR [rbp-0x70],rsi
  20464e:	48 89 7d 88          	mov    QWORD PTR [rbp-0x78],rdi
  204652:	74 39                	je     20468d <getSelfDebugInfo+0x5d>
  204654:	48 8b 05 b5 19 02 00 	mov    rax,QWORD PTR [rip+0x219b5]        # 226010 <self_debug_info>
  20465b:	48 89 45 a8          	mov    QWORD PTR [rbp-0x58],rax
        return info;
  20465f:	48 8b 45 a8          	mov    rax,QWORD PTR [rbp-0x58]
  204663:	66 c7 45 f0 00 00    	mov    WORD PTR [rbp-0x10],0x0
  204669:	48 89 45 f8          	mov    QWORD PTR [rbp-0x8],rax
  20466d:	48 8b 45 f0          	mov    rax,QWORD PTR [rbp-0x10]
  204671:	48 8b 4d 88          	mov    rcx,QWORD PTR [rbp-0x78]
  204675:	48 89 01             	mov    QWORD PTR [rcx],rax
  204678:	48 8b 45 f8          	mov    rax,QWORD PTR [rbp-0x8]
  20467c:	48 89 41 08          	mov    QWORD PTR [rcx+0x8],rax
  204680:	48 8b 45 98          	mov    rax,QWORD PTR [rbp-0x68]
  204684:	48 81 c4 80 00 00 00 	add    rsp,0x80
  20468b:	5d                   	pop    rbp
  20468c:	c3                   	ret    
        const info = try openSelfDebugInfo(getDebugInfoAllocator());
  20468d:	e8 ee 00 00 00       	call   204780 <getDebugInfoAllocator>
  204692:	48 8d 7d e0          	lea    rdi,[rbp-0x20]
  204696:	48 8b 75 90          	mov    rsi,QWORD PTR [rbp-0x70]
  20469a:	48 89 c2             	mov    rdx,rax
  20469d:	e8 2e 0e 00 00       	call   2054d0 <openSelfDebugInfo>
  2046a2:	66 83 7d e0 00       	cmp    WORD PTR [rbp-0x20],0x0
  2046a7:	74 39                	je     2046e2 <getSelfDebugInfo+0xb2>
  2046a9:	66 8b 45 e0          	mov    ax,WORD PTR [rbp-0x20]
  2046ad:	48 8b 7d 90          	mov    rdi,QWORD PTR [rbp-0x70]
  2046b1:	66 89 45 86          	mov    WORD PTR [rbp-0x7a],ax
  2046b5:	e8 96 fd ff ff       	call   204450 <__zig_return_error>
  2046ba:	66 8b 45 86          	mov    ax,WORD PTR [rbp-0x7a]
  2046be:	66 89 45 c0          	mov    WORD PTR [rbp-0x40],ax
  2046c2:	48 8b 7d c0          	mov    rdi,QWORD PTR [rbp-0x40]
  2046c6:	48 8b 4d 88          	mov    rcx,QWORD PTR [rbp-0x78]
  2046ca:	48 89 39             	mov    QWORD PTR [rcx],rdi
  2046cd:	48 8b 7d c8          	mov    rdi,QWORD PTR [rbp-0x38]
  2046d1:	48 89 79 08          	mov    QWORD PTR [rcx+0x8],rdi
  2046d5:	48 8b 45 98          	mov    rax,QWORD PTR [rbp-0x68]
  2046d9:	48 81 c4 80 00 00 00 	add    rsp,0x80
  2046e0:	5d                   	pop    rbp
  2046e1:	c3                   	ret    
  2046e2:	48 8b 45 e8          	mov    rax,QWORD PTR [rbp-0x18]
  2046e6:	48 89 45 a0          	mov    QWORD PTR [rbp-0x60],rax
        self_debug_info = info;
  2046ea:	48 8b 45 a0          	mov    rax,QWORD PTR [rbp-0x60]
  2046ee:	48 89 05 1b 19 02 00 	mov    QWORD PTR [rip+0x2191b],rax        # 226010 <self_debug_info>
        return info;
  2046f5:	48 8b 45 a0          	mov    rax,QWORD PTR [rbp-0x60]
  2046f9:	66 c7 45 b0 00 00    	mov    WORD PTR [rbp-0x50],0x0
  2046ff:	48 89 45 b8          	mov    QWORD PTR [rbp-0x48],rax
  204703:	48 8b 45 b0          	mov    rax,QWORD PTR [rbp-0x50]
  204707:	48 8b 4d 88          	mov    rcx,QWORD PTR [rbp-0x78]
  20470b:	48 89 01             	mov    QWORD PTR [rcx],rax
  20470e:	48 8b 45 b8          	mov    rax,QWORD PTR [rbp-0x48]
  204712:	48 89 41 08          	mov    QWORD PTR [rcx+0x8],rax
  204716:	48 8b 45 98          	mov    rax,QWORD PTR [rbp-0x68]
  20471a:	48 81 c4 80 00 00 00 	add    rsp,0x80
  204721:	5d                   	pop    rbp
  204722:	c3                   	ret    
  204723:	66 66 66 66 2e 0f 1f 	data16 data16 data16 nop WORD PTR cs:[rax+rax*1+0x0]
  20472a:	84 00 00 00 00 00 

0000000000204730 <OutStream(error{SystemResources,OperationAborted,IoPending,BrokenPipe,Unexpected,WouldBlock,FileClosed,DestinationAddressRequired,DiskQuota,FileTooBig,InputOutput,NoSpaceLeft,AccessDenied,})_print.11>:
        pub fn print(self: *Self, comptime format: []const u8, args: ...) !void {
  204730:	55                   	push   rbp
  204731:	48 89 e5             	mov    rbp,rsp
  204734:	48 83 ec 20          	sub    rsp,0x20
  204738:	48 89 75 f8          	mov    QWORD PTR [rbp-0x8],rsi
            return std.fmt.format(self, Error, self.writeFn, format, args);
  20473c:	48 8b 75 f8          	mov    rsi,QWORD PTR [rbp-0x8]
  204740:	48 8b 45 f8          	mov    rax,QWORD PTR [rbp-0x8]
  204744:	48 8b 00             	mov    rax,QWORD PTR [rax]
  204747:	48 89 7d f0          	mov    QWORD PTR [rbp-0x10],rdi
  20474b:	48 89 55 e8          	mov    QWORD PTR [rbp-0x18],rdx
  20474f:	48 89 c2             	mov    rdx,rax
  204752:	48 8b 4d e8          	mov    rcx,QWORD PTR [rbp-0x18]
  204756:	e8 e5 eb 00 00       	call   213340 <format.40>
  20475b:	66 83 f8 00          	cmp    ax,0x0
  20475f:	66 89 45 e6          	mov    WORD PTR [rbp-0x1a],ax
  204763:	74 0b                	je     204770 <OutStream(error{SystemResources,OperationAborted,IoPending,BrokenPipe,Unexpected,WouldBlock,FileClosed,DestinationAddressRequired,DiskQuota,FileTooBig,InputOutput,NoSpaceLeft,AccessDenied,})_print.11+0x40>
  204765:	48 8b 7d f0          	mov    rdi,QWORD PTR [rbp-0x10]
  204769:	e8 e2 fc ff ff       	call   204450 <__zig_return_error>
  20476e:	eb 02                	jmp    204772 <OutStream(error{SystemResources,OperationAborted,IoPending,BrokenPipe,Unexpected,WouldBlock,FileClosed,DestinationAddressRequired,DiskQuota,FileTooBig,InputOutput,NoSpaceLeft,AccessDenied,})_print.11+0x42>
  204770:	eb 00                	jmp    204772 <OutStream(error{SystemResources,OperationAborted,IoPending,BrokenPipe,Unexpected,WouldBlock,FileClosed,DestinationAddressRequired,DiskQuota,FileTooBig,InputOutput,NoSpaceLeft,AccessDenied,})_print.11+0x42>
  204772:	66 8b 45 e6          	mov    ax,WORD PTR [rbp-0x1a]
  204776:	48 83 c4 20          	add    rsp,0x20
  20477a:	5d                   	pop    rbp
  20477b:	c3                   	ret    
  20477c:	0f 1f 40 00          	nop    DWORD PTR [rax+0x0]

0000000000204780 <getDebugInfoAllocator>:

// TODO make thread safe
var debug_info_allocator: ?*mem.Allocator = null;
var debug_info_direct_allocator: std.heap.DirectAllocator = undefined;
var debug_info_arena_allocator: std.heap.ArenaAllocator = undefined;
fn getDebugInfoAllocator() *mem.Allocator {
  204780:	55                   	push   rbp
  204781:	48 89 e5             	mov    rbp,rsp
    if (debug_info_allocator) |a| return a;
  204784:	48 81 ec 80 00 00 00 	sub    rsp,0x80
  20478b:	48 83 3d 85 18 02 00 	cmp    QWORD PTR [rip+0x21885],0x0        # 226018 <debug_info_allocator>
  204792:	00 
  204793:	74 18                	je     2047ad <getDebugInfoAllocator+0x2d>
  204795:	48 8b 05 7c 18 02 00 	mov    rax,QWORD PTR [rip+0x2187c]        # 226018 <debug_info_allocator>
  20479c:	48 89 45 98          	mov    QWORD PTR [rbp-0x68],rax
  2047a0:	48 8b 45 98          	mov    rax,QWORD PTR [rbp-0x68]
  2047a4:	48 81 c4 80 00 00 00 	add    rsp,0x80
  2047ab:	5d                   	pop    rbp
  2047ac:	c3                   	ret    
  2047ad:	eb 00                	jmp    2047af <getDebugInfoAllocator+0x2f>
  2047af:	48 8d 7d e0          	lea    rdi,[rbp-0x20]

    debug_info_direct_allocator = std.heap.DirectAllocator.init();
  2047b3:	e8 a8 4f 00 00       	call   209760 <DirectAllocator_init>
  2047b8:	48 8d 7d a0          	lea    rdi,[rbp-0x60]
  2047bc:	48 8d 35 5d f8 01 00 	lea    rsi,[rip+0x1f85d]        # 224020 <debug_info_direct_allocator>
  2047c3:	48 8b 45 e0          	mov    rax,QWORD PTR [rbp-0x20]
  2047c7:	48 89 05 52 f8 01 00 	mov    QWORD PTR [rip+0x1f852],rax        # 224020 <debug_info_direct_allocator>
  2047ce:	48 8b 45 e8          	mov    rax,QWORD PTR [rbp-0x18]
  2047d2:	48 89 05 4f f8 01 00 	mov    QWORD PTR [rip+0x1f84f],rax        # 224028 <debug_info_direct_allocator+0x8>
  2047d9:	48 8b 45 f0          	mov    rax,QWORD PTR [rbp-0x10]
  2047dd:	48 89 05 4c f8 01 00 	mov    QWORD PTR [rip+0x1f84c],rax        # 224030 <debug_info_direct_allocator+0x10>
  2047e4:	48 8b 45 f8          	mov    rax,QWORD PTR [rbp-0x8]
  2047e8:	48 89 05 49 f8 01 00 	mov    QWORD PTR [rip+0x1f849],rax        # 224038 <debug_info_direct_allocator+0x18>
    debug_info_arena_allocator = std.heap.ArenaAllocator.init(&debug_info_direct_allocator.allocator);
  2047ef:	e8 ac 4f 00 00       	call   2097a0 <ArenaAllocator_init>
  2047f4:	48 8d 05 45 f8 01 00 	lea    rax,[rip+0x1f845]        # 224040 <debug_info_arena_allocator>
  2047fb:	48 89 c6             	mov    rsi,rax
  2047fe:	b9 40 00 00 00       	mov    ecx,0x40
  204803:	89 ca                	mov    edx,ecx
  204805:	48 8d 7d a0          	lea    rdi,[rbp-0x60]
  204809:	48 89 7d 90          	mov    QWORD PTR [rbp-0x70],rdi
  20480d:	48 89 f7             	mov    rdi,rsi
  204810:	48 8b 75 90          	mov    rsi,QWORD PTR [rbp-0x70]
  204814:	48 89 45 88          	mov    QWORD PTR [rbp-0x78],rax
  204818:	e8 e3 d4 01 00       	call   221d00 <memcpy>
    debug_info_allocator = &debug_info_arena_allocator.allocator;
  20481d:	48 8b 45 88          	mov    rax,QWORD PTR [rbp-0x78]
  204821:	48 89 05 f0 17 02 00 	mov    QWORD PTR [rip+0x217f0],rax        # 226018 <debug_info_allocator>
    return &debug_info_arena_allocator.allocator;
  204828:	48 81 c4 80 00 00 00 	add    rsp,0x80
  20482f:	5d                   	pop    rbp
  204830:	c3                   	ret    
  204831:	66 66 66 66 66 66 2e 	data16 data16 data16 data16 data16 nop WORD PTR cs:[rax+rax*1+0x0]
  204838:	0f 1f 84 00 00 00 00 
  20483f:	00 

0000000000204840 <wantTtyColor>:
fn wantTtyColor() bool {
  204840:	55                   	push   rbp
  204841:	48 89 e5             	mov    rbp,rsp
  204844:	48 81 ec 50 02 00 00 	sub    rsp,0x250
  20484b:	b0 01                	mov    al,0x1
  20484d:	48 8d 35 a6 c2 ff ff 	lea    rsi,[rip+0xffffffffffffc2a6]        # 200afa <__unnamed_12>
  204854:	b9 80 00 00 00       	mov    ecx,0x80
  204859:	89 ca                	mov    edx,ecx
  20485b:	48 8d bd d8 fd ff ff 	lea    rdi,[rbp-0x228]
  204862:	4c 8d 85 10 ff ff ff 	lea    r8,[rbp-0xf0]
  204869:	48 c7 85 f8 fe ff ff 	mov    QWORD PTR [rbp-0x108],0x0
  204870:	00 00 00 00 
  204874:	4c 89 85 00 ff ff ff 	mov    QWORD PTR [rbp-0x100],r8
  20487b:	48 c7 85 08 ff ff ff 	mov    QWORD PTR [rbp-0xf8],0x1e
  204882:	1e 00 00 00 
    var bytes: [128]u8 = undefined;
  204886:	88 85 bd fd ff ff    	mov    BYTE PTR [rbp-0x243],al
  20488c:	e8 6f d4 01 00       	call   221d00 <memcpy>
    const allocator = &std.heap.FixedBufferAllocator.init(bytes[0..]).allocator;
  204891:	8a 85 bd fd ff ff    	mov    al,BYTE PTR [rbp-0x243]
  204897:	a8 01                	test   al,0x1
  204899:	75 67                	jne    204902 <wantTtyColor+0xc2>
  20489b:	eb 55                	jmp    2048f2 <wantTtyColor+0xb2>
  20489d:	b0 01                	mov    al,0x1
    return if (std.os.getEnvVarOwned(allocator, "ZIG_DEBUG_COLOR")) |_| true else |_| stderr_file.isTty();
  20489f:	48 8b 8d 78 fe ff ff 	mov    rcx,QWORD PTR [rbp-0x188]
  2048a6:	48 89 8d c0 fd ff ff 	mov    QWORD PTR [rbp-0x240],rcx
  2048ad:	48 8b 8d 80 fe ff ff 	mov    rcx,QWORD PTR [rbp-0x180]
  2048b4:	48 89 8d c8 fd ff ff 	mov    QWORD PTR [rbp-0x238],rcx
  2048bb:	88 85 bc fd ff ff    	mov    BYTE PTR [rbp-0x244],al
  2048c1:	eb 20                	jmp    2048e3 <wantTtyColor+0xa3>
  2048c3:	48 8d 3d 36 f7 01 00 	lea    rdi,[rip+0x1f736]        # 224000 <stderr_file>
  2048ca:	66 8b 85 70 fe ff ff 	mov    ax,WORD PTR [rbp-0x190]
  2048d1:	66 89 85 be fd ff ff 	mov    WORD PTR [rbp-0x242],ax
  2048d8:	e8 83 ec 00 00       	call   213560 <File_isTty>
  2048dd:	88 85 bc fd ff ff    	mov    BYTE PTR [rbp-0x244],al
  2048e3:	8a 85 bc fd ff ff    	mov    al,BYTE PTR [rbp-0x244]
  2048e9:	48 81 c4 50 02 00 00 	add    rsp,0x250
  2048f0:	5d                   	pop    rbp
  2048f1:	c3                   	ret    
  2048f2:	48 8d 3d 07 0a 02 00 	lea    rdi,[rip+0x20a07]        # 225300 <__unnamed_4>
  2048f9:	31 c0                	xor    eax,eax
  2048fb:	89 c6                	mov    esi,eax
    const allocator = &std.heap.FixedBufferAllocator.init(bytes[0..]).allocator;
  2048fd:	e8 be e7 ff ff       	call   2030c0 <panic>
  204902:	48 8d bd b8 fe ff ff 	lea    rdi,[rbp-0x148]
  204909:	48 8d b5 e8 fe ff ff 	lea    rsi,[rbp-0x118]
  204910:	48 8d 85 d8 fd ff ff 	lea    rax,[rbp-0x228]
  204917:	48 89 85 e8 fe ff ff 	mov    QWORD PTR [rbp-0x118],rax
  20491e:	48 c7 85 f0 fe ff ff 	mov    QWORD PTR [rbp-0x110],0x80
  204925:	80 00 00 00 
  204929:	e8 82 4f 00 00       	call   2098b0 <FixedBufferAllocator_init>
  20492e:	48 8d bd 70 fe ff ff 	lea    rdi,[rbp-0x190]
  204935:	48 8d b5 f8 fe ff ff 	lea    rsi,[rbp-0x108]
  20493c:	48 8d 0d 7d 0c 02 00 	lea    rcx,[rip+0x20c7d]        # 2255c0 <__unnamed_13>
  204943:	48 8d 85 b8 fe ff ff 	lea    rax,[rbp-0x148]
  20494a:	48 89 85 d0 fd ff ff 	mov    QWORD PTR [rbp-0x230],rax
    return if (std.os.getEnvVarOwned(allocator, "ZIG_DEBUG_COLOR")) |_| true else |_| stderr_file.isTty();
  204951:	48 8b 95 d0 fd ff ff 	mov    rdx,QWORD PTR [rbp-0x230]
  204958:	e8 23 eb 00 00       	call   213480 <getEnvVarOwned>
  20495d:	66 83 bd 70 fe ff ff 	cmp    WORD PTR [rbp-0x190],0x0
  204964:	00 
  204965:	0f 85 58 ff ff ff    	jne    2048c3 <wantTtyColor+0x83>
  20496b:	e9 2d ff ff ff       	jmp    20489d <wantTtyColor+0x5d>

0000000000204970 <writeStackTrace>:
pub fn writeStackTrace(stack_trace: *const builtin.StackTrace, out_stream: var, allocator: *mem.Allocator, debug_info: *ElfStackTrace, tty_color: bool) !void {
  204970:	55                   	push   rbp
  204971:	48 89 e5             	mov    rbp,rsp
  204974:	41 56                	push   r14
  204976:	53                   	push   rbx
  204977:	48 81 ec c0 00 00 00 	sub    rsp,0xc0
  20497e:	44 88 c8             	mov    al,r9b
  204981:	41 b9 aa 00 00 00    	mov    r9d,0xaa
  204987:	41 ba 08 00 00 00    	mov    r10d,0x8
  20498d:	45 89 d3             	mov    r11d,r10d
  204990:	48 8d 5d b0          	lea    rbx,[rbp-0x50]
  204994:	4c 8d 75 b8          	lea    r14,[rbp-0x48]
  204998:	48 89 75 e0          	mov    QWORD PTR [rbp-0x20],rsi
  20499c:	48 89 55 d8          	mov    QWORD PTR [rbp-0x28],rdx
  2049a0:	48 89 4d d0          	mov    QWORD PTR [rbp-0x30],rcx
  2049a4:	4c 89 45 c8          	mov    QWORD PTR [rbp-0x38],r8
  2049a8:	24 01                	and    al,0x1
  2049aa:	88 45 c7             	mov    BYTE PTR [rbp-0x39],al
    var frame_index: usize = undefined;
  2049ad:	48 89 7d a0          	mov    QWORD PTR [rbp-0x60],rdi
  2049b1:	4c 89 f7             	mov    rdi,r14
  2049b4:	44 89 ce             	mov    esi,r9d
  2049b7:	4c 89 da             	mov    rdx,r11
  2049ba:	48 89 5d 98          	mov    QWORD PTR [rbp-0x68],rbx
  2049be:	4c 89 5d 90          	mov    QWORD PTR [rbp-0x70],r11
  2049c2:	44 89 4d 8c          	mov    DWORD PTR [rbp-0x74],r9d
  2049c6:	e8 e5 d2 01 00       	call   221cb0 <memset>
    var frames_left: usize = undefined;
  2049cb:	48 8b 4d 98          	mov    rcx,QWORD PTR [rbp-0x68]
  2049cf:	48 89 cf             	mov    rdi,rcx
  2049d2:	8b 75 8c             	mov    esi,DWORD PTR [rbp-0x74]
  2049d5:	48 8b 55 90          	mov    rdx,QWORD PTR [rbp-0x70]
  2049d9:	e8 d2 d2 01 00       	call   221cb0 <memset>
    if (stack_trace.index < stack_trace.instruction_addresses.len) {
  2049de:	48 8b 4d e0          	mov    rcx,QWORD PTR [rbp-0x20]
  2049e2:	48 8b 09             	mov    rcx,QWORD PTR [rcx]
  2049e5:	48 8b 55 e0          	mov    rdx,QWORD PTR [rbp-0x20]
  2049e9:	48 3b 4a 10          	cmp    rcx,QWORD PTR [rdx+0x10]
  2049ed:	73 15                	jae    204a04 <writeStackTrace+0x94>
        frame_index = 0;
  2049ef:	48 c7 45 b8 00 00 00 	mov    QWORD PTR [rbp-0x48],0x0
  2049f6:	00 
        frames_left = stack_trace.index;
  2049f7:	48 8b 45 e0          	mov    rax,QWORD PTR [rbp-0x20]
  2049fb:	48 8b 00             	mov    rax,QWORD PTR [rax]
  2049fe:	48 89 45 b0          	mov    QWORD PTR [rbp-0x50],rax
    if (stack_trace.index < stack_trace.instruction_addresses.len) {
  204a02:	eb 23                	jmp    204a27 <writeStackTrace+0xb7>
        frame_index = (stack_trace.index + 1) % stack_trace.instruction_addresses.len;
  204a04:	48 8b 45 e0          	mov    rax,QWORD PTR [rbp-0x20]
  204a08:	48 8b 00             	mov    rax,QWORD PTR [rax]
  204a0b:	48 83 c0 01          	add    rax,0x1
  204a0f:	0f 92 c1             	setb   cl
  204a12:	48 89 45 80          	mov    QWORD PTR [rbp-0x80],rax
  204a16:	88 8d 7f ff ff ff    	mov    BYTE PTR [rbp-0x81],cl
  204a1c:	0f 82 98 00 00 00    	jb     204aba <writeStackTrace+0x14a>
  204a22:	e9 a3 00 00 00       	jmp    204aca <writeStackTrace+0x15a>
    while (frames_left != 0) : ({
  204a27:	eb 00                	jmp    204a29 <writeStackTrace+0xb9>
  204a29:	48 83 7d b0 00       	cmp    QWORD PTR [rbp-0x50],0x0
  204a2e:	74 76                	je     204aa6 <writeStackTrace+0x136>
        const return_address = stack_trace.instruction_addresses[frame_index];
  204a30:	48 8b 45 e0          	mov    rax,QWORD PTR [rbp-0x20]
  204a34:	48 89 c1             	mov    rcx,rax
  204a37:	48 83 c1 08          	add    rcx,0x8
  204a3b:	48 8b 55 b8          	mov    rdx,QWORD PTR [rbp-0x48]
  204a3f:	48 3b 50 10          	cmp    rdx,QWORD PTR [rax+0x10]
  204a43:	48 89 95 70 ff ff ff 	mov    QWORD PTR [rbp-0x90],rdx
  204a4a:	48 89 8d 68 ff ff ff 	mov    QWORD PTR [rbp-0x98],rcx
  204a51:	0f 82 cf 00 00 00    	jb     204b26 <writeStackTrace+0x1b6>
  204a57:	e9 ba 00 00 00       	jmp    204b16 <writeStackTrace+0x1a6>
        try printSourceAtAddress(debug_info, out_stream, return_address, tty_color);
  204a5c:	66 8b 45 ee          	mov    ax,WORD PTR [rbp-0x12]
  204a60:	48 8b 7d a0          	mov    rdi,QWORD PTR [rbp-0x60]
  204a64:	66 89 85 66 ff ff ff 	mov    WORD PTR [rbp-0x9a],ax
  204a6b:	e8 e0 f9 ff ff       	call   204450 <__zig_return_error>
  204a70:	66 8b 85 66 ff ff ff 	mov    ax,WORD PTR [rbp-0x9a]
  204a77:	48 81 c4 c0 00 00 00 	add    rsp,0xc0
  204a7e:	5b                   	pop    rbx
  204a7f:	41 5e                	pop    r14
  204a81:	5d                   	pop    rbp
  204a82:	c3                   	ret    
        frames_left -= 1;
  204a83:	48 8b 45 b0          	mov    rax,QWORD PTR [rbp-0x50]
  204a87:	48 83 e8 01          	sub    rax,0x1
  204a8b:	0f 92 c1             	setb   cl
  204a8e:	48 89 85 58 ff ff ff 	mov    QWORD PTR [rbp-0xa8],rax
  204a95:	88 8d 57 ff ff ff    	mov    BYTE PTR [rbp-0xa9],cl
  204a9b:	0f 82 cf 00 00 00    	jb     204b70 <writeStackTrace+0x200>
  204aa1:	e9 da 00 00 00       	jmp    204b80 <writeStackTrace+0x210>
  204aa6:	31 c0                	xor    eax,eax
  204aa8:	66 89 c1             	mov    cx,ax
pub fn writeStackTrace(stack_trace: *const builtin.StackTrace, out_stream: var, allocator: *mem.Allocator, debug_info: *ElfStackTrace, tty_color: bool) !void {
  204aab:	66 89 c8             	mov    ax,cx
  204aae:	48 81 c4 c0 00 00 00 	add    rsp,0xc0
  204ab5:	5b                   	pop    rbx
  204ab6:	41 5e                	pop    r14
  204ab8:	5d                   	pop    rbp
  204ab9:	c3                   	ret    
  204aba:	48 8d 3d 57 08 02 00 	lea    rdi,[rip+0x20857]        # 225318 <__unnamed_5>
  204ac1:	31 c0                	xor    eax,eax
  204ac3:	89 c6                	mov    esi,eax
        frame_index = (stack_trace.index + 1) % stack_trace.instruction_addresses.len;
  204ac5:	e8 f6 e5 ff ff       	call   2030c0 <panic>
  204aca:	48 8b 45 e0          	mov    rax,QWORD PTR [rbp-0x20]
  204ace:	48 8b 40 10          	mov    rax,QWORD PTR [rax+0x10]
  204ad2:	48 83 f8 00          	cmp    rax,0x0
  204ad6:	48 89 85 48 ff ff ff 	mov    QWORD PTR [rbp-0xb8],rax
  204add:	74 27                	je     204b06 <writeStackTrace+0x196>
  204adf:	48 8b 45 80          	mov    rax,QWORD PTR [rbp-0x80]
  204ae3:	31 c9                	xor    ecx,ecx
  204ae5:	89 ca                	mov    edx,ecx
  204ae7:	48 8b b5 48 ff ff ff 	mov    rsi,QWORD PTR [rbp-0xb8]
  204aee:	48 f7 f6             	div    rsi
  204af1:	48 89 55 b8          	mov    QWORD PTR [rbp-0x48],rdx
        frames_left = stack_trace.instruction_addresses.len;
  204af5:	48 8b 55 e0          	mov    rdx,QWORD PTR [rbp-0x20]
  204af9:	48 8b 52 10          	mov    rdx,QWORD PTR [rdx+0x10]
  204afd:	48 89 55 b0          	mov    QWORD PTR [rbp-0x50],rdx
    if (stack_trace.index < stack_trace.instruction_addresses.len) {
  204b01:	e9 21 ff ff ff       	jmp    204a27 <writeStackTrace+0xb7>
  204b06:	48 8d 3d d3 0a 02 00 	lea    rdi,[rip+0x20ad3]        # 2255e0 <__unnamed_14>
  204b0d:	31 c0                	xor    eax,eax
  204b0f:	89 c6                	mov    esi,eax
        frame_index = (stack_trace.index + 1) % stack_trace.instruction_addresses.len;
  204b11:	e8 aa e5 ff ff       	call   2030c0 <panic>
  204b16:	48 8d 3d e3 07 02 00 	lea    rdi,[rip+0x207e3]        # 225300 <__unnamed_4>
  204b1d:	31 c0                	xor    eax,eax
  204b1f:	89 c6                	mov    esi,eax
        const return_address = stack_trace.instruction_addresses[frame_index];
  204b21:	e8 9a e5 ff ff       	call   2030c0 <panic>
  204b26:	48 8b 85 68 ff ff ff 	mov    rax,QWORD PTR [rbp-0x98]
  204b2d:	48 8b 08             	mov    rcx,QWORD PTR [rax]
  204b30:	48 8b 95 70 ff ff ff 	mov    rdx,QWORD PTR [rbp-0x90]
  204b37:	48 8b 0c d1          	mov    rcx,QWORD PTR [rcx+rdx*8]
  204b3b:	48 89 4d a8          	mov    QWORD PTR [rbp-0x58],rcx
        try printSourceAtAddress(debug_info, out_stream, return_address, tty_color);
  204b3f:	48 8b 75 c8          	mov    rsi,QWORD PTR [rbp-0x38]
  204b43:	48 8b 55 d8          	mov    rdx,QWORD PTR [rbp-0x28]
  204b47:	48 8b 4d a8          	mov    rcx,QWORD PTR [rbp-0x58]
  204b4b:	40 8a 7d c7          	mov    dil,BYTE PTR [rbp-0x39]
  204b4f:	44 0f b6 c7          	movzx  r8d,dil
  204b53:	48 8b 7d a0          	mov    rdi,QWORD PTR [rbp-0x60]
  204b57:	e8 34 ea 00 00       	call   213590 <printSourceAtAddress>
  204b5c:	66 89 45 ee          	mov    WORD PTR [rbp-0x12],ax
  204b60:	66 83 7d ee 00       	cmp    WORD PTR [rbp-0x12],0x0
  204b65:	0f 85 f1 fe ff ff    	jne    204a5c <writeStackTrace+0xec>
  204b6b:	e9 13 ff ff ff       	jmp    204a83 <writeStackTrace+0x113>
  204b70:	48 8d 3d a1 07 02 00 	lea    rdi,[rip+0x207a1]        # 225318 <__unnamed_5>
  204b77:	31 c0                	xor    eax,eax
  204b79:	89 c6                	mov    esi,eax
        frames_left -= 1;
  204b7b:	e8 40 e5 ff ff       	call   2030c0 <panic>
  204b80:	48 8b 85 58 ff ff ff 	mov    rax,QWORD PTR [rbp-0xa8]
  204b87:	48 89 45 b0          	mov    QWORD PTR [rbp-0x50],rax
        frame_index = (frame_index + 1) % stack_trace.instruction_addresses.len;
  204b8b:	48 8b 4d b8          	mov    rcx,QWORD PTR [rbp-0x48]
  204b8f:	48 83 c1 01          	add    rcx,0x1
  204b93:	0f 92 c2             	setb   dl
  204b96:	48 89 8d 40 ff ff ff 	mov    QWORD PTR [rbp-0xc0],rcx
  204b9d:	88 95 3f ff ff ff    	mov    BYTE PTR [rbp-0xc1],dl
  204ba3:	72 02                	jb     204ba7 <writeStackTrace+0x237>
  204ba5:	eb 10                	jmp    204bb7 <writeStackTrace+0x247>
  204ba7:	48 8d 3d 6a 07 02 00 	lea    rdi,[rip+0x2076a]        # 225318 <__unnamed_5>
  204bae:	31 c0                	xor    eax,eax
  204bb0:	89 c6                	mov    esi,eax
  204bb2:	e8 09 e5 ff ff       	call   2030c0 <panic>
  204bb7:	48 8b 45 e0          	mov    rax,QWORD PTR [rbp-0x20]
  204bbb:	48 8b 40 10          	mov    rax,QWORD PTR [rax+0x10]
  204bbf:	48 83 f8 00          	cmp    rax,0x0
  204bc3:	48 89 85 30 ff ff ff 	mov    QWORD PTR [rbp-0xd0],rax
  204bca:	74 1e                	je     204bea <writeStackTrace+0x27a>
  204bcc:	48 8b 85 40 ff ff ff 	mov    rax,QWORD PTR [rbp-0xc0]
  204bd3:	31 c9                	xor    ecx,ecx
  204bd5:	89 ca                	mov    edx,ecx
  204bd7:	48 8b b5 30 ff ff ff 	mov    rsi,QWORD PTR [rbp-0xd0]
  204bde:	48 f7 f6             	div    rsi
  204be1:	48 89 55 b8          	mov    QWORD PTR [rbp-0x48],rdx
    while (frames_left != 0) : ({
  204be5:	e9 3f fe ff ff       	jmp    204a29 <writeStackTrace+0xb9>
  204bea:	48 8d 3d ef 09 02 00 	lea    rdi,[rip+0x209ef]        # 2255e0 <__unnamed_14>
  204bf1:	31 c0                	xor    eax,eax
  204bf3:	89 c6                	mov    esi,eax
        frame_index = (frame_index + 1) % stack_trace.instruction_addresses.len;
  204bf5:	e8 c6 e4 ff ff       	call   2030c0 <panic>
  204bfa:	66 0f 1f 44 00 00    	nop    WORD PTR [rax+rax*1+0x0]

0000000000204c00 <OutStream(error{SystemResources,OperationAborted,IoPending,BrokenPipe,Unexpected,WouldBlock,FileClosed,DestinationAddressRequired,DiskQuota,FileTooBig,InputOutput,NoSpaceLeft,AccessDenied,})_print.12>:
        pub fn print(self: *Self, comptime format: []const u8, args: ...) !void {
  204c00:	55                   	push   rbp
  204c01:	48 89 e5             	mov    rbp,rsp
  204c04:	48 83 ec 20          	sub    rsp,0x20
  204c08:	48 89 75 f8          	mov    QWORD PTR [rbp-0x8],rsi
            return std.fmt.format(self, Error, self.writeFn, format, args);
  204c0c:	48 8b 75 f8          	mov    rsi,QWORD PTR [rbp-0x8]
  204c10:	48 8b 45 f8          	mov    rax,QWORD PTR [rbp-0x8]
  204c14:	48 8b 00             	mov    rax,QWORD PTR [rax]
  204c17:	48 89 7d f0          	mov    QWORD PTR [rbp-0x10],rdi
  204c1b:	48 89 55 e8          	mov    QWORD PTR [rbp-0x18],rdx
  204c1f:	48 89 c2             	mov    rdx,rax
  204c22:	48 8b 4d e8          	mov    rcx,QWORD PTR [rbp-0x18]
  204c26:	e8 35 73 01 00       	call   21bf60 <format.77>
  204c2b:	66 83 f8 00          	cmp    ax,0x0
  204c2f:	66 89 45 e6          	mov    WORD PTR [rbp-0x1a],ax
  204c33:	74 0b                	je     204c40 <OutStream(error{SystemResources,OperationAborted,IoPending,BrokenPipe,Unexpected,WouldBlock,FileClosed,DestinationAddressRequired,DiskQuota,FileTooBig,InputOutput,NoSpaceLeft,AccessDenied,})_print.12+0x40>
  204c35:	48 8b 7d f0          	mov    rdi,QWORD PTR [rbp-0x10]
  204c39:	e8 12 f8 ff ff       	call   204450 <__zig_return_error>
  204c3e:	eb 02                	jmp    204c42 <OutStream(error{SystemResources,OperationAborted,IoPending,BrokenPipe,Unexpected,WouldBlock,FileClosed,DestinationAddressRequired,DiskQuota,FileTooBig,InputOutput,NoSpaceLeft,AccessDenied,})_print.12+0x42>
  204c40:	eb 00                	jmp    204c42 <OutStream(error{SystemResources,OperationAborted,IoPending,BrokenPipe,Unexpected,WouldBlock,FileClosed,DestinationAddressRequired,DiskQuota,FileTooBig,InputOutput,NoSpaceLeft,AccessDenied,})_print.12+0x42>
  204c42:	66 8b 45 e6          	mov    ax,WORD PTR [rbp-0x1a]
  204c46:	48 83 c4 20          	add    rsp,0x20
  204c4a:	5d                   	pop    rbp
  204c4b:	c3                   	ret    
  204c4c:	0f 1f 40 00          	nop    DWORD PTR [rax+0x0]

0000000000204c50 <writeCurrentStackTrace>:
pub fn writeCurrentStackTrace(out_stream: var, allocator: *mem.Allocator, debug_info: *ElfStackTrace, tty_color: bool, start_addr: ?usize) !void {
  204c50:	55                   	push   rbp
  204c51:	48 89 e5             	mov    rbp,rsp
  204c54:	53                   	push   rbx
  204c55:	48 81 ec 88 00 00 00 	sub    rsp,0x88
  204c5c:	44 88 c0             	mov    al,r8b
  204c5f:	41 b8 aa 00 00 00    	mov    r8d,0xaa
  204c65:	41 ba 10 00 00 00    	mov    r10d,0x10
  204c6b:	45 89 d3             	mov    r11d,r10d
  204c6e:	48 8d 5d b0          	lea    rbx,[rbp-0x50]
  204c72:	48 89 75 d8          	mov    QWORD PTR [rbp-0x28],rsi
  204c76:	48 89 55 d0          	mov    QWORD PTR [rbp-0x30],rdx
  204c7a:	48 89 4d c8          	mov    QWORD PTR [rbp-0x38],rcx
  204c7e:	24 01                	and    al,0x1
  204c80:	88 45 c7             	mov    BYTE PTR [rbp-0x39],al
    var addr_state: AddressState = undefined;
  204c83:	48 89 7d 88          	mov    QWORD PTR [rbp-0x78],rdi
  204c87:	48 89 df             	mov    rdi,rbx
  204c8a:	44 89 c6             	mov    esi,r8d
  204c8d:	4c 89 da             	mov    rdx,r11
  204c90:	4c 89 4d 80          	mov    QWORD PTR [rbp-0x80],r9
  204c94:	e8 17 d0 01 00       	call   221cb0 <memset>
    if (start_addr) |addr| {
  204c99:	48 8b 4d 80          	mov    rcx,QWORD PTR [rbp-0x80]
  204c9d:	f6 41 08 01          	test   BYTE PTR [rcx+0x8],0x1
  204ca1:	75 02                	jne    204ca5 <writeCurrentStackTrace+0x55>
  204ca3:	eb 29                	jmp    204cce <writeCurrentStackTrace+0x7e>
  204ca5:	48 8b 45 80          	mov    rax,QWORD PTR [rbp-0x80]
  204ca9:	48 8b 08             	mov    rcx,QWORD PTR [rax]
  204cac:	48 89 4d a8          	mov    QWORD PTR [rbp-0x58],rcx
        addr_state = AddressState{ .LookingForStartAddress = addr };
  204cb0:	48 8b 4d a8          	mov    rcx,QWORD PTR [rbp-0x58]
  204cb4:	c6 45 f0 01          	mov    BYTE PTR [rbp-0x10],0x1
  204cb8:	48 89 4d e8          	mov    QWORD PTR [rbp-0x18],rcx
  204cbc:	48 8b 4d e8          	mov    rcx,QWORD PTR [rbp-0x18]
  204cc0:	48 89 4d b0          	mov    QWORD PTR [rbp-0x50],rcx
  204cc4:	48 8b 4d f0          	mov    rcx,QWORD PTR [rbp-0x10]
  204cc8:	48 89 4d b8          	mov    QWORD PTR [rbp-0x48],rcx
    if (start_addr) |addr| {
  204ccc:	eb 16                	jmp    204ce4 <writeCurrentStackTrace+0x94>
        addr_state = AddressState.NotLookingForStartAddress;
  204cce:	48 8b 05 eb d5 ff ff 	mov    rax,QWORD PTR [rip+0xffffffffffffd5eb]        # 2022c0 <__unnamed_123>
  204cd5:	48 89 45 b0          	mov    QWORD PTR [rbp-0x50],rax
  204cd9:	48 8b 05 e8 d5 ff ff 	mov    rax,QWORD PTR [rip+0xffffffffffffd5e8]        # 2022c8 <__unnamed_123+0x8>
  204ce0:	48 89 45 b8          	mov    QWORD PTR [rbp-0x48],rax
    var fp = @ptrToInt(@frameAddress());
  204ce4:	48 89 e8             	mov    rax,rbp
  204ce7:	48 89 45 a0          	mov    QWORD PTR [rbp-0x60],rax
    while (fp != 0) : (fp = @intToPtr(*const usize, fp).*) {
  204ceb:	48 83 7d a0 00       	cmp    QWORD PTR [rbp-0x60],0x0
  204cf0:	0f 84 bf 00 00 00    	je     204db5 <writeCurrentStackTrace+0x165>
        const return_address = @intToPtr(*const usize, fp + @sizeOf(usize)).*;
  204cf6:	48 8b 45 a0          	mov    rax,QWORD PTR [rbp-0x60]
  204cfa:	48 83 c0 08          	add    rax,0x8
  204cfe:	0f 92 c1             	setb   cl
  204d01:	48 89 85 78 ff ff ff 	mov    QWORD PTR [rbp-0x88],rax
  204d08:	88 8d 77 ff ff ff    	mov    BYTE PTR [rbp-0x89],cl
  204d0e:	0f 82 b3 00 00 00    	jb     204dc7 <writeCurrentStackTrace+0x177>
  204d14:	e9 be 00 00 00       	jmp    204dd7 <writeCurrentStackTrace+0x187>
        switch (addr_state) {
  204d19:	eb 3e                	jmp    204d59 <writeCurrentStackTrace+0x109>
            AddressState.LookingForStartAddress => |addr| {
  204d1b:	8a 45 b8             	mov    al,BYTE PTR [rbp-0x48]
  204d1e:	f6 d0                	not    al
  204d20:	a8 01                	test   al,0x1
  204d22:	0f 84 e3 00 00 00    	je     204e0b <writeCurrentStackTrace+0x1bb>
  204d28:	e9 f9 00 00 00       	jmp    204e26 <writeCurrentStackTrace+0x1d6>
                    addr_state = AddressState.NotLookingForStartAddress;
  204d2d:	48 8b 05 8c d5 ff ff 	mov    rax,QWORD PTR [rip+0xffffffffffffd58c]        # 2022c0 <__unnamed_123>
  204d34:	48 89 45 b0          	mov    QWORD PTR [rbp-0x50],rax
  204d38:	48 8b 05 89 d5 ff ff 	mov    rax,QWORD PTR [rip+0xffffffffffffd589]        # 2022c8 <__unnamed_123+0x8>
  204d3f:	48 89 45 b8          	mov    QWORD PTR [rbp-0x48],rax
                if (return_address == addr) {
  204d43:	eb 02                	jmp    204d47 <writeCurrentStackTrace+0xf7>
                    continue;
  204d45:	eb 5e                	jmp    204da5 <writeCurrentStackTrace+0x155>
        switch (addr_state) {
  204d47:	eb 10                	jmp    204d59 <writeCurrentStackTrace+0x109>
  204d49:	48 8d 3d 70 06 02 00 	lea    rdi,[rip+0x20670]        # 2253c0 <__unnamed_7>
  204d50:	31 c0                	xor    eax,eax
  204d52:	89 c6                	mov    esi,eax
  204d54:	e8 67 e3 ff ff       	call   2030c0 <panic>
        try printSourceAtAddress(debug_info, out_stream, return_address, tty_color);
  204d59:	48 8b 75 c8          	mov    rsi,QWORD PTR [rbp-0x38]
  204d5d:	48 8b 55 d8          	mov    rdx,QWORD PTR [rbp-0x28]
  204d61:	48 8b 4d 98          	mov    rcx,QWORD PTR [rbp-0x68]
  204d65:	8a 45 c7             	mov    al,BYTE PTR [rbp-0x39]
  204d68:	44 0f b6 c0          	movzx  r8d,al
  204d6c:	48 8b 7d 88          	mov    rdi,QWORD PTR [rbp-0x78]
  204d70:	e8 1b e8 00 00       	call   213590 <printSourceAtAddress>
  204d75:	66 89 45 e6          	mov    WORD PTR [rbp-0x1a],ax
  204d79:	66 83 7d e6 00       	cmp    WORD PTR [rbp-0x1a],0x0
  204d7e:	74 25                	je     204da5 <writeCurrentStackTrace+0x155>
  204d80:	66 8b 45 e6          	mov    ax,WORD PTR [rbp-0x1a]
  204d84:	48 8b 7d 88          	mov    rdi,QWORD PTR [rbp-0x78]
  204d88:	66 89 85 74 ff ff ff 	mov    WORD PTR [rbp-0x8c],ax
  204d8f:	e8 bc f6 ff ff       	call   204450 <__zig_return_error>
  204d94:	66 8b 85 74 ff ff ff 	mov    ax,WORD PTR [rbp-0x8c]
  204d9b:	48 81 c4 88 00 00 00 	add    rsp,0x88
  204da2:	5b                   	pop    rbx
  204da3:	5d                   	pop    rbp
  204da4:	c3                   	ret    
    while (fp != 0) : (fp = @intToPtr(*const usize, fp).*) {
  204da5:	48 8b 45 a0          	mov    rax,QWORD PTR [rbp-0x60]
  204da9:	48 8b 00             	mov    rax,QWORD PTR [rax]
  204dac:	48 89 45 a0          	mov    QWORD PTR [rbp-0x60],rax
  204db0:	e9 36 ff ff ff       	jmp    204ceb <writeCurrentStackTrace+0x9b>
  204db5:	31 c0                	xor    eax,eax
  204db7:	66 89 c1             	mov    cx,ax
pub fn writeCurrentStackTrace(out_stream: var, allocator: *mem.Allocator, debug_info: *ElfStackTrace, tty_color: bool, start_addr: ?usize) !void {
  204dba:	66 89 c8             	mov    ax,cx
  204dbd:	48 81 c4 88 00 00 00 	add    rsp,0x88
  204dc4:	5b                   	pop    rbx
  204dc5:	5d                   	pop    rbp
  204dc6:	c3                   	ret    
  204dc7:	48 8d 3d 4a 05 02 00 	lea    rdi,[rip+0x2054a]        # 225318 <__unnamed_5>
  204dce:	31 c0                	xor    eax,eax
  204dd0:	89 c6                	mov    esi,eax
        const return_address = @intToPtr(*const usize, fp + @sizeOf(usize)).*;
  204dd2:	e8 e9 e2 ff ff       	call   2030c0 <panic>
  204dd7:	48 8b 85 78 ff ff ff 	mov    rax,QWORD PTR [rbp-0x88]
  204dde:	48 8b 08             	mov    rcx,QWORD PTR [rax]
  204de1:	48 89 4d 98          	mov    QWORD PTR [rbp-0x68],rcx
        switch (addr_state) {
  204de5:	8a 55 b8             	mov    dl,BYTE PTR [rbp-0x48]
  204de8:	84 d2                	test   dl,dl
  204dea:	88 95 73 ff ff ff    	mov    BYTE PTR [rbp-0x8d],dl
  204df0:	0f 85 25 ff ff ff    	jne    204d1b <writeCurrentStackTrace+0xcb>
  204df6:	eb 00                	jmp    204df8 <writeCurrentStackTrace+0x1a8>
  204df8:	8a 85 73 ff ff ff    	mov    al,BYTE PTR [rbp-0x8d]
  204dfe:	a8 01                	test   al,0x1
  204e00:	0f 84 13 ff ff ff    	je     204d19 <writeCurrentStackTrace+0xc9>
  204e06:	e9 3e ff ff ff       	jmp    204d49 <writeCurrentStackTrace+0xf9>
            AddressState.LookingForStartAddress => |addr| {
  204e0b:	48 8b 45 b0          	mov    rax,QWORD PTR [rbp-0x50]
  204e0f:	48 89 45 90          	mov    QWORD PTR [rbp-0x70],rax
                if (return_address == addr) {
  204e13:	48 8b 45 98          	mov    rax,QWORD PTR [rbp-0x68]
  204e17:	48 3b 45 90          	cmp    rax,QWORD PTR [rbp-0x70]
  204e1b:	0f 84 0c ff ff ff    	je     204d2d <writeCurrentStackTrace+0xdd>
  204e21:	e9 1f ff ff ff       	jmp    204d45 <writeCurrentStackTrace+0xf5>
  204e26:	48 8d 3d 33 07 02 00 	lea    rdi,[rip+0x20733]        # 225560 <__unnamed_17>
  204e2d:	31 c0                	xor    eax,eax
  204e2f:	89 c6                	mov    esi,eax
            AddressState.LookingForStartAddress => |addr| {
  204e31:	e8 8a e2 ff ff       	call   2030c0 <panic>
  204e36:	66 2e 0f 1f 84 00 00 	nop    WORD PTR cs:[rax+rax*1+0x0]
  204e3d:	00 00 00 

0000000000204e40 <Xoroshiro128_next>:
    fn next(self: *Xoroshiro128) u64 {
  204e40:	55                   	push   rbp
  204e41:	48 89 e5             	mov    rbp,rsp
  204e44:	48 83 ec 30          	sub    rsp,0x30
  204e48:	be 37 00 00 00       	mov    esi,0x37
  204e4d:	48 89 7d f8          	mov    QWORD PTR [rbp-0x8],rdi
        const s0 = self.s[0];
  204e51:	48 8b 7d f8          	mov    rdi,QWORD PTR [rbp-0x8]
  204e55:	48 8b 7f 08          	mov    rdi,QWORD PTR [rdi+0x8]
  204e59:	48 89 7d f0          	mov    QWORD PTR [rbp-0x10],rdi
        var s1 = self.s[1];
  204e5d:	48 8b 7d f8          	mov    rdi,QWORD PTR [rbp-0x8]
  204e61:	48 8b 7f 10          	mov    rdi,QWORD PTR [rdi+0x10]
  204e65:	48 89 7d e8          	mov    QWORD PTR [rbp-0x18],rdi
        const r = s0 +% s1;
  204e69:	48 8b 7d f0          	mov    rdi,QWORD PTR [rbp-0x10]
  204e6d:	48 03 7d e8          	add    rdi,QWORD PTR [rbp-0x18]
  204e71:	48 89 7d e0          	mov    QWORD PTR [rbp-0x20],rdi
        s1 ^= s0;
  204e75:	48 8b 7d e8          	mov    rdi,QWORD PTR [rbp-0x18]
  204e79:	48 33 7d f0          	xor    rdi,QWORD PTR [rbp-0x10]
  204e7d:	48 89 7d e8          	mov    QWORD PTR [rbp-0x18],rdi
        self.s[0] = math.rotl(u64, s0, u8(55)) ^ s1 ^ (s1 << 14);
  204e81:	48 8b 7d f8          	mov    rdi,QWORD PTR [rbp-0x8]
  204e85:	48 8b 45 f0          	mov    rax,QWORD PTR [rbp-0x10]
  204e89:	48 89 7d d8          	mov    QWORD PTR [rbp-0x28],rdi
  204e8d:	48 89 c7             	mov    rdi,rax
  204e90:	e8 0b 72 01 00       	call   21c0a0 <rotl>
  204e95:	be 24 00 00 00       	mov    esi,0x24
  204e9a:	48 33 45 e8          	xor    rax,QWORD PTR [rbp-0x18]
  204e9e:	48 8b 7d e8          	mov    rdi,QWORD PTR [rbp-0x18]
  204ea2:	48 c1 e7 0e          	shl    rdi,0xe
  204ea6:	48 31 f8             	xor    rax,rdi
  204ea9:	48 8b 7d d8          	mov    rdi,QWORD PTR [rbp-0x28]
  204ead:	48 89 47 08          	mov    QWORD PTR [rdi+0x8],rax
        self.s[1] = math.rotl(u64, s1, u8(36));
  204eb1:	48 8b 45 f8          	mov    rax,QWORD PTR [rbp-0x8]
  204eb5:	48 8b 7d e8          	mov    rdi,QWORD PTR [rbp-0x18]
  204eb9:	48 89 45 d0          	mov    QWORD PTR [rbp-0x30],rax
  204ebd:	e8 de 71 01 00       	call   21c0a0 <rotl>
  204ec2:	48 8b 7d d0          	mov    rdi,QWORD PTR [rbp-0x30]
  204ec6:	48 89 47 10          	mov    QWORD PTR [rdi+0x10],rax
        return r;
  204eca:	48 8b 45 e0          	mov    rax,QWORD PTR [rbp-0x20]
  204ece:	48 83 c4 30          	add    rsp,0x30
  204ed2:	5d                   	pop    rbp
  204ed3:	c3                   	ret    
  204ed4:	66 66 66 2e 0f 1f 84 	data16 data16 nop WORD PTR cs:[rax+rax*1+0x0]
  204edb:	00 00 00 00 00 

0000000000204ee0 <SplitMix64_init>:
    pub fn init(seed: u64) SplitMix64 {
  204ee0:	55                   	push   rbp
  204ee1:	48 89 e5             	mov    rbp,rsp
  204ee4:	48 89 f8             	mov    rax,rdi
  204ee7:	48 89 75 f0          	mov    QWORD PTR [rbp-0x10],rsi
        return SplitMix64{ .s = seed };
  204eeb:	48 8b 75 f0          	mov    rsi,QWORD PTR [rbp-0x10]
  204eef:	48 89 75 f8          	mov    QWORD PTR [rbp-0x8],rsi
  204ef3:	48 8b 75 f8          	mov    rsi,QWORD PTR [rbp-0x8]
  204ef7:	48 89 37             	mov    QWORD PTR [rdi],rsi
  204efa:	5d                   	pop    rbp
  204efb:	c3                   	ret    
  204efc:	0f 1f 40 00          	nop    DWORD PTR [rax+0x0]

0000000000204f00 <SplitMix64_next>:
    pub fn next(self: *SplitMix64) u64 {
  204f00:	55                   	push   rbp
  204f01:	48 89 e5             	mov    rbp,rsp
  204f04:	48 b8 eb 11 31 13 bb 	movabs rax,0x94d049bb133111eb
  204f0b:	49 d0 94 
  204f0e:	48 b9 b9 e5 e4 1c 6d 	movabs rcx,0xbf58476d1ce4e5b9
  204f15:	47 58 bf 
  204f18:	48 ba 15 7c 4a 7f b9 	movabs rdx,0x9e3779b97f4a7c15
  204f1f:	79 37 9e 
  204f22:	48 89 7d f8          	mov    QWORD PTR [rbp-0x8],rdi
        self.s +%= 0x9e3779b97f4a7c15;
  204f26:	48 8b 7d f8          	mov    rdi,QWORD PTR [rbp-0x8]
  204f2a:	48 03 17             	add    rdx,QWORD PTR [rdi]
  204f2d:	48 89 17             	mov    QWORD PTR [rdi],rdx
        var z = self.s;
  204f30:	48 8b 55 f8          	mov    rdx,QWORD PTR [rbp-0x8]
  204f34:	48 8b 12             	mov    rdx,QWORD PTR [rdx]
  204f37:	48 89 55 f0          	mov    QWORD PTR [rbp-0x10],rdx
        z = (z ^ (z >> 30)) *% 0xbf58476d1ce4e5b9;
  204f3b:	48 8b 55 f0          	mov    rdx,QWORD PTR [rbp-0x10]
  204f3f:	48 8b 7d f0          	mov    rdi,QWORD PTR [rbp-0x10]
  204f43:	48 c1 ef 1e          	shr    rdi,0x1e
  204f47:	48 31 fa             	xor    rdx,rdi
  204f4a:	48 0f af d1          	imul   rdx,rcx
  204f4e:	48 89 55 f0          	mov    QWORD PTR [rbp-0x10],rdx
        z = (z ^ (z >> 27)) *% 0x94d049bb133111eb;
  204f52:	48 8b 4d f0          	mov    rcx,QWORD PTR [rbp-0x10]
  204f56:	48 8b 55 f0          	mov    rdx,QWORD PTR [rbp-0x10]
  204f5a:	48 c1 ea 1b          	shr    rdx,0x1b
  204f5e:	48 31 d1             	xor    rcx,rdx
  204f61:	48 0f af c8          	imul   rcx,rax
  204f65:	48 89 4d f0          	mov    QWORD PTR [rbp-0x10],rcx
        return z ^ (z >> 31);
  204f69:	48 8b 45 f0          	mov    rax,QWORD PTR [rbp-0x10]
  204f6d:	48 8b 4d f0          	mov    rcx,QWORD PTR [rbp-0x10]
  204f71:	48 c1 e9 1f          	shr    rcx,0x1f
  204f75:	48 31 c8             	xor    rax,rcx
  204f78:	5d                   	pop    rbp
  204f79:	c3                   	ret    
  204f7a:	66 0f 1f 44 00 00    	nop    WORD PTR [rax+rax*1+0x0]

0000000000204f80 <syscall4>:
          [arg3] "{rdx}" (arg3)
        : "rcx", "r11"
    );
}

pub fn syscall4(number: usize, arg1: usize, arg2: usize, arg3: usize, arg4: usize) usize {
  204f80:	55                   	push   rbp
  204f81:	48 89 e5             	mov    rbp,rsp
  204f84:	48 89 7d f8          	mov    QWORD PTR [rbp-0x8],rdi
  204f88:	48 89 75 f0          	mov    QWORD PTR [rbp-0x10],rsi
  204f8c:	48 89 55 e8          	mov    QWORD PTR [rbp-0x18],rdx
  204f90:	48 89 4d e0          	mov    QWORD PTR [rbp-0x20],rcx
  204f94:	4c 89 45 d8          	mov    QWORD PTR [rbp-0x28],r8
    return asm volatile ("syscall"
        : [ret] "={rax}" (-> usize)
        : [number] "{rax}" (number),
  204f98:	48 8b 45 f8          	mov    rax,QWORD PTR [rbp-0x8]
          [arg1] "{rdi}" (arg1),
  204f9c:	48 8b 7d f0          	mov    rdi,QWORD PTR [rbp-0x10]
          [arg2] "{rsi}" (arg2),
  204fa0:	48 8b 75 e8          	mov    rsi,QWORD PTR [rbp-0x18]
          [arg3] "{rdx}" (arg3),
  204fa4:	48 8b 55 e0          	mov    rdx,QWORD PTR [rbp-0x20]
          [arg4] "{r10}" (arg4)
  204fa8:	4c 8b 55 d8          	mov    r10,QWORD PTR [rbp-0x28]
    return asm volatile ("syscall"
  204fac:	0f 05                	syscall 
  204fae:	5d                   	pop    rbp
  204faf:	c3                   	ret    

0000000000204fb0 <format.13>:
pub fn format(context: var, comptime Errors: type, output: fn (@typeOf(context), []const u8) Errors!void, comptime fmt: []const u8, args: ...) Errors!void {
  204fb0:	55                   	push   rbp
  204fb1:	48 89 e5             	mov    rbp,rsp
  204fb4:	48 83 ec 40          	sub    rsp,0x40
  204fb8:	48 8d 05 19 04 02 00 	lea    rax,[rip+0x20419]        # 2253d8 <__unnamed_18>
  204fbf:	48 89 75 f0          	mov    QWORD PTR [rbp-0x10],rsi
  204fc3:	48 89 55 e8          	mov    QWORD PTR [rbp-0x18],rdx
  204fc7:	89 4d e4             	mov    DWORD PTR [rbp-0x1c],ecx
                        try output(context, fmt[start_index..i]);
  204fca:	48 8b 55 e8          	mov    rdx,QWORD PTR [rbp-0x18]
  204fce:	48 8b 75 f0          	mov    rsi,QWORD PTR [rbp-0x10]
  204fd2:	48 89 7d d8          	mov    QWORD PTR [rbp-0x28],rdi
  204fd6:	48 89 55 d0          	mov    QWORD PTR [rbp-0x30],rdx
  204fda:	48 89 c2             	mov    rdx,rax
  204fdd:	48 8b 45 d0          	mov    rax,QWORD PTR [rbp-0x30]
  204fe1:	ff d0                	call   rax
  204fe3:	66 89 45 fe          	mov    WORD PTR [rbp-0x2],ax
  204fe7:	66 83 7d fe 00       	cmp    WORD PTR [rbp-0x2],0x0
  204fec:	74 1b                	je     205009 <format.13+0x59>
  204fee:	66 8b 45 fe          	mov    ax,WORD PTR [rbp-0x2]
  204ff2:	48 8b 7d d8          	mov    rdi,QWORD PTR [rbp-0x28]
  204ff6:	66 89 45 ce          	mov    WORD PTR [rbp-0x32],ax
  204ffa:	e8 51 f4 ff ff       	call   204450 <__zig_return_error>
  204fff:	66 8b 45 ce          	mov    ax,WORD PTR [rbp-0x32]
  205003:	48 83 c4 40          	add    rsp,0x40
  205007:	5d                   	pop    rbp
  205008:	c3                   	ret    
                    try formatType(args[next_arg], fmt[0..0], context, Errors, output);
  205009:	8b 75 e4             	mov    esi,DWORD PTR [rbp-0x1c]
  20500c:	48 8b 55 f0          	mov    rdx,QWORD PTR [rbp-0x10]
  205010:	48 8b 4d e8          	mov    rcx,QWORD PTR [rbp-0x18]
  205014:	48 8b 7d d8          	mov    rdi,QWORD PTR [rbp-0x28]
  205018:	e8 73 00 00 00       	call   205090 <formatType.14>
  20501d:	66 89 45 fc          	mov    WORD PTR [rbp-0x4],ax
  205021:	66 83 7d fc 00       	cmp    WORD PTR [rbp-0x4],0x0
  205026:	74 1b                	je     205043 <format.13+0x93>
  205028:	66 8b 45 fc          	mov    ax,WORD PTR [rbp-0x4]
  20502c:	48 8b 7d d8          	mov    rdi,QWORD PTR [rbp-0x28]
  205030:	66 89 45 cc          	mov    WORD PTR [rbp-0x34],ax
  205034:	e8 17 f4 ff ff       	call   204450 <__zig_return_error>
  205039:	66 8b 45 cc          	mov    ax,WORD PTR [rbp-0x34]
  20503d:	48 83 c4 40          	add    rsp,0x40
  205041:	5d                   	pop    rbp
  205042:	c3                   	ret    
  205043:	48 8d 15 a6 03 02 00 	lea    rdx,[rip+0x203a6]        # 2253f0 <__unnamed_19>
        try output(context, fmt[start_index..]);
  20504a:	48 8b 45 e8          	mov    rax,QWORD PTR [rbp-0x18]
  20504e:	48 8b 75 f0          	mov    rsi,QWORD PTR [rbp-0x10]
  205052:	48 8b 7d d8          	mov    rdi,QWORD PTR [rbp-0x28]
  205056:	ff d0                	call   rax
  205058:	66 89 45 fa          	mov    WORD PTR [rbp-0x6],ax
  20505c:	66 83 7d fa 00       	cmp    WORD PTR [rbp-0x6],0x0
  205061:	74 1b                	je     20507e <format.13+0xce>
  205063:	66 8b 45 fa          	mov    ax,WORD PTR [rbp-0x6]
  205067:	48 8b 7d d8          	mov    rdi,QWORD PTR [rbp-0x28]
  20506b:	66 89 45 ca          	mov    WORD PTR [rbp-0x36],ax
  20506f:	e8 dc f3 ff ff       	call   204450 <__zig_return_error>
  205074:	66 8b 45 ca          	mov    ax,WORD PTR [rbp-0x36]
  205078:	48 83 c4 40          	add    rsp,0x40
  20507c:	5d                   	pop    rbp
  20507d:	c3                   	ret    
  20507e:	31 c0                	xor    eax,eax
  205080:	66 89 c1             	mov    cx,ax
pub fn format(context: var, comptime Errors: type, output: fn (@typeOf(context), []const u8) Errors!void, comptime fmt: []const u8, args: ...) Errors!void {
  205083:	66 89 c8             	mov    ax,cx
  205086:	48 83 c4 40          	add    rsp,0x40
  20508a:	5d                   	pop    rbp
  20508b:	c3                   	ret    
  20508c:	0f 1f 40 00          	nop    DWORD PTR [rax+0x0]

0000000000205090 <formatType.14>:
pub fn formatType(
  205090:	55                   	push   rbp
  205091:	48 89 e5             	mov    rbp,rsp
  205094:	48 83 ec 30          	sub    rsp,0x30
  205098:	89 75 fc             	mov    DWORD PTR [rbp-0x4],esi
  20509b:	48 89 55 f0          	mov    QWORD PTR [rbp-0x10],rdx
  20509f:	48 89 4d e8          	mov    QWORD PTR [rbp-0x18],rcx
            return formatValue(value, fmt, context, Errors, output);
  2050a3:	8b 75 fc             	mov    esi,DWORD PTR [rbp-0x4]
  2050a6:	48 8b 55 f0          	mov    rdx,QWORD PTR [rbp-0x10]
  2050aa:	48 8b 4d e8          	mov    rcx,QWORD PTR [rbp-0x18]
  2050ae:	48 89 7d e0          	mov    QWORD PTR [rbp-0x20],rdi
  2050b2:	e8 89 70 01 00       	call   21c140 <formatValue>
  2050b7:	66 83 f8 00          	cmp    ax,0x0
  2050bb:	66 89 45 de          	mov    WORD PTR [rbp-0x22],ax
  2050bf:	74 0b                	je     2050cc <formatType.14+0x3c>
  2050c1:	48 8b 7d e0          	mov    rdi,QWORD PTR [rbp-0x20]
  2050c5:	e8 86 f3 ff ff       	call   204450 <__zig_return_error>
  2050ca:	eb 02                	jmp    2050ce <formatType.14+0x3e>
  2050cc:	eb 00                	jmp    2050ce <formatType.14+0x3e>
  2050ce:	66 8b 45 de          	mov    ax,WORD PTR [rbp-0x22]
  2050d2:	48 83 c4 30          	add    rsp,0x30
  2050d6:	5d                   	pop    rbp
  2050d7:	c3                   	ret    
  2050d8:	0f 1f 84 00 00 00 00 	nop    DWORD PTR [rax+rax*1+0x0]
  2050df:	00 

00000000002050e0 <blockAppSignals>:

fn blockAllSignals(set: *sigset_t) void {
    _ = syscall4(SYS_rt_sigprocmask, SIG_BLOCK, @ptrToInt(&all_mask), @ptrToInt(set), NSIG / 8);
}

fn blockAppSignals(set: *sigset_t) void {
  2050e0:	55                   	push   rbp
  2050e1:	48 89 e5             	mov    rbp,rsp
  2050e4:	48 83 ec 20          	sub    rsp,0x20
  2050e8:	b8 0e 00 00 00       	mov    eax,0xe
  2050ed:	89 c1                	mov    ecx,eax
  2050ef:	31 c0                	xor    eax,eax
  2050f1:	89 c6                	mov    esi,eax
  2050f3:	48 8d 15 de d2 ff ff 	lea    rdx,[rip+0xffffffffffffd2de]        # 2023d8 <app_mask>
  2050fa:	b8 08 00 00 00       	mov    eax,0x8
  2050ff:	41 89 c0             	mov    r8d,eax
  205102:	48 89 7d f8          	mov    QWORD PTR [rbp-0x8],rdi
    _ = syscall4(SYS_rt_sigprocmask, SIG_BLOCK, @ptrToInt(&app_mask), @ptrToInt(set), NSIG / 8);
  205106:	48 8b 7d f8          	mov    rdi,QWORD PTR [rbp-0x8]
  20510a:	48 89 7d f0          	mov    QWORD PTR [rbp-0x10],rdi
  20510e:	48 89 cf             	mov    rdi,rcx
  205111:	48 8b 4d f0          	mov    rcx,QWORD PTR [rbp-0x10]
  205115:	e8 76 70 01 00       	call   21c190 <syscall4.79>
fn blockAppSignals(set: *sigset_t) void {
  20511a:	48 89 45 e8          	mov    QWORD PTR [rbp-0x18],rax
  20511e:	48 83 c4 20          	add    rsp,0x20
  205122:	5d                   	pop    rbp
  205123:	c3                   	ret    
  205124:	66 66 66 2e 0f 1f 84 	data16 data16 nop WORD PTR cs:[rax+rax*1+0x0]
  20512b:	00 00 00 00 00 

0000000000205130 <syscall0>:
pub const VDSO_CGT_SYM = "__vdso_clock_gettime";
pub const VDSO_CGT_VER = "LINUX_2.6";
pub const VDSO_GETCPU_SYM = "__vdso_getcpu";
pub const VDSO_GETCPU_VER = "LINUX_2.6";

pub fn syscall0(number: usize) usize {
  205130:	55                   	push   rbp
  205131:	48 89 e5             	mov    rbp,rsp
  205134:	48 89 7d f8          	mov    QWORD PTR [rbp-0x8],rdi
    return asm volatile ("syscall"
        : [ret] "={rax}" (-> usize)
        : [number] "{rax}" (number)
  205138:	48 8b 45 f8          	mov    rax,QWORD PTR [rbp-0x8]
    return asm volatile ("syscall"
  20513c:	0f 05                	syscall 
  20513e:	5d                   	pop    rbp
  20513f:	c3                   	ret    

0000000000205140 <syscall2>:
          [arg1] "{rdi}" (arg1)
        : "rcx", "r11"
    );
}

pub fn syscall2(number: usize, arg1: usize, arg2: usize) usize {
  205140:	55                   	push   rbp
  205141:	48 89 e5             	mov    rbp,rsp
  205144:	48 89 7d f8          	mov    QWORD PTR [rbp-0x8],rdi
  205148:	48 89 75 f0          	mov    QWORD PTR [rbp-0x10],rsi
  20514c:	48 89 55 e8          	mov    QWORD PTR [rbp-0x18],rdx
    return asm volatile ("syscall"
        : [ret] "={rax}" (-> usize)
        : [number] "{rax}" (number),
  205150:	48 8b 45 f8          	mov    rax,QWORD PTR [rbp-0x8]
          [arg1] "{rdi}" (arg1),
  205154:	48 8b 7d f0          	mov    rdi,QWORD PTR [rbp-0x10]
          [arg2] "{rsi}" (arg2)
  205158:	48 8b 75 e8          	mov    rsi,QWORD PTR [rbp-0x18]
    return asm volatile ("syscall"
  20515c:	0f 05                	syscall 
  20515e:	5d                   	pop    rbp
  20515f:	c3                   	ret    

0000000000205160 <restoreSignals>:
}

fn restoreSignals(set: *sigset_t) void {
  205160:	55                   	push   rbp
  205161:	48 89 e5             	mov    rbp,rsp
  205164:	48 83 ec 20          	sub    rsp,0x20
  205168:	b8 0e 00 00 00       	mov    eax,0xe
  20516d:	89 c1                	mov    ecx,eax
  20516f:	b8 02 00 00 00       	mov    eax,0x2
  205174:	89 c6                	mov    esi,eax
  205176:	31 c0                	xor    eax,eax
  205178:	89 c2                	mov    edx,eax
  20517a:	b8 08 00 00 00       	mov    eax,0x8
  20517f:	41 89 c0             	mov    r8d,eax
  205182:	48 89 7d f8          	mov    QWORD PTR [rbp-0x8],rdi
    _ = syscall4(SYS_rt_sigprocmask, SIG_SETMASK, @ptrToInt(set), 0, NSIG / 8);
  205186:	48 8b 7d f8          	mov    rdi,QWORD PTR [rbp-0x8]
  20518a:	48 89 7d f0          	mov    QWORD PTR [rbp-0x10],rdi
  20518e:	48 89 cf             	mov    rdi,rcx
  205191:	48 8b 4d f0          	mov    rcx,QWORD PTR [rbp-0x10]
  205195:	48 89 55 e8          	mov    QWORD PTR [rbp-0x18],rdx
  205199:	48 89 ca             	mov    rdx,rcx
  20519c:	48 8b 4d e8          	mov    rcx,QWORD PTR [rbp-0x18]
  2051a0:	e8 eb 6f 01 00       	call   21c190 <syscall4.79>
fn restoreSignals(set: *sigset_t) void {
  2051a5:	48 89 45 e0          	mov    QWORD PTR [rbp-0x20],rax
  2051a9:	48 83 c4 20          	add    rsp,0x20
  2051ad:	5d                   	pop    rbp
  2051ae:	c3                   	ret    
  2051af:	90                   	nop

00000000002051b0 <File_write>:
        }
    }

    pub const WriteError = os.WindowsWriteError || os.PosixWriteError;

    pub fn write(self: *File, bytes: []const u8) WriteError!void {
  2051b0:	55                   	push   rbp
  2051b1:	48 89 e5             	mov    rbp,rsp
  2051b4:	48 83 ec 20          	sub    rsp,0x20
  2051b8:	48 89 75 f0          	mov    QWORD PTR [rbp-0x10],rsi
        if (is_posix) {
            try os.posixWrite(self.handle, bytes);
  2051bc:	48 8b 75 f0          	mov    rsi,QWORD PTR [rbp-0x10]
  2051c0:	8b 36                	mov    esi,DWORD PTR [rsi]
  2051c2:	48 89 7d e8          	mov    QWORD PTR [rbp-0x18],rdi
  2051c6:	e8 35 00 00 00       	call   205200 <posixWrite>
  2051cb:	66 89 45 fe          	mov    WORD PTR [rbp-0x2],ax
  2051cf:	66 83 7d fe 00       	cmp    WORD PTR [rbp-0x2],0x0
  2051d4:	74 1b                	je     2051f1 <File_write+0x41>
  2051d6:	66 8b 45 fe          	mov    ax,WORD PTR [rbp-0x2]
  2051da:	48 8b 7d e8          	mov    rdi,QWORD PTR [rbp-0x18]
  2051de:	66 89 45 e6          	mov    WORD PTR [rbp-0x1a],ax
  2051e2:	e8 69 f2 ff ff       	call   204450 <__zig_return_error>
  2051e7:	66 8b 45 e6          	mov    ax,WORD PTR [rbp-0x1a]
  2051eb:	48 83 c4 20          	add    rsp,0x20
  2051ef:	5d                   	pop    rbp
  2051f0:	c3                   	ret    
  2051f1:	31 c0                	xor    eax,eax
  2051f3:	66 89 c1             	mov    cx,ax
    pub fn write(self: *File, bytes: []const u8) WriteError!void {
  2051f6:	66 89 c8             	mov    ax,cx
  2051f9:	48 83 c4 20          	add    rsp,0x20
  2051fd:	5d                   	pop    rbp
  2051fe:	c3                   	ret    
  2051ff:	90                   	nop

0000000000205200 <posixWrite>:
    BrokenPipe,
    Unexpected,
};

/// Calls POSIX write, and keeps trying if it gets interrupted.
pub fn posixWrite(fd: i32, bytes: []const u8) !void {
  205200:	55                   	push   rbp
  205201:	48 89 e5             	mov    rbp,rsp
  205204:	48 81 ec d0 00 00 00 	sub    rsp,0xd0
  20520b:	89 75 fc             	mov    DWORD PTR [rbp-0x4],esi
    // Linux can return EINVAL when write amount is > 0x7ffff000
    // See https://github.com/ziglang/zig/pull/743#issuecomment-363165856
    const max_bytes_len = 0x7ffff000;

    var index: usize = 0;
  20520e:	48 c7 45 f0 00 00 00 	mov    QWORD PTR [rbp-0x10],0x0
  205215:	00 
  205216:	48 89 7d d0          	mov    QWORD PTR [rbp-0x30],rdi
  20521a:	48 89 55 c8          	mov    QWORD PTR [rbp-0x38],rdx
    while (index < bytes.len) {
  20521e:	48 8b 45 f0          	mov    rax,QWORD PTR [rbp-0x10]
  205222:	48 8b 4d c8          	mov    rcx,QWORD PTR [rbp-0x38]
  205226:	48 3b 41 08          	cmp    rax,QWORD PTR [rcx+0x8]
  20522a:	0f 83 08 02 00 00    	jae    205438 <posixWrite+0x238>
        const amt_to_write = math.min(bytes.len - index, usize(max_bytes_len));
  205230:	48 8b 45 c8          	mov    rax,QWORD PTR [rbp-0x38]
  205234:	48 8b 48 08          	mov    rcx,QWORD PTR [rax+0x8]
  205238:	48 2b 4d f0          	sub    rcx,QWORD PTR [rbp-0x10]
  20523c:	0f 92 c2             	setb   dl
  20523f:	48 89 4d c0          	mov    QWORD PTR [rbp-0x40],rcx
  205243:	88 55 bf             	mov    BYTE PTR [rbp-0x41],dl
  205246:	0f 82 fd 01 00 00    	jb     205449 <posixWrite+0x249>
  20524c:	e9 08 02 00 00       	jmp    205459 <posixWrite+0x259>
        const rc = posix.write(fd, bytes.ptr + index, amt_to_write);
        const write_err = posix.getErrno(rc);
        if (write_err > 0) {
            return switch (write_err) {
  205251:	48 8b 45 d8          	mov    rax,QWORD PTR [rbp-0x28]
  205255:	48 89 c1             	mov    rcx,rax
  205258:	48 83 e9 01          	sub    rcx,0x1
  20525c:	48 89 45 b0          	mov    QWORD PTR [rbp-0x50],rax
  205260:	48 89 4d a8          	mov    QWORD PTR [rbp-0x58],rcx
  205264:	0f 84 71 01 00 00    	je     2053db <posixWrite+0x1db>
  20526a:	eb 00                	jmp    20526c <posixWrite+0x6c>
  20526c:	48 8b 45 b0          	mov    rax,QWORD PTR [rbp-0x50]
  205270:	48 83 e8 04          	sub    rax,0x4
  205274:	48 89 45 a0          	mov    QWORD PTR [rbp-0x60],rax
  205278:	0f 84 ed 00 00 00    	je     20536b <posixWrite+0x16b>
  20527e:	eb 00                	jmp    205280 <posixWrite+0x80>
  205280:	48 8b 45 b0          	mov    rax,QWORD PTR [rbp-0x50]
  205284:	48 83 e8 05          	sub    rax,0x5
  205288:	48 89 45 98          	mov    QWORD PTR [rbp-0x68],rax
  20528c:	0f 84 2f 01 00 00    	je     2053c1 <posixWrite+0x1c1>
  205292:	eb 00                	jmp    205294 <posixWrite+0x94>
  205294:	48 8b 45 b0          	mov    rax,QWORD PTR [rbp-0x50]
  205298:	48 83 e8 09          	sub    rax,0x9
  20529c:	48 89 45 90          	mov    QWORD PTR [rbp-0x70],rax
  2052a0:	0f 84 e7 00 00 00    	je     20538d <posixWrite+0x18d>
  2052a6:	eb 00                	jmp    2052a8 <posixWrite+0xa8>
  2052a8:	48 8b 45 b0          	mov    rax,QWORD PTR [rbp-0x50]
  2052ac:	48 83 e8 0b          	sub    rax,0xb
  2052b0:	48 89 45 88          	mov    QWORD PTR [rbp-0x78],rax
  2052b4:	0f 84 c6 00 00 00    	je     205380 <posixWrite+0x180>
  2052ba:	eb 00                	jmp    2052bc <posixWrite+0xbc>
  2052bc:	48 8b 45 b0          	mov    rax,QWORD PTR [rbp-0x50]
  2052c0:	48 83 e8 0e          	sub    rax,0xe
  2052c4:	48 89 45 80          	mov    QWORD PTR [rbp-0x80],rax
  2052c8:	0f 84 a2 00 00 00    	je     205370 <posixWrite+0x170>
  2052ce:	eb 00                	jmp    2052d0 <posixWrite+0xd0>
  2052d0:	48 8b 45 b0          	mov    rax,QWORD PTR [rbp-0x50]
  2052d4:	48 83 e8 16          	sub    rax,0x16
  2052d8:	48 89 85 78 ff ff ff 	mov    QWORD PTR [rbp-0x88],rax
  2052df:	0f 84 8b 00 00 00    	je     205370 <posixWrite+0x170>
  2052e5:	eb 00                	jmp    2052e7 <posixWrite+0xe7>
  2052e7:	48 8b 45 b0          	mov    rax,QWORD PTR [rbp-0x50]
  2052eb:	48 83 e8 1b          	sub    rax,0x1b
  2052ef:	48 89 85 70 ff ff ff 	mov    QWORD PTR [rbp-0x90],rax
  2052f6:	0f 84 b8 00 00 00    	je     2053b4 <posixWrite+0x1b4>
  2052fc:	eb 00                	jmp    2052fe <posixWrite+0xfe>
  2052fe:	48 8b 45 b0          	mov    rax,QWORD PTR [rbp-0x50]
  205302:	48 83 e8 1c          	sub    rax,0x1c
  205306:	48 89 85 68 ff ff ff 	mov    QWORD PTR [rbp-0x98],rax
  20530d:	0f 84 bb 00 00 00    	je     2053ce <posixWrite+0x1ce>
  205313:	eb 00                	jmp    205315 <posixWrite+0x115>
  205315:	48 8b 45 b0          	mov    rax,QWORD PTR [rbp-0x50]
  205319:	48 83 e8 20          	sub    rax,0x20
  20531d:	48 89 85 60 ff ff ff 	mov    QWORD PTR [rbp-0xa0],rax
  205324:	0f 84 be 00 00 00    	je     2053e8 <posixWrite+0x1e8>
  20532a:	eb 00                	jmp    20532c <posixWrite+0x12c>
  20532c:	48 8b 45 b0          	mov    rax,QWORD PTR [rbp-0x50]
  205330:	48 83 e8 59          	sub    rax,0x59
  205334:	48 89 85 58 ff ff ff 	mov    QWORD PTR [rbp-0xa8],rax
  20533b:	74 5d                	je     20539a <posixWrite+0x19a>
  20533d:	eb 00                	jmp    20533f <posixWrite+0x13f>
  20533f:	48 8b 45 b0          	mov    rax,QWORD PTR [rbp-0x50]
  205343:	48 83 e8 7a          	sub    rax,0x7a
  205347:	48 89 85 50 ff ff ff 	mov    QWORD PTR [rbp-0xb0],rax
  20534e:	74 57                	je     2053a7 <posixWrite+0x1a7>
  205350:	eb 00                	jmp    205352 <posixWrite+0x152>
                posix.EFBIG => PosixWriteError.FileTooBig,
                posix.EIO => PosixWriteError.InputOutput,
                posix.ENOSPC => PosixWriteError.NoSpaceLeft,
                posix.EPERM => PosixWriteError.AccessDenied,
                posix.EPIPE => PosixWriteError.BrokenPipe,
                else => unexpectedErrorPosix(write_err),
  205352:	48 8b 75 d8          	mov    rsi,QWORD PTR [rbp-0x28]
  205356:	48 8b 7d d0          	mov    rdi,QWORD PTR [rbp-0x30]
  20535a:	e8 31 5e 00 00       	call   20b190 <unexpectedErrorPosix>
            return switch (write_err) {
  20535f:	66 89 85 4e ff ff ff 	mov    WORD PTR [rbp-0xb2],ax
  205366:	e9 8a 00 00 00       	jmp    2053f5 <posixWrite+0x1f5>
                posix.EINTR => continue,
  20536b:	e9 ae fe ff ff       	jmp    20521e <posixWrite+0x1e>
  205370:	48 8d 3d 49 00 02 00 	lea    rdi,[rip+0x20049]        # 2253c0 <__unnamed_7>
  205377:	31 c0                	xor    eax,eax
  205379:	89 c6                	mov    esi,eax
                posix.EINVAL, posix.EFAULT => unreachable,
  20537b:	e8 40 dd ff ff       	call   2030c0 <panic>
  205380:	66 b8 06 00          	mov    ax,0x6
            return switch (write_err) {
  205384:	66 89 85 4e ff ff ff 	mov    WORD PTR [rbp-0xb2],ax
  20538b:	eb 68                	jmp    2053f5 <posixWrite+0x1f5>
  20538d:	66 b8 07 00          	mov    ax,0x7
  205391:	66 89 85 4e ff ff ff 	mov    WORD PTR [rbp-0xb2],ax
  205398:	eb 5b                	jmp    2053f5 <posixWrite+0x1f5>
  20539a:	66 b8 08 00          	mov    ax,0x8
  20539e:	66 89 85 4e ff ff ff 	mov    WORD PTR [rbp-0xb2],ax
  2053a5:	eb 4e                	jmp    2053f5 <posixWrite+0x1f5>
  2053a7:	66 b8 09 00          	mov    ax,0x9
  2053ab:	66 89 85 4e ff ff ff 	mov    WORD PTR [rbp-0xb2],ax
  2053b2:	eb 41                	jmp    2053f5 <posixWrite+0x1f5>
  2053b4:	66 b8 0a 00          	mov    ax,0xa
  2053b8:	66 89 85 4e ff ff ff 	mov    WORD PTR [rbp-0xb2],ax
  2053bf:	eb 34                	jmp    2053f5 <posixWrite+0x1f5>
  2053c1:	66 b8 0b 00          	mov    ax,0xb
  2053c5:	66 89 85 4e ff ff ff 	mov    WORD PTR [rbp-0xb2],ax
  2053cc:	eb 27                	jmp    2053f5 <posixWrite+0x1f5>
  2053ce:	66 b8 0c 00          	mov    ax,0xc
  2053d2:	66 89 85 4e ff ff ff 	mov    WORD PTR [rbp-0xb2],ax
  2053d9:	eb 1a                	jmp    2053f5 <posixWrite+0x1f5>
  2053db:	66 b8 0d 00          	mov    ax,0xd
  2053df:	66 89 85 4e ff ff ff 	mov    WORD PTR [rbp-0xb2],ax
  2053e6:	eb 0d                	jmp    2053f5 <posixWrite+0x1f5>
  2053e8:	66 b8 04 00          	mov    ax,0x4
  2053ec:	66 89 85 4e ff ff ff 	mov    WORD PTR [rbp-0xb2],ax
  2053f3:	eb 00                	jmp    2053f5 <posixWrite+0x1f5>
  2053f5:	66 8b 85 4e ff ff ff 	mov    ax,WORD PTR [rbp-0xb2]
  2053fc:	48 8b 7d d0          	mov    rdi,QWORD PTR [rbp-0x30]
  205400:	66 89 85 4c ff ff ff 	mov    WORD PTR [rbp-0xb4],ax
  205407:	e8 44 f0 ff ff       	call   204450 <__zig_return_error>
  20540c:	66 8b 85 4c ff ff ff 	mov    ax,WORD PTR [rbp-0xb4]
  205413:	48 81 c4 d0 00 00 00 	add    rsp,0xd0
  20541a:	5d                   	pop    rbp
  20541b:	c3                   	ret    
            };
        }
        index += rc;
  20541c:	48 8b 45 f0          	mov    rax,QWORD PTR [rbp-0x10]
  205420:	48 03 45 e0          	add    rax,QWORD PTR [rbp-0x20]
  205424:	0f 92 c1             	setb   cl
  205427:	48 89 85 40 ff ff ff 	mov    QWORD PTR [rbp-0xc0],rax
  20542e:	88 8d 3f ff ff ff    	mov    BYTE PTR [rbp-0xc1],cl
  205434:	72 6f                	jb     2054a5 <posixWrite+0x2a5>
  205436:	eb 7d                	jmp    2054b5 <posixWrite+0x2b5>
  205438:	31 c0                	xor    eax,eax
  20543a:	66 89 c1             	mov    cx,ax
pub fn posixWrite(fd: i32, bytes: []const u8) !void {
  20543d:	66 89 c8             	mov    ax,cx
  205440:	48 81 c4 d0 00 00 00 	add    rsp,0xd0
  205447:	5d                   	pop    rbp
  205448:	c3                   	ret    
  205449:	48 8d 3d c8 fe 01 00 	lea    rdi,[rip+0x1fec8]        # 225318 <__unnamed_5>
  205450:	31 c0                	xor    eax,eax
  205452:	89 c6                	mov    esi,eax
        const amt_to_write = math.min(bytes.len - index, usize(max_bytes_len));
  205454:	e8 67 dc ff ff       	call   2030c0 <panic>
  205459:	b8 00 f0 ff 7f       	mov    eax,0x7ffff000
  20545e:	89 c6                	mov    esi,eax
  205460:	48 8b 7d c0          	mov    rdi,QWORD PTR [rbp-0x40]
  205464:	e8 57 6d 01 00       	call   21c1c0 <min>
  205469:	48 89 45 e8          	mov    QWORD PTR [rbp-0x18],rax
        const rc = posix.write(fd, bytes.ptr + index, amt_to_write);
  20546d:	8b 7d fc             	mov    edi,DWORD PTR [rbp-0x4]
  205470:	48 8b 45 c8          	mov    rax,QWORD PTR [rbp-0x38]
  205474:	48 8b 30             	mov    rsi,QWORD PTR [rax]
  205477:	48 03 75 f0          	add    rsi,QWORD PTR [rbp-0x10]
  20547b:	48 8b 55 e8          	mov    rdx,QWORD PTR [rbp-0x18]
  20547f:	e8 6c 6d 01 00       	call   21c1f0 <write>
  205484:	48 89 45 e0          	mov    QWORD PTR [rbp-0x20],rax
        const write_err = posix.getErrno(rc);
  205488:	48 8b 7d e0          	mov    rdi,QWORD PTR [rbp-0x20]
  20548c:	e8 5f 5c 00 00       	call   20b0f0 <getErrno>
  205491:	48 89 45 d8          	mov    QWORD PTR [rbp-0x28],rax
        if (write_err > 0) {
  205495:	48 83 7d d8 00       	cmp    QWORD PTR [rbp-0x28],0x0
  20549a:	0f 87 b1 fd ff ff    	ja     205251 <posixWrite+0x51>
  2054a0:	e9 77 ff ff ff       	jmp    20541c <posixWrite+0x21c>
  2054a5:	48 8d 3d 6c fe 01 00 	lea    rdi,[rip+0x1fe6c]        # 225318 <__unnamed_5>
  2054ac:	31 c0                	xor    eax,eax
  2054ae:	89 c6                	mov    esi,eax
        index += rc;
  2054b0:	e8 0b dc ff ff       	call   2030c0 <panic>
  2054b5:	48 8b 85 40 ff ff ff 	mov    rax,QWORD PTR [rbp-0xc0]
  2054bc:	48 89 45 f0          	mov    QWORD PTR [rbp-0x10],rax
    while (index < bytes.len) {
  2054c0:	e9 59 fd ff ff       	jmp    20521e <posixWrite+0x1e>
  2054c5:	66 66 2e 0f 1f 84 00 	data16 nop WORD PTR cs:[rax+rax*1+0x0]
  2054cc:	00 00 00 00 

00000000002054d0 <openSelfDebugInfo>:
pub fn openSelfDebugInfo(allocator: *mem.Allocator) !*ElfStackTrace {
  2054d0:	55                   	push   rbp
  2054d1:	48 89 e5             	mov    rbp,rsp
  2054d4:	48 81 ec 90 03 00 00 	sub    rsp,0x390
  2054db:	48 89 f8             	mov    rax,rdi
  2054de:	48 8d 4d e0          	lea    rcx,[rbp-0x20]
  2054e2:	48 89 95 70 fd ff ff 	mov    QWORD PTR [rbp-0x290],rdx
            const st = try allocator.create(ElfStackTrace{
  2054e9:	48 8b 95 70 fd ff ff 	mov    rdx,QWORD PTR [rbp-0x290]
                .abbrev_table_list = ArrayList(AbbrevTableHeader).init(allocator),
  2054f0:	4c 8b 85 70 fd ff ff 	mov    r8,QWORD PTR [rbp-0x290]
  2054f7:	48 89 bd 60 fd ff ff 	mov    QWORD PTR [rbp-0x2a0],rdi
  2054fe:	48 89 cf             	mov    rdi,rcx
  205501:	48 89 b5 58 fd ff ff 	mov    QWORD PTR [rbp-0x2a8],rsi
  205508:	4c 89 c6             	mov    rsi,r8
  20550b:	48 89 85 50 fd ff ff 	mov    QWORD PTR [rbp-0x2b0],rax
  205512:	48 89 95 48 fd ff ff 	mov    QWORD PTR [rbp-0x2b8],rdx
  205519:	e8 82 0a 00 00       	call   205fa0 <AlignedArrayList(AbbrevTableHeader,8)_init>
  20551e:	48 8d 7d c0          	lea    rdi,[rbp-0x40]
                .compile_unit_list = ArrayList(CompileUnit).init(allocator),
  205522:	48 8b b5 70 fd ff ff 	mov    rsi,QWORD PTR [rbp-0x290]
  205529:	e8 d2 0a 00 00       	call   206000 <AlignedArrayList(CompileUnit,2)_init>
  20552e:	48 8d bd e8 fe ff ff 	lea    rdi,[rbp-0x118]
  205535:	48 8d 85 f8 fe ff ff 	lea    rax,[rbp-0x108]
  20553c:	48 8d 15 f5 b0 ff ff 	lea    rdx,[rip+0xffffffffffffb0f5]        # 200638 <__unnamed_20>
  205543:	41 b9 58 00 00 00    	mov    r9d,0x58
  205549:	44 89 ce             	mov    esi,r9d
            const st = try allocator.create(ElfStackTrace{
  20554c:	44 8b 0d 11 cf ff ff 	mov    r9d,DWORD PTR [rip+0xffffffffffffcf11]        # 202464 <__unnamed_21>
  205553:	44 89 8d f8 fe ff ff 	mov    DWORD PTR [rbp-0x108],r9d
  20555a:	49 89 c0             	mov    r8,rax
  20555d:	49 83 c0 08          	add    r8,0x8
  205561:	48 89 bd 40 fd ff ff 	mov    QWORD PTR [rbp-0x2c0],rdi
  205568:	4c 89 c7             	mov    rdi,r8
  20556b:	48 89 b5 38 fd ff ff 	mov    QWORD PTR [rbp-0x2c8],rsi
  205572:	48 89 d6             	mov    rsi,rdx
  205575:	48 8b 95 38 fd ff ff 	mov    rdx,QWORD PTR [rbp-0x2c8]
  20557c:	48 89 8d 30 fd ff ff 	mov    QWORD PTR [rbp-0x2d0],rcx
  205583:	48 89 85 28 fd ff ff 	mov    QWORD PTR [rbp-0x2d8],rax
  20558a:	e8 71 c7 01 00       	call   221d00 <memcpy>
  20558f:	48 8b 85 30 fd ff ff 	mov    rax,QWORD PTR [rbp-0x2d0]
  205596:	48 89 85 58 ff ff ff 	mov    QWORD PTR [rbp-0xa8],rax
  20559d:	48 89 85 60 ff ff ff 	mov    QWORD PTR [rbp-0xa0],rax
  2055a4:	48 89 85 68 ff ff ff 	mov    QWORD PTR [rbp-0x98],rax
  2055ab:	48 89 85 70 ff ff ff 	mov    QWORD PTR [rbp-0x90],rax
  2055b2:	48 c7 85 78 ff ff ff 	mov    QWORD PTR [rbp-0x88],0x0
  2055b9:	00 00 00 00 
  2055bd:	48 8b 4d e0          	mov    rcx,QWORD PTR [rbp-0x20]
  2055c1:	48 89 4d 80          	mov    QWORD PTR [rbp-0x80],rcx
  2055c5:	48 8b 4d e8          	mov    rcx,QWORD PTR [rbp-0x18]
  2055c9:	48 89 4d 88          	mov    QWORD PTR [rbp-0x78],rcx
  2055cd:	48 8b 4d f0          	mov    rcx,QWORD PTR [rbp-0x10]
  2055d1:	48 89 4d 90          	mov    QWORD PTR [rbp-0x70],rcx
  2055d5:	48 8b 4d f8          	mov    rcx,QWORD PTR [rbp-0x8]
  2055d9:	48 89 4d 98          	mov    QWORD PTR [rbp-0x68],rcx
  2055dd:	48 8b 4d c0          	mov    rcx,QWORD PTR [rbp-0x40]
  2055e1:	48 89 4d a0          	mov    QWORD PTR [rbp-0x60],rcx
  2055e5:	48 8b 4d c8          	mov    rcx,QWORD PTR [rbp-0x38]
  2055e9:	48 89 4d a8          	mov    QWORD PTR [rbp-0x58],rcx
  2055ed:	48 8b 4d d0          	mov    rcx,QWORD PTR [rbp-0x30]
  2055f1:	48 89 4d b0          	mov    QWORD PTR [rbp-0x50],rcx
  2055f5:	48 8b 4d d8          	mov    rcx,QWORD PTR [rbp-0x28]
  2055f9:	48 89 4d b8          	mov    QWORD PTR [rbp-0x48],rcx
  2055fd:	48 8b bd 40 fd ff ff 	mov    rdi,QWORD PTR [rbp-0x2c0]
  205604:	48 8b b5 58 fd ff ff 	mov    rsi,QWORD PTR [rbp-0x2a8]
  20560b:	48 8b 95 48 fd ff ff 	mov    rdx,QWORD PTR [rbp-0x2b8]
  205612:	48 8b 8d 28 fd ff ff 	mov    rcx,QWORD PTR [rbp-0x2d8]
  205619:	e8 42 0a 00 00       	call   206060 <Allocator_create>
  20561e:	66 83 bd e8 fe ff ff 	cmp    WORD PTR [rbp-0x118],0x0
  205625:	00 
  205626:	74 54                	je     20567c <openSelfDebugInfo+0x1ac>
  205628:	66 8b 85 e8 fe ff ff 	mov    ax,WORD PTR [rbp-0x118]
  20562f:	48 8b bd 58 fd ff ff 	mov    rdi,QWORD PTR [rbp-0x2a8]
  205636:	66 89 85 26 fd ff ff 	mov    WORD PTR [rbp-0x2da],ax
  20563d:	e8 0e ee ff ff       	call   204450 <__zig_return_error>
  205642:	66 8b 85 26 fd ff ff 	mov    ax,WORD PTR [rbp-0x2da]
  205649:	66 89 85 c8 fe ff ff 	mov    WORD PTR [rbp-0x138],ax
  205650:	48 8b bd c8 fe ff ff 	mov    rdi,QWORD PTR [rbp-0x138]
  205657:	48 8b 8d 60 fd ff ff 	mov    rcx,QWORD PTR [rbp-0x2a0]
  20565e:	48 89 39             	mov    QWORD PTR [rcx],rdi
  205661:	48 8b bd d0 fe ff ff 	mov    rdi,QWORD PTR [rbp-0x130]
  205668:	48 89 79 08          	mov    QWORD PTR [rcx+0x8],rdi
  20566c:	48 8b 85 50 fd ff ff 	mov    rax,QWORD PTR [rbp-0x2b0]
  205673:	48 81 c4 90 03 00 00 	add    rsp,0x390
  20567a:	5d                   	pop    rbp
  20567b:	c3                   	ret    
  20567c:	48 8d bd c0 fe ff ff 	lea    rdi,[rbp-0x140]
  205683:	48 8b 85 f0 fe ff ff 	mov    rax,QWORD PTR [rbp-0x110]
  20568a:	48 89 85 68 fd ff ff 	mov    QWORD PTR [rbp-0x298],rax
            st.self_exe_file = try os.openSelfExe();
  205691:	48 8b 85 68 fd ff ff 	mov    rax,QWORD PTR [rbp-0x298]
  205698:	48 8b b5 58 fd ff ff 	mov    rsi,QWORD PTR [rbp-0x2a8]
  20569f:	48 89 85 18 fd ff ff 	mov    QWORD PTR [rbp-0x2e8],rax
  2056a6:	e8 c5 0a 00 00       	call   206170 <openSelfExe>
  2056ab:	66 83 bd c0 fe ff ff 	cmp    WORD PTR [rbp-0x140],0x0
  2056b2:	00 
  2056b3:	74 67                	je     20571c <openSelfDebugInfo+0x24c>
            errdefer allocator.destroy(st);
  2056b5:	48 8b bd 70 fd ff ff 	mov    rdi,QWORD PTR [rbp-0x290]
  2056bc:	48 8b b5 68 fd ff ff 	mov    rsi,QWORD PTR [rbp-0x298]
  2056c3:	e8 f8 0b 00 00       	call   2062c0 <Allocator_destroy>
            st.self_exe_file = try os.openSelfExe();
  2056c8:	66 8b 85 c0 fe ff ff 	mov    ax,WORD PTR [rbp-0x140]
  2056cf:	48 8b bd 58 fd ff ff 	mov    rdi,QWORD PTR [rbp-0x2a8]
  2056d6:	66 89 85 16 fd ff ff 	mov    WORD PTR [rbp-0x2ea],ax
  2056dd:	e8 6e ed ff ff       	call   204450 <__zig_return_error>
  2056e2:	66 8b 85 16 fd ff ff 	mov    ax,WORD PTR [rbp-0x2ea]
  2056e9:	66 89 85 a8 fe ff ff 	mov    WORD PTR [rbp-0x158],ax
  2056f0:	48 8b b5 a8 fe ff ff 	mov    rsi,QWORD PTR [rbp-0x158]
  2056f7:	48 8b bd 60 fd ff ff 	mov    rdi,QWORD PTR [rbp-0x2a0]
  2056fe:	48 89 37             	mov    QWORD PTR [rdi],rsi
  205701:	48 8b b5 b0 fe ff ff 	mov    rsi,QWORD PTR [rbp-0x150]
  205708:	48 89 77 08          	mov    QWORD PTR [rdi+0x8],rsi
  20570c:	48 8b 85 50 fd ff ff 	mov    rax,QWORD PTR [rbp-0x2b0]
  205713:	48 81 c4 90 03 00 00 	add    rsp,0x390
  20571a:	5d                   	pop    rbp
  20571b:	c3                   	ret    
  20571c:	8b 85 c4 fe ff ff    	mov    eax,DWORD PTR [rbp-0x13c]
  205722:	48 8b 8d 18 fd ff ff 	mov    rcx,QWORD PTR [rbp-0x2e8]
  205729:	89 01                	mov    DWORD PTR [rcx],eax
            try st.elf.openFile(allocator, &st.self_exe_file);
  20572b:	48 8b 95 68 fd ff ff 	mov    rdx,QWORD PTR [rbp-0x298]
  205732:	48 83 c2 08          	add    rdx,0x8
  205736:	48 8b b5 70 fd ff ff 	mov    rsi,QWORD PTR [rbp-0x290]
  20573d:	48 8b 8d 68 fd ff ff 	mov    rcx,QWORD PTR [rbp-0x298]
  205744:	48 8b bd 58 fd ff ff 	mov    rdi,QWORD PTR [rbp-0x2a8]
  20574b:	48 89 b5 08 fd ff ff 	mov    QWORD PTR [rbp-0x2f8],rsi
  205752:	48 89 d6             	mov    rsi,rdx
  205755:	48 8b 95 08 fd ff ff 	mov    rdx,QWORD PTR [rbp-0x2f8]
  20575c:	e8 cf 0b 00 00       	call   206330 <Elf_openFile>
  205761:	66 89 85 a6 fe ff ff 	mov    WORD PTR [rbp-0x15a],ax
  205768:	66 83 bd a6 fe ff ff 	cmp    WORD PTR [rbp-0x15a],0x0
  20576f:	00 
  205770:	74 73                	je     2057e5 <openSelfDebugInfo+0x315>
            errdefer st.self_exe_file.close();
  205772:	48 8b bd 68 fd ff ff 	mov    rdi,QWORD PTR [rbp-0x298]
  205779:	e8 52 30 00 00       	call   2087d0 <File_close>
            errdefer allocator.destroy(st);
  20577e:	48 8b bd 70 fd ff ff 	mov    rdi,QWORD PTR [rbp-0x290]
  205785:	48 8b b5 68 fd ff ff 	mov    rsi,QWORD PTR [rbp-0x298]
  20578c:	e8 2f 0b 00 00       	call   2062c0 <Allocator_destroy>
            try st.elf.openFile(allocator, &st.self_exe_file);
  205791:	66 8b 85 a6 fe ff ff 	mov    ax,WORD PTR [rbp-0x15a]
  205798:	48 8b bd 58 fd ff ff 	mov    rdi,QWORD PTR [rbp-0x2a8]
  20579f:	66 89 85 06 fd ff ff 	mov    WORD PTR [rbp-0x2fa],ax
  2057a6:	e8 a5 ec ff ff       	call   204450 <__zig_return_error>
  2057ab:	66 8b 85 06 fd ff ff 	mov    ax,WORD PTR [rbp-0x2fa]
  2057b2:	66 89 85 90 fe ff ff 	mov    WORD PTR [rbp-0x170],ax
  2057b9:	48 8b b5 90 fe ff ff 	mov    rsi,QWORD PTR [rbp-0x170]
  2057c0:	48 8b bd 60 fd ff ff 	mov    rdi,QWORD PTR [rbp-0x2a0]
  2057c7:	48 89 37             	mov    QWORD PTR [rdi],rsi
  2057ca:	48 8b b5 98 fe ff ff 	mov    rsi,QWORD PTR [rbp-0x168]
  2057d1:	48 89 77 08          	mov    QWORD PTR [rdi+0x8],rsi
  2057d5:	48 8b 85 50 fd ff ff 	mov    rax,QWORD PTR [rbp-0x2b0]
  2057dc:	48 81 c4 90 03 00 00 	add    rsp,0x390
  2057e3:	5d                   	pop    rbp
  2057e4:	c3                   	ret    
  2057e5:	48 8d bd 80 fe ff ff 	lea    rdi,[rbp-0x180]
  2057ec:	48 8d 0d 25 fc 01 00 	lea    rcx,[rip+0x1fc25]        # 225418 <__unnamed_22>
            st.debug_info = (try st.elf.findSection(".debug_info")) orelse return error.MissingDebugInfo;
  2057f3:	48 8b 85 68 fd ff ff 	mov    rax,QWORD PTR [rbp-0x298]
  2057fa:	48 83 c0 60          	add    rax,0x60
  2057fe:	48 8b 95 68 fd ff ff 	mov    rdx,QWORD PTR [rbp-0x298]
  205805:	48 83 c2 08          	add    rdx,0x8
  205809:	48 8b b5 58 fd ff ff 	mov    rsi,QWORD PTR [rbp-0x2a8]
  205810:	48 89 85 f8 fc ff ff 	mov    QWORD PTR [rbp-0x308],rax
  205817:	e8 e4 2f 00 00       	call   208800 <Elf_findSection>
  20581c:	66 83 bd 80 fe ff ff 	cmp    WORD PTR [rbp-0x180],0x0
  205823:	00 
  205824:	0f 84 86 00 00 00    	je     2058b0 <openSelfDebugInfo+0x3e0>
            errdefer st.elf.close();
  20582a:	48 8b 85 68 fd ff ff 	mov    rax,QWORD PTR [rbp-0x298]
  205831:	48 83 c0 08          	add    rax,0x8
  205835:	48 89 c7             	mov    rdi,rax
  205838:	e8 c3 33 00 00       	call   208c00 <Elf_close>
            errdefer st.self_exe_file.close();
  20583d:	48 8b bd 68 fd ff ff 	mov    rdi,QWORD PTR [rbp-0x298]
  205844:	e8 87 2f 00 00       	call   2087d0 <File_close>
            errdefer allocator.destroy(st);
  205849:	48 8b bd 70 fd ff ff 	mov    rdi,QWORD PTR [rbp-0x290]
  205850:	48 8b b5 68 fd ff ff 	mov    rsi,QWORD PTR [rbp-0x298]
  205857:	e8 64 0a 00 00       	call   2062c0 <Allocator_destroy>
            st.debug_info = (try st.elf.findSection(".debug_info")) orelse return error.MissingDebugInfo;
  20585c:	66 8b 8d 80 fe ff ff 	mov    cx,WORD PTR [rbp-0x180]
  205863:	48 8b bd 58 fd ff ff 	mov    rdi,QWORD PTR [rbp-0x2a8]
  20586a:	66 89 8d f6 fc ff ff 	mov    WORD PTR [rbp-0x30a],cx
  205871:	e8 da eb ff ff       	call   204450 <__zig_return_error>
  205876:	66 8b 8d f6 fc ff ff 	mov    cx,WORD PTR [rbp-0x30a]
  20587d:	66 89 8d 60 fe ff ff 	mov    WORD PTR [rbp-0x1a0],cx
  205884:	48 8b 85 60 fe ff ff 	mov    rax,QWORD PTR [rbp-0x1a0]
  20588b:	48 8b b5 60 fd ff ff 	mov    rsi,QWORD PTR [rbp-0x2a0]
  205892:	48 89 06             	mov    QWORD PTR [rsi],rax
  205895:	48 8b 85 68 fe ff ff 	mov    rax,QWORD PTR [rbp-0x198]
  20589c:	48 89 46 08          	mov    QWORD PTR [rsi+0x8],rax
  2058a0:	48 8b 85 50 fd ff ff 	mov    rax,QWORD PTR [rbp-0x2b0]
  2058a7:	48 81 c4 90 03 00 00 	add    rsp,0x390
  2058ae:	5d                   	pop    rbp
  2058af:	c3                   	ret    
  2058b0:	48 8d 85 80 fe ff ff 	lea    rax,[rbp-0x180]
  2058b7:	48 83 c0 08          	add    rax,0x8
  2058bb:	48 83 bd 88 fe ff ff 	cmp    QWORD PTR [rbp-0x178],0x0
  2058c2:	00 
  2058c3:	48 89 85 e8 fc ff ff 	mov    QWORD PTR [rbp-0x318],rax
  2058ca:	75 6a                	jne    205936 <openSelfDebugInfo+0x466>
            errdefer st.elf.close();
  2058cc:	48 8b 85 68 fd ff ff 	mov    rax,QWORD PTR [rbp-0x298]
  2058d3:	48 83 c0 08          	add    rax,0x8
  2058d7:	48 89 c7             	mov    rdi,rax
  2058da:	e8 21 33 00 00       	call   208c00 <Elf_close>
            errdefer st.self_exe_file.close();
  2058df:	48 8b bd 68 fd ff ff 	mov    rdi,QWORD PTR [rbp-0x298]
  2058e6:	e8 e5 2e 00 00       	call   2087d0 <File_close>
            errdefer allocator.destroy(st);
  2058eb:	48 8b bd 70 fd ff ff 	mov    rdi,QWORD PTR [rbp-0x290]
  2058f2:	48 8b b5 68 fd ff ff 	mov    rsi,QWORD PTR [rbp-0x298]
  2058f9:	e8 c2 09 00 00       	call   2062c0 <Allocator_destroy>
            st.debug_info = (try st.elf.findSection(".debug_info")) orelse return error.MissingDebugInfo;
  2058fe:	48 8b bd 58 fd ff ff 	mov    rdi,QWORD PTR [rbp-0x2a8]
  205905:	e8 46 eb ff ff       	call   204450 <__zig_return_error>
  20590a:	48 8b 05 ff c9 ff ff 	mov    rax,QWORD PTR [rip+0xffffffffffffc9ff]        # 202310 <__unnamed_103>
  205911:	48 8b b5 60 fd ff ff 	mov    rsi,QWORD PTR [rbp-0x2a0]
  205918:	48 89 06             	mov    QWORD PTR [rsi],rax
  20591b:	48 8b 05 f6 c9 ff ff 	mov    rax,QWORD PTR [rip+0xffffffffffffc9f6]        # 202318 <__unnamed_103+0x8>
  205922:	48 89 46 08          	mov    QWORD PTR [rsi+0x8],rax
  205926:	48 8b 85 50 fd ff ff 	mov    rax,QWORD PTR [rbp-0x2b0]
  20592d:	48 81 c4 90 03 00 00 	add    rsp,0x390
  205934:	5d                   	pop    rbp
  205935:	c3                   	ret    
  205936:	48 8b 85 e8 fc ff ff 	mov    rax,QWORD PTR [rbp-0x318]
  20593d:	48 8b 08             	mov    rcx,QWORD PTR [rax]
  205940:	48 89 8d e0 fc ff ff 	mov    QWORD PTR [rbp-0x320],rcx
  205947:	48 8d bd 50 fe ff ff 	lea    rdi,[rbp-0x1b0]
  20594e:	48 8d 0d db fa 01 00 	lea    rcx,[rip+0x1fadb]        # 225430 <__unnamed_24>
  205955:	48 8b 85 f8 fc ff ff 	mov    rax,QWORD PTR [rbp-0x308]
  20595c:	48 8b 95 e0 fc ff ff 	mov    rdx,QWORD PTR [rbp-0x320]
  205963:	48 89 10             	mov    QWORD PTR [rax],rdx
            st.debug_abbrev = (try st.elf.findSection(".debug_abbrev")) orelse return error.MissingDebugInfo;
  205966:	48 8b b5 68 fd ff ff 	mov    rsi,QWORD PTR [rbp-0x298]
  20596d:	48 83 c6 68          	add    rsi,0x68
  205971:	4c 8b 85 68 fd ff ff 	mov    r8,QWORD PTR [rbp-0x298]
  205978:	49 83 c0 08          	add    r8,0x8
  20597c:	4c 8b 8d 58 fd ff ff 	mov    r9,QWORD PTR [rbp-0x2a8]
  205983:	48 89 b5 d8 fc ff ff 	mov    QWORD PTR [rbp-0x328],rsi
  20598a:	4c 89 ce             	mov    rsi,r9
  20598d:	4c 89 c2             	mov    rdx,r8
  205990:	e8 6b 2e 00 00       	call   208800 <Elf_findSection>
  205995:	66 83 bd 50 fe ff ff 	cmp    WORD PTR [rbp-0x1b0],0x0
  20599c:	00 
  20599d:	0f 84 86 00 00 00    	je     205a29 <openSelfDebugInfo+0x559>
            errdefer st.elf.close();
  2059a3:	48 8b 85 68 fd ff ff 	mov    rax,QWORD PTR [rbp-0x298]
  2059aa:	48 83 c0 08          	add    rax,0x8
  2059ae:	48 89 c7             	mov    rdi,rax
  2059b1:	e8 4a 32 00 00       	call   208c00 <Elf_close>
            errdefer st.self_exe_file.close();
  2059b6:	48 8b bd 68 fd ff ff 	mov    rdi,QWORD PTR [rbp-0x298]
  2059bd:	e8 0e 2e 00 00       	call   2087d0 <File_close>
            errdefer allocator.destroy(st);
  2059c2:	48 8b bd 70 fd ff ff 	mov    rdi,QWORD PTR [rbp-0x290]
  2059c9:	48 8b b5 68 fd ff ff 	mov    rsi,QWORD PTR [rbp-0x298]
  2059d0:	e8 eb 08 00 00       	call   2062c0 <Allocator_destroy>
            st.debug_abbrev = (try st.elf.findSection(".debug_abbrev")) orelse return error.MissingDebugInfo;
  2059d5:	66 8b 8d 50 fe ff ff 	mov    cx,WORD PTR [rbp-0x1b0]
  2059dc:	48 8b bd 58 fd ff ff 	mov    rdi,QWORD PTR [rbp-0x2a8]
  2059e3:	66 89 8d d6 fc ff ff 	mov    WORD PTR [rbp-0x32a],cx
  2059ea:	e8 61 ea ff ff       	call   204450 <__zig_return_error>
  2059ef:	66 8b 8d d6 fc ff ff 	mov    cx,WORD PTR [rbp-0x32a]
  2059f6:	66 89 8d 30 fe ff ff 	mov    WORD PTR [rbp-0x1d0],cx
  2059fd:	48 8b 85 30 fe ff ff 	mov    rax,QWORD PTR [rbp-0x1d0]
  205a04:	48 8b b5 60 fd ff ff 	mov    rsi,QWORD PTR [rbp-0x2a0]
  205a0b:	48 89 06             	mov    QWORD PTR [rsi],rax
  205a0e:	48 8b 85 38 fe ff ff 	mov    rax,QWORD PTR [rbp-0x1c8]
  205a15:	48 89 46 08          	mov    QWORD PTR [rsi+0x8],rax
  205a19:	48 8b 85 50 fd ff ff 	mov    rax,QWORD PTR [rbp-0x2b0]
  205a20:	48 81 c4 90 03 00 00 	add    rsp,0x390
  205a27:	5d                   	pop    rbp
  205a28:	c3                   	ret    
  205a29:	48 8d 85 50 fe ff ff 	lea    rax,[rbp-0x1b0]
  205a30:	48 83 c0 08          	add    rax,0x8
  205a34:	48 83 bd 58 fe ff ff 	cmp    QWORD PTR [rbp-0x1a8],0x0
  205a3b:	00 
  205a3c:	48 89 85 c8 fc ff ff 	mov    QWORD PTR [rbp-0x338],rax
  205a43:	75 6a                	jne    205aaf <openSelfDebugInfo+0x5df>
            errdefer st.elf.close();
  205a45:	48 8b 85 68 fd ff ff 	mov    rax,QWORD PTR [rbp-0x298]
  205a4c:	48 83 c0 08          	add    rax,0x8
  205a50:	48 89 c7             	mov    rdi,rax
  205a53:	e8 a8 31 00 00       	call   208c00 <Elf_close>
            errdefer st.self_exe_file.close();
  205a58:	48 8b bd 68 fd ff ff 	mov    rdi,QWORD PTR [rbp-0x298]
  205a5f:	e8 6c 2d 00 00       	call   2087d0 <File_close>
            errdefer allocator.destroy(st);
  205a64:	48 8b bd 70 fd ff ff 	mov    rdi,QWORD PTR [rbp-0x290]
  205a6b:	48 8b b5 68 fd ff ff 	mov    rsi,QWORD PTR [rbp-0x298]
  205a72:	e8 49 08 00 00       	call   2062c0 <Allocator_destroy>
            st.debug_abbrev = (try st.elf.findSection(".debug_abbrev")) orelse return error.MissingDebugInfo;
  205a77:	48 8b bd 58 fd ff ff 	mov    rdi,QWORD PTR [rbp-0x2a8]
  205a7e:	e8 cd e9 ff ff       	call   204450 <__zig_return_error>
  205a83:	48 8b 05 86 c8 ff ff 	mov    rax,QWORD PTR [rip+0xffffffffffffc886]        # 202310 <__unnamed_103>
  205a8a:	48 8b b5 60 fd ff ff 	mov    rsi,QWORD PTR [rbp-0x2a0]
  205a91:	48 89 06             	mov    QWORD PTR [rsi],rax
  205a94:	48 8b 05 7d c8 ff ff 	mov    rax,QWORD PTR [rip+0xffffffffffffc87d]        # 202318 <__unnamed_103+0x8>
  205a9b:	48 89 46 08          	mov    QWORD PTR [rsi+0x8],rax
  205a9f:	48 8b 85 50 fd ff ff 	mov    rax,QWORD PTR [rbp-0x2b0]
  205aa6:	48 81 c4 90 03 00 00 	add    rsp,0x390
  205aad:	5d                   	pop    rbp
  205aae:	c3                   	ret    
  205aaf:	48 8b 85 c8 fc ff ff 	mov    rax,QWORD PTR [rbp-0x338]
  205ab6:	48 8b 08             	mov    rcx,QWORD PTR [rax]
  205ab9:	48 89 8d c0 fc ff ff 	mov    QWORD PTR [rbp-0x340],rcx
  205ac0:	48 8d bd 20 fe ff ff 	lea    rdi,[rbp-0x1e0]
  205ac7:	48 8d 0d 7a f9 01 00 	lea    rcx,[rip+0x1f97a]        # 225448 <__unnamed_26>
  205ace:	48 8b 85 d8 fc ff ff 	mov    rax,QWORD PTR [rbp-0x328]
  205ad5:	48 8b 95 c0 fc ff ff 	mov    rdx,QWORD PTR [rbp-0x340]
  205adc:	48 89 10             	mov    QWORD PTR [rax],rdx
            st.debug_str = (try st.elf.findSection(".debug_str")) orelse return error.MissingDebugInfo;
  205adf:	48 8b b5 68 fd ff ff 	mov    rsi,QWORD PTR [rbp-0x298]
  205ae6:	48 83 c6 70          	add    rsi,0x70
  205aea:	4c 8b 85 68 fd ff ff 	mov    r8,QWORD PTR [rbp-0x298]
  205af1:	49 83 c0 08          	add    r8,0x8
  205af5:	4c 8b 8d 58 fd ff ff 	mov    r9,QWORD PTR [rbp-0x2a8]
  205afc:	48 89 b5 b8 fc ff ff 	mov    QWORD PTR [rbp-0x348],rsi
  205b03:	4c 89 ce             	mov    rsi,r9
  205b06:	4c 89 c2             	mov    rdx,r8
  205b09:	e8 f2 2c 00 00       	call   208800 <Elf_findSection>
  205b0e:	66 83 bd 20 fe ff ff 	cmp    WORD PTR [rbp-0x1e0],0x0
  205b15:	00 
  205b16:	0f 84 86 00 00 00    	je     205ba2 <openSelfDebugInfo+0x6d2>
            errdefer st.elf.close();
  205b1c:	48 8b 85 68 fd ff ff 	mov    rax,QWORD PTR [rbp-0x298]
  205b23:	48 83 c0 08          	add    rax,0x8
  205b27:	48 89 c7             	mov    rdi,rax
  205b2a:	e8 d1 30 00 00       	call   208c00 <Elf_close>
            errdefer st.self_exe_file.close();
  205b2f:	48 8b bd 68 fd ff ff 	mov    rdi,QWORD PTR [rbp-0x298]
  205b36:	e8 95 2c 00 00       	call   2087d0 <File_close>
            errdefer allocator.destroy(st);
  205b3b:	48 8b bd 70 fd ff ff 	mov    rdi,QWORD PTR [rbp-0x290]
  205b42:	48 8b b5 68 fd ff ff 	mov    rsi,QWORD PTR [rbp-0x298]
  205b49:	e8 72 07 00 00       	call   2062c0 <Allocator_destroy>
            st.debug_str = (try st.elf.findSection(".debug_str")) orelse return error.MissingDebugInfo;
  205b4e:	66 8b 8d 20 fe ff ff 	mov    cx,WORD PTR [rbp-0x1e0]
  205b55:	48 8b bd 58 fd ff ff 	mov    rdi,QWORD PTR [rbp-0x2a8]
  205b5c:	66 89 8d b6 fc ff ff 	mov    WORD PTR [rbp-0x34a],cx
  205b63:	e8 e8 e8 ff ff       	call   204450 <__zig_return_error>
  205b68:	66 8b 8d b6 fc ff ff 	mov    cx,WORD PTR [rbp-0x34a]
  205b6f:	66 89 8d 00 fe ff ff 	mov    WORD PTR [rbp-0x200],cx
  205b76:	48 8b 85 00 fe ff ff 	mov    rax,QWORD PTR [rbp-0x200]
  205b7d:	48 8b b5 60 fd ff ff 	mov    rsi,QWORD PTR [rbp-0x2a0]
  205b84:	48 89 06             	mov    QWORD PTR [rsi],rax
  205b87:	48 8b 85 08 fe ff ff 	mov    rax,QWORD PTR [rbp-0x1f8]
  205b8e:	48 89 46 08          	mov    QWORD PTR [rsi+0x8],rax
  205b92:	48 8b 85 50 fd ff ff 	mov    rax,QWORD PTR [rbp-0x2b0]
  205b99:	48 81 c4 90 03 00 00 	add    rsp,0x390
  205ba0:	5d                   	pop    rbp
  205ba1:	c3                   	ret    
  205ba2:	48 8d 85 20 fe ff ff 	lea    rax,[rbp-0x1e0]
  205ba9:	48 83 c0 08          	add    rax,0x8
  205bad:	48 83 bd 28 fe ff ff 	cmp    QWORD PTR [rbp-0x1d8],0x0
  205bb4:	00 
  205bb5:	48 89 85 a8 fc ff ff 	mov    QWORD PTR [rbp-0x358],rax
  205bbc:	75 6a                	jne    205c28 <openSelfDebugInfo+0x758>
            errdefer st.elf.close();
  205bbe:	48 8b 85 68 fd ff ff 	mov    rax,QWORD PTR [rbp-0x298]
  205bc5:	48 83 c0 08          	add    rax,0x8
  205bc9:	48 89 c7             	mov    rdi,rax
  205bcc:	e8 2f 30 00 00       	call   208c00 <Elf_close>
            errdefer st.self_exe_file.close();
  205bd1:	48 8b bd 68 fd ff ff 	mov    rdi,QWORD PTR [rbp-0x298]
  205bd8:	e8 f3 2b 00 00       	call   2087d0 <File_close>
            errdefer allocator.destroy(st);
  205bdd:	48 8b bd 70 fd ff ff 	mov    rdi,QWORD PTR [rbp-0x290]
  205be4:	48 8b b5 68 fd ff ff 	mov    rsi,QWORD PTR [rbp-0x298]
  205beb:	e8 d0 06 00 00       	call   2062c0 <Allocator_destroy>
            st.debug_str = (try st.elf.findSection(".debug_str")) orelse return error.MissingDebugInfo;
  205bf0:	48 8b bd 58 fd ff ff 	mov    rdi,QWORD PTR [rbp-0x2a8]
  205bf7:	e8 54 e8 ff ff       	call   204450 <__zig_return_error>
  205bfc:	48 8b 05 0d c7 ff ff 	mov    rax,QWORD PTR [rip+0xffffffffffffc70d]        # 202310 <__unnamed_103>
  205c03:	48 8b b5 60 fd ff ff 	mov    rsi,QWORD PTR [rbp-0x2a0]
  205c0a:	48 89 06             	mov    QWORD PTR [rsi],rax
  205c0d:	48 8b 05 04 c7 ff ff 	mov    rax,QWORD PTR [rip+0xffffffffffffc704]        # 202318 <__unnamed_103+0x8>
  205c14:	48 89 46 08          	mov    QWORD PTR [rsi+0x8],rax
  205c18:	48 8b 85 50 fd ff ff 	mov    rax,QWORD PTR [rbp-0x2b0]
  205c1f:	48 81 c4 90 03 00 00 	add    rsp,0x390
  205c26:	5d                   	pop    rbp
  205c27:	c3                   	ret    
  205c28:	48 8b 85 a8 fc ff ff 	mov    rax,QWORD PTR [rbp-0x358]
  205c2f:	48 8b 08             	mov    rcx,QWORD PTR [rax]
  205c32:	48 89 8d a0 fc ff ff 	mov    QWORD PTR [rbp-0x360],rcx
  205c39:	48 8d bd f0 fd ff ff 	lea    rdi,[rbp-0x210]
  205c40:	48 8d 0d 19 f8 01 00 	lea    rcx,[rip+0x1f819]        # 225460 <__unnamed_28>
  205c47:	48 8b 85 b8 fc ff ff 	mov    rax,QWORD PTR [rbp-0x348]
  205c4e:	48 8b 95 a0 fc ff ff 	mov    rdx,QWORD PTR [rbp-0x360]
  205c55:	48 89 10             	mov    QWORD PTR [rax],rdx
            st.debug_line = (try st.elf.findSection(".debug_line")) orelse return error.MissingDebugInfo;
  205c58:	48 8b b5 68 fd ff ff 	mov    rsi,QWORD PTR [rbp-0x298]
  205c5f:	48 83 c6 78          	add    rsi,0x78
  205c63:	4c 8b 85 68 fd ff ff 	mov    r8,QWORD PTR [rbp-0x298]
  205c6a:	49 83 c0 08          	add    r8,0x8
  205c6e:	4c 8b 8d 58 fd ff ff 	mov    r9,QWORD PTR [rbp-0x2a8]
  205c75:	48 89 b5 98 fc ff ff 	mov    QWORD PTR [rbp-0x368],rsi
  205c7c:	4c 89 ce             	mov    rsi,r9
  205c7f:	4c 89 c2             	mov    rdx,r8
  205c82:	e8 79 2b 00 00       	call   208800 <Elf_findSection>
  205c87:	66 83 bd f0 fd ff ff 	cmp    WORD PTR [rbp-0x210],0x0
  205c8e:	00 
  205c8f:	0f 84 86 00 00 00    	je     205d1b <openSelfDebugInfo+0x84b>
            errdefer st.elf.close();
  205c95:	48 8b 85 68 fd ff ff 	mov    rax,QWORD PTR [rbp-0x298]
  205c9c:	48 83 c0 08          	add    rax,0x8
  205ca0:	48 89 c7             	mov    rdi,rax
  205ca3:	e8 58 2f 00 00       	call   208c00 <Elf_close>
            errdefer st.self_exe_file.close();
  205ca8:	48 8b bd 68 fd ff ff 	mov    rdi,QWORD PTR [rbp-0x298]
  205caf:	e8 1c 2b 00 00       	call   2087d0 <File_close>
            errdefer allocator.destroy(st);
  205cb4:	48 8b bd 70 fd ff ff 	mov    rdi,QWORD PTR [rbp-0x290]
  205cbb:	48 8b b5 68 fd ff ff 	mov    rsi,QWORD PTR [rbp-0x298]
  205cc2:	e8 f9 05 00 00       	call   2062c0 <Allocator_destroy>
            st.debug_line = (try st.elf.findSection(".debug_line")) orelse return error.MissingDebugInfo;
  205cc7:	66 8b 8d f0 fd ff ff 	mov    cx,WORD PTR [rbp-0x210]
  205cce:	48 8b bd 58 fd ff ff 	mov    rdi,QWORD PTR [rbp-0x2a8]
  205cd5:	66 89 8d 96 fc ff ff 	mov    WORD PTR [rbp-0x36a],cx
  205cdc:	e8 6f e7 ff ff       	call   204450 <__zig_return_error>
  205ce1:	66 8b 8d 96 fc ff ff 	mov    cx,WORD PTR [rbp-0x36a]
  205ce8:	66 89 8d d0 fd ff ff 	mov    WORD PTR [rbp-0x230],cx
  205cef:	48 8b 85 d0 fd ff ff 	mov    rax,QWORD PTR [rbp-0x230]
  205cf6:	48 8b b5 60 fd ff ff 	mov    rsi,QWORD PTR [rbp-0x2a0]
  205cfd:	48 89 06             	mov    QWORD PTR [rsi],rax
  205d00:	48 8b 85 d8 fd ff ff 	mov    rax,QWORD PTR [rbp-0x228]
  205d07:	48 89 46 08          	mov    QWORD PTR [rsi+0x8],rax
  205d0b:	48 8b 85 50 fd ff ff 	mov    rax,QWORD PTR [rbp-0x2b0]
  205d12:	48 81 c4 90 03 00 00 	add    rsp,0x390
  205d19:	5d                   	pop    rbp
  205d1a:	c3                   	ret    
  205d1b:	48 8d 85 f0 fd ff ff 	lea    rax,[rbp-0x210]
  205d22:	48 83 c0 08          	add    rax,0x8
  205d26:	48 83 bd f8 fd ff ff 	cmp    QWORD PTR [rbp-0x208],0x0
  205d2d:	00 
  205d2e:	48 89 85 88 fc ff ff 	mov    QWORD PTR [rbp-0x378],rax
  205d35:	75 6a                	jne    205da1 <openSelfDebugInfo+0x8d1>
            errdefer st.elf.close();
  205d37:	48 8b 85 68 fd ff ff 	mov    rax,QWORD PTR [rbp-0x298]
  205d3e:	48 83 c0 08          	add    rax,0x8
  205d42:	48 89 c7             	mov    rdi,rax
  205d45:	e8 b6 2e 00 00       	call   208c00 <Elf_close>
            errdefer st.self_exe_file.close();
  205d4a:	48 8b bd 68 fd ff ff 	mov    rdi,QWORD PTR [rbp-0x298]
  205d51:	e8 7a 2a 00 00       	call   2087d0 <File_close>
            errdefer allocator.destroy(st);
  205d56:	48 8b bd 70 fd ff ff 	mov    rdi,QWORD PTR [rbp-0x290]
  205d5d:	48 8b b5 68 fd ff ff 	mov    rsi,QWORD PTR [rbp-0x298]
  205d64:	e8 57 05 00 00       	call   2062c0 <Allocator_destroy>
            st.debug_line = (try st.elf.findSection(".debug_line")) orelse return error.MissingDebugInfo;
  205d69:	48 8b bd 58 fd ff ff 	mov    rdi,QWORD PTR [rbp-0x2a8]
  205d70:	e8 db e6 ff ff       	call   204450 <__zig_return_error>
  205d75:	48 8b 05 94 c5 ff ff 	mov    rax,QWORD PTR [rip+0xffffffffffffc594]        # 202310 <__unnamed_103>
  205d7c:	48 8b b5 60 fd ff ff 	mov    rsi,QWORD PTR [rbp-0x2a0]
  205d83:	48 89 06             	mov    QWORD PTR [rsi],rax
  205d86:	48 8b 05 8b c5 ff ff 	mov    rax,QWORD PTR [rip+0xffffffffffffc58b]        # 202318 <__unnamed_103+0x8>
  205d8d:	48 89 46 08          	mov    QWORD PTR [rsi+0x8],rax
  205d91:	48 8b 85 50 fd ff ff 	mov    rax,QWORD PTR [rbp-0x2b0]
  205d98:	48 81 c4 90 03 00 00 	add    rsp,0x390
  205d9f:	5d                   	pop    rbp
  205da0:	c3                   	ret    
  205da1:	48 8b 85 88 fc ff ff 	mov    rax,QWORD PTR [rbp-0x378]
  205da8:	48 8b 08             	mov    rcx,QWORD PTR [rax]
  205dab:	48 89 8d 80 fc ff ff 	mov    QWORD PTR [rbp-0x380],rcx
  205db2:	48 8d bd c0 fd ff ff 	lea    rdi,[rbp-0x240]
  205db9:	48 8d 0d b8 f6 01 00 	lea    rcx,[rip+0x1f6b8]        # 225478 <__unnamed_30>
  205dc0:	48 8b 85 98 fc ff ff 	mov    rax,QWORD PTR [rbp-0x368]
  205dc7:	48 8b 95 80 fc ff ff 	mov    rdx,QWORD PTR [rbp-0x380]
  205dce:	48 89 10             	mov    QWORD PTR [rax],rdx
            st.debug_ranges = (try st.elf.findSection(".debug_ranges"));
  205dd1:	48 8b b5 68 fd ff ff 	mov    rsi,QWORD PTR [rbp-0x298]
  205dd8:	48 81 c6 80 00 00 00 	add    rsi,0x80
  205ddf:	4c 8b 85 68 fd ff ff 	mov    r8,QWORD PTR [rbp-0x298]
  205de6:	49 83 c0 08          	add    r8,0x8
  205dea:	4c 8b 8d 58 fd ff ff 	mov    r9,QWORD PTR [rbp-0x2a8]
  205df1:	48 89 b5 78 fc ff ff 	mov    QWORD PTR [rbp-0x388],rsi
  205df8:	4c 89 ce             	mov    rsi,r9
  205dfb:	4c 89 c2             	mov    rdx,r8
  205dfe:	e8 fd 29 00 00       	call   208800 <Elf_findSection>
  205e03:	66 83 bd c0 fd ff ff 	cmp    WORD PTR [rbp-0x240],0x0
  205e0a:	00 
  205e0b:	0f 84 86 00 00 00    	je     205e97 <openSelfDebugInfo+0x9c7>
            errdefer st.elf.close();
  205e11:	48 8b 85 68 fd ff ff 	mov    rax,QWORD PTR [rbp-0x298]
  205e18:	48 83 c0 08          	add    rax,0x8
  205e1c:	48 89 c7             	mov    rdi,rax
  205e1f:	e8 dc 2d 00 00       	call   208c00 <Elf_close>
            errdefer st.self_exe_file.close();
  205e24:	48 8b bd 68 fd ff ff 	mov    rdi,QWORD PTR [rbp-0x298]
  205e2b:	e8 a0 29 00 00       	call   2087d0 <File_close>
            errdefer allocator.destroy(st);
  205e30:	48 8b bd 70 fd ff ff 	mov    rdi,QWORD PTR [rbp-0x290]
  205e37:	48 8b b5 68 fd ff ff 	mov    rsi,QWORD PTR [rbp-0x298]
  205e3e:	e8 7d 04 00 00       	call   2062c0 <Allocator_destroy>
            st.debug_ranges = (try st.elf.findSection(".debug_ranges"));
  205e43:	66 8b 8d c0 fd ff ff 	mov    cx,WORD PTR [rbp-0x240]
  205e4a:	48 8b bd 58 fd ff ff 	mov    rdi,QWORD PTR [rbp-0x2a8]
  205e51:	66 89 8d 76 fc ff ff 	mov    WORD PTR [rbp-0x38a],cx
  205e58:	e8 f3 e5 ff ff       	call   204450 <__zig_return_error>
  205e5d:	66 8b 8d 76 fc ff ff 	mov    cx,WORD PTR [rbp-0x38a]
  205e64:	66 89 8d a0 fd ff ff 	mov    WORD PTR [rbp-0x260],cx
  205e6b:	48 8b 85 a0 fd ff ff 	mov    rax,QWORD PTR [rbp-0x260]
  205e72:	48 8b b5 60 fd ff ff 	mov    rsi,QWORD PTR [rbp-0x2a0]
  205e79:	48 89 06             	mov    QWORD PTR [rsi],rax
  205e7c:	48 8b 85 a8 fd ff ff 	mov    rax,QWORD PTR [rbp-0x258]
  205e83:	48 89 46 08          	mov    QWORD PTR [rsi+0x8],rax
  205e87:	48 8b 85 50 fd ff ff 	mov    rax,QWORD PTR [rbp-0x2b0]
  205e8e:	48 81 c4 90 03 00 00 	add    rsp,0x390
  205e95:	5d                   	pop    rbp
  205e96:	c3                   	ret    
  205e97:	48 8b 85 c8 fd ff ff 	mov    rax,QWORD PTR [rbp-0x238]
  205e9e:	48 8b 8d 78 fc ff ff 	mov    rcx,QWORD PTR [rbp-0x388]
  205ea5:	48 89 01             	mov    QWORD PTR [rcx],rax
            try scanAllCompileUnits(st);
  205ea8:	48 8b b5 68 fd ff ff 	mov    rsi,QWORD PTR [rbp-0x298]
  205eaf:	48 8b bd 58 fd ff ff 	mov    rdi,QWORD PTR [rbp-0x2a8]
  205eb6:	e8 95 2d 00 00       	call   208c50 <scanAllCompileUnits>
  205ebb:	66 89 85 9e fd ff ff 	mov    WORD PTR [rbp-0x262],ax
  205ec2:	66 83 bd 9e fd ff ff 	cmp    WORD PTR [rbp-0x262],0x0
  205ec9:	00 
  205eca:	0f 84 86 00 00 00    	je     205f56 <openSelfDebugInfo+0xa86>
            errdefer st.elf.close();
  205ed0:	48 8b 85 68 fd ff ff 	mov    rax,QWORD PTR [rbp-0x298]
  205ed7:	48 83 c0 08          	add    rax,0x8
  205edb:	48 89 c7             	mov    rdi,rax
  205ede:	e8 1d 2d 00 00       	call   208c00 <Elf_close>
            errdefer st.self_exe_file.close();
  205ee3:	48 8b bd 68 fd ff ff 	mov    rdi,QWORD PTR [rbp-0x298]
  205eea:	e8 e1 28 00 00       	call   2087d0 <File_close>
            errdefer allocator.destroy(st);
  205eef:	48 8b bd 70 fd ff ff 	mov    rdi,QWORD PTR [rbp-0x290]
  205ef6:	48 8b b5 68 fd ff ff 	mov    rsi,QWORD PTR [rbp-0x298]
  205efd:	e8 be 03 00 00       	call   2062c0 <Allocator_destroy>
            try scanAllCompileUnits(st);
  205f02:	66 8b 8d 9e fd ff ff 	mov    cx,WORD PTR [rbp-0x262]
  205f09:	48 8b bd 58 fd ff ff 	mov    rdi,QWORD PTR [rbp-0x2a8]
  205f10:	66 89 8d 74 fc ff ff 	mov    WORD PTR [rbp-0x38c],cx
  205f17:	e8 34 e5 ff ff       	call   204450 <__zig_return_error>
  205f1c:	66 8b 8d 74 fc ff ff 	mov    cx,WORD PTR [rbp-0x38c]
  205f23:	66 89 8d 88 fd ff ff 	mov    WORD PTR [rbp-0x278],cx
  205f2a:	48 8b 85 88 fd ff ff 	mov    rax,QWORD PTR [rbp-0x278]
  205f31:	48 8b b5 60 fd ff ff 	mov    rsi,QWORD PTR [rbp-0x2a0]
  205f38:	48 89 06             	mov    QWORD PTR [rsi],rax
  205f3b:	48 8b 85 90 fd ff ff 	mov    rax,QWORD PTR [rbp-0x270]
  205f42:	48 89 46 08          	mov    QWORD PTR [rsi+0x8],rax
  205f46:	48 8b 85 50 fd ff ff 	mov    rax,QWORD PTR [rbp-0x2b0]
  205f4d:	48 81 c4 90 03 00 00 	add    rsp,0x390
  205f54:	5d                   	pop    rbp
  205f55:	c3                   	ret    
            return st;
  205f56:	48 8b 85 68 fd ff ff 	mov    rax,QWORD PTR [rbp-0x298]
  205f5d:	66 c7 85 78 fd ff ff 	mov    WORD PTR [rbp-0x288],0x0
  205f64:	00 00 
  205f66:	48 89 85 80 fd ff ff 	mov    QWORD PTR [rbp-0x280],rax
  205f6d:	48 8b 85 78 fd ff ff 	mov    rax,QWORD PTR [rbp-0x288]
  205f74:	48 8b 8d 60 fd ff ff 	mov    rcx,QWORD PTR [rbp-0x2a0]
  205f7b:	48 89 01             	mov    QWORD PTR [rcx],rax
  205f7e:	48 8b 85 80 fd ff ff 	mov    rax,QWORD PTR [rbp-0x280]
  205f85:	48 89 41 08          	mov    QWORD PTR [rcx+0x8],rax
  205f89:	48 8b 85 50 fd ff ff 	mov    rax,QWORD PTR [rbp-0x2b0]
  205f90:	48 81 c4 90 03 00 00 	add    rsp,0x390
  205f97:	5d                   	pop    rbp
  205f98:	c3                   	ret    
  205f99:	0f 1f 80 00 00 00 00 	nop    DWORD PTR [rax+0x0]

0000000000205fa0 <AlignedArrayList(AbbrevTableHeader,8)_init>:
        items: []align(A) T,
        len: usize,
        allocator: *Allocator,

        /// Deinitialize with `deinit` or use `toOwnedSlice`.
        pub fn init(allocator: *Allocator) Self {
  205fa0:	55                   	push   rbp
  205fa1:	48 89 e5             	mov    rbp,rsp
  205fa4:	48 89 f8             	mov    rax,rdi
  205fa7:	48 89 75 d8          	mov    QWORD PTR [rbp-0x28],rsi
            return Self{
                .items = []align(A) T{},
                .len = 0,
                .allocator = allocator,
  205fab:	48 8b 75 d8          	mov    rsi,QWORD PTR [rbp-0x28]
            return Self{
  205faf:	48 8b 0d 0a c3 ff ff 	mov    rcx,QWORD PTR [rip+0xffffffffffffc30a]        # 2022c0 <__unnamed_123>
  205fb6:	48 89 4d e0          	mov    QWORD PTR [rbp-0x20],rcx
  205fba:	48 8b 0d 07 c3 ff ff 	mov    rcx,QWORD PTR [rip+0xffffffffffffc307]        # 2022c8 <__unnamed_123+0x8>
  205fc1:	48 89 4d e8          	mov    QWORD PTR [rbp-0x18],rcx
  205fc5:	48 c7 45 f0 00 00 00 	mov    QWORD PTR [rbp-0x10],0x0
  205fcc:	00 
  205fcd:	48 89 75 f8          	mov    QWORD PTR [rbp-0x8],rsi
  205fd1:	48 8b 4d e0          	mov    rcx,QWORD PTR [rbp-0x20]
  205fd5:	48 89 0f             	mov    QWORD PTR [rdi],rcx
  205fd8:	48 8b 4d e8          	mov    rcx,QWORD PTR [rbp-0x18]
  205fdc:	48 89 4f 08          	mov    QWORD PTR [rdi+0x8],rcx
  205fe0:	48 8b 4d f0          	mov    rcx,QWORD PTR [rbp-0x10]
  205fe4:	48 89 4f 10          	mov    QWORD PTR [rdi+0x10],rcx
  205fe8:	48 8b 4d f8          	mov    rcx,QWORD PTR [rbp-0x8]
  205fec:	48 89 4f 18          	mov    QWORD PTR [rdi+0x18],rcx
  205ff0:	5d                   	pop    rbp
  205ff1:	c3                   	ret    
  205ff2:	66 66 66 66 66 2e 0f 	data16 data16 data16 data16 nop WORD PTR cs:[rax+rax*1+0x0]
  205ff9:	1f 84 00 00 00 00 00 

0000000000206000 <AlignedArrayList(CompileUnit,2)_init>:
        pub fn init(allocator: *Allocator) Self {
  206000:	55                   	push   rbp
  206001:	48 89 e5             	mov    rbp,rsp
  206004:	48 89 f8             	mov    rax,rdi
  206007:	48 89 75 d8          	mov    QWORD PTR [rbp-0x28],rsi
                .allocator = allocator,
  20600b:	48 8b 75 d8          	mov    rsi,QWORD PTR [rbp-0x28]
            return Self{
  20600f:	48 8b 0d aa c2 ff ff 	mov    rcx,QWORD PTR [rip+0xffffffffffffc2aa]        # 2022c0 <__unnamed_123>
  206016:	48 89 4d e0          	mov    QWORD PTR [rbp-0x20],rcx
  20601a:	48 8b 0d a7 c2 ff ff 	mov    rcx,QWORD PTR [rip+0xffffffffffffc2a7]        # 2022c8 <__unnamed_123+0x8>
  206021:	48 89 4d e8          	mov    QWORD PTR [rbp-0x18],rcx
  206025:	48 c7 45 f0 00 00 00 	mov    QWORD PTR [rbp-0x10],0x0
  20602c:	00 
  20602d:	48 89 75 f8          	mov    QWORD PTR [rbp-0x8],rsi
  206031:	48 8b 4d e0          	mov    rcx,QWORD PTR [rbp-0x20]
  206035:	48 89 0f             	mov    QWORD PTR [rdi],rcx
  206038:	48 8b 4d e8          	mov    rcx,QWORD PTR [rbp-0x18]
  20603c:	48 89 4f 08          	mov    QWORD PTR [rdi+0x8],rcx
  206040:	48 8b 4d f0          	mov    rcx,QWORD PTR [rbp-0x10]
  206044:	48 89 4f 10          	mov    QWORD PTR [rdi+0x10],rcx
  206048:	48 8b 4d f8          	mov    rcx,QWORD PTR [rbp-0x8]
  20604c:	48 89 4f 18          	mov    QWORD PTR [rdi+0x18],rcx
  206050:	5d                   	pop    rbp
  206051:	c3                   	ret    
  206052:	66 66 66 66 66 2e 0f 	data16 data16 data16 data16 nop WORD PTR cs:[rax+rax*1+0x0]
  206059:	1f 84 00 00 00 00 00 

0000000000206060 <Allocator_create>:
    pub fn create(self: *Allocator, init: var) Error!*@typeOf(init) {
  206060:	55                   	push   rbp
  206061:	48 89 e5             	mov    rbp,rsp
  206064:	48 81 ec a0 00 00 00 	sub    rsp,0xa0
  20606b:	48 89 f8             	mov    rax,rdi
  20606e:	4c 8d 45 e8          	lea    r8,[rbp-0x18]
  206072:	41 b9 01 00 00 00    	mov    r9d,0x1
  206078:	45 89 ca             	mov    r10d,r9d
  20607b:	48 89 55 a8          	mov    QWORD PTR [rbp-0x58],rdx
        const slice = try self.alloc(T, 1);
  20607f:	48 8b 55 a8          	mov    rdx,QWORD PTR [rbp-0x58]
  206083:	48 89 7d 88          	mov    QWORD PTR [rbp-0x78],rdi
  206087:	4c 89 c7             	mov    rdi,r8
  20608a:	48 89 75 80          	mov    QWORD PTR [rbp-0x80],rsi
  20608e:	48 89 8d 78 ff ff ff 	mov    QWORD PTR [rbp-0x88],rcx
  206095:	4c 89 d1             	mov    rcx,r10
  206098:	48 89 85 70 ff ff ff 	mov    QWORD PTR [rbp-0x90],rax
  20609f:	e8 9c 37 00 00       	call   209840 <Allocator_alloc>
  2060a4:	66 83 7d e8 00       	cmp    WORD PTR [rbp-0x18],0x0
  2060a9:	74 42                	je     2060ed <Allocator_create+0x8d>
  2060ab:	66 8b 45 e8          	mov    ax,WORD PTR [rbp-0x18]
  2060af:	48 8b 7d 80          	mov    rdi,QWORD PTR [rbp-0x80]
  2060b3:	66 89 85 6e ff ff ff 	mov    WORD PTR [rbp-0x92],ax
  2060ba:	e8 91 e3 ff ff       	call   204450 <__zig_return_error>
  2060bf:	66 8b 85 6e ff ff ff 	mov    ax,WORD PTR [rbp-0x92]
  2060c6:	66 89 45 c0          	mov    WORD PTR [rbp-0x40],ax
  2060ca:	48 8b 7d c0          	mov    rdi,QWORD PTR [rbp-0x40]
  2060ce:	48 8b 4d 88          	mov    rcx,QWORD PTR [rbp-0x78]
  2060d2:	48 89 39             	mov    QWORD PTR [rcx],rdi
  2060d5:	48 8b 7d c8          	mov    rdi,QWORD PTR [rbp-0x38]
  2060d9:	48 89 79 08          	mov    QWORD PTR [rcx+0x8],rdi
  2060dd:	48 8b 85 70 ff ff ff 	mov    rax,QWORD PTR [rbp-0x90]
  2060e4:	48 81 c4 a0 00 00 00 	add    rsp,0xa0
  2060eb:	5d                   	pop    rbp
  2060ec:	c3                   	ret    
  2060ed:	31 c0                	xor    eax,eax
  2060ef:	89 c1                	mov    ecx,eax
  2060f1:	48 8b 55 f0          	mov    rdx,QWORD PTR [rbp-0x10]
  2060f5:	48 89 55 98          	mov    QWORD PTR [rbp-0x68],rdx
  2060f9:	48 8b 55 f8          	mov    rdx,QWORD PTR [rbp-0x8]
  2060fd:	48 89 55 a0          	mov    QWORD PTR [rbp-0x60],rdx
        const ptr = &slice[0];
  206101:	48 3b 4d a0          	cmp    rcx,QWORD PTR [rbp-0x60]
  206105:	72 10                	jb     206117 <Allocator_create+0xb7>
  206107:	48 8d 3d f2 f1 01 00 	lea    rdi,[rip+0x1f1f2]        # 225300 <__unnamed_4>
  20610e:	31 c0                	xor    eax,eax
  206110:	89 c6                	mov    esi,eax
  206112:	e8 a9 cf ff ff       	call   2030c0 <panic>
  206117:	b8 c8 00 00 00       	mov    eax,0xc8
  20611c:	89 c2                	mov    edx,eax
  20611e:	48 8b 4d 98          	mov    rcx,QWORD PTR [rbp-0x68]
  206122:	48 89 4d 90          	mov    QWORD PTR [rbp-0x70],rcx
        ptr.* = init;
  206126:	48 8b 4d 90          	mov    rcx,QWORD PTR [rbp-0x70]
  20612a:	48 8b b5 78 ff ff ff 	mov    rsi,QWORD PTR [rbp-0x88]
  206131:	48 89 cf             	mov    rdi,rcx
  206134:	e8 c7 bb 01 00       	call   221d00 <memcpy>
        return ptr;
  206139:	48 8b 4d 90          	mov    rcx,QWORD PTR [rbp-0x70]
  20613d:	66 c7 45 b0 00 00    	mov    WORD PTR [rbp-0x50],0x0
  206143:	48 89 4d b8          	mov    QWORD PTR [rbp-0x48],rcx
  206147:	48 8b 4d b0          	mov    rcx,QWORD PTR [rbp-0x50]
  20614b:	48 8b 55 88          	mov    rdx,QWORD PTR [rbp-0x78]
  20614f:	48 89 0a             	mov    QWORD PTR [rdx],rcx
  206152:	48 8b 4d b8          	mov    rcx,QWORD PTR [rbp-0x48]
  206156:	48 89 4a 08          	mov    QWORD PTR [rdx+0x8],rcx
  20615a:	48 8b 85 70 ff ff ff 	mov    rax,QWORD PTR [rbp-0x90]
  206161:	48 81 c4 a0 00 00 00 	add    rsp,0xa0
  206168:	5d                   	pop    rbp
  206169:	c3                   	ret    
  20616a:	66 0f 1f 44 00 00    	nop    WORD PTR [rax+rax*1+0x0]

0000000000206170 <openSelfExe>:
        debug.dumpCurrentStackTrace(null);
    }
    return error.Unexpected;
}

pub fn openSelfExe() !os.File {
  206170:	55                   	push   rbp
  206171:	48 89 e5             	mov    rbp,rsp
  206174:	48 81 ec d0 00 00 00 	sub    rsp,0xd0
  20617b:	48 89 f8             	mov    rax,rdi
  20617e:	b1 01                	mov    cl,0x1
    switch (builtin.os) {
        Os.linux => {
            const proc_file_path = "/proc/self/exe";
  206180:	48 8b 15 43 a5 ff ff 	mov    rdx,QWORD PTR [rip+0xffffffffffffa543]        # 2006ca <__unnamed_33>
  206187:	48 89 55 aa          	mov    QWORD PTR [rbp-0x56],rdx
  20618b:	44 8b 05 40 a5 ff ff 	mov    r8d,DWORD PTR [rip+0xffffffffffffa540]        # 2006d2 <__unnamed_33+0x8>
  206192:	44 89 45 b2          	mov    DWORD PTR [rbp-0x4e],r8d
  206196:	66 44 8b 0d 38 a5 ff 	mov    r9w,WORD PTR [rip+0xffffffffffffa538]        # 2006d6 <__unnamed_33+0xc>
  20619d:	ff 
  20619e:	66 44 89 4d b6       	mov    WORD PTR [rbp-0x4a],r9w
            var fixed_buffer_mem: [proc_file_path.len + 1]u8 = undefined;
  2061a3:	48 8b 15 2e a5 ff ff 	mov    rdx,QWORD PTR [rip+0xffffffffffffa52e]        # 2006d8 <__unnamed_34>
  2061aa:	48 89 55 9b          	mov    QWORD PTR [rbp-0x65],rdx
  2061ae:	44 8b 05 2b a5 ff ff 	mov    r8d,DWORD PTR [rip+0xffffffffffffa52b]        # 2006e0 <__unnamed_34+0x8>
  2061b5:	44 89 45 a3          	mov    DWORD PTR [rbp-0x5d],r8d
  2061b9:	66 44 8b 0d 23 a5 ff 	mov    r9w,WORD PTR [rip+0xffffffffffffa523]        # 2006e4 <__unnamed_34+0xc>
  2061c0:	ff 
  2061c1:	66 44 89 4d a7       	mov    WORD PTR [rbp-0x59],r9w
  2061c6:	44 8a 15 19 a5 ff ff 	mov    r10b,BYTE PTR [rip+0xffffffffffffa519]        # 2006e6 <__unnamed_34+0xe>
  2061cd:	44 88 55 a9          	mov    BYTE PTR [rbp-0x57],r10b
            var fixed_allocator = std.heap.FixedBufferAllocator.init(fixed_buffer_mem[0..]);
  2061d1:	f6 c1 01             	test   cl,0x1
  2061d4:	48 89 85 60 ff ff ff 	mov    QWORD PTR [rbp-0xa0],rax
  2061db:	48 89 b5 58 ff ff ff 	mov    QWORD PTR [rbp-0xa8],rsi
  2061e2:	48 89 bd 50 ff ff ff 	mov    QWORD PTR [rbp-0xb0],rdi
  2061e9:	75 40                	jne    20622b <openSelfExe+0xbb>
  2061eb:	eb 2e                	jmp    20621b <openSelfExe+0xab>
            return os.File.openRead(&fixed_allocator.allocator, proc_file_path);
  2061ed:	48 8b bd 58 ff ff ff 	mov    rdi,QWORD PTR [rbp-0xa8]
  2061f4:	e8 57 e2 ff ff       	call   204450 <__zig_return_error>
  2061f9:	eb 02                	jmp    2061fd <openSelfExe+0x8d>
  2061fb:	eb 00                	jmp    2061fd <openSelfExe+0x8d>
  2061fd:	48 8b 45 b8          	mov    rax,QWORD PTR [rbp-0x48]
  206201:	48 8b 8d 50 ff ff ff 	mov    rcx,QWORD PTR [rbp-0xb0]
  206208:	48 89 01             	mov    QWORD PTR [rcx],rax
  20620b:	48 8b 85 60 ff ff ff 	mov    rax,QWORD PTR [rbp-0xa0]
  206212:	48 81 c4 d0 00 00 00 	add    rsp,0xd0
  206219:	5d                   	pop    rbp
  20621a:	c3                   	ret    
  20621b:	48 8d 3d de f0 01 00 	lea    rdi,[rip+0x1f0de]        # 225300 <__unnamed_4>
  206222:	31 c0                	xor    eax,eax
  206224:	89 c6                	mov    esi,eax
            var fixed_allocator = std.heap.FixedBufferAllocator.init(fixed_buffer_mem[0..]);
  206226:	e8 95 ce ff ff       	call   2030c0 <panic>
  20622b:	48 8d 7d c0          	lea    rdi,[rbp-0x40]
  20622f:	48 8d 75 f0          	lea    rsi,[rbp-0x10]
  206233:	48 8d 45 9b          	lea    rax,[rbp-0x65]
  206237:	48 89 45 f0          	mov    QWORD PTR [rbp-0x10],rax
  20623b:	48 c7 45 f8 0f 00 00 	mov    QWORD PTR [rbp-0x8],0xf
  206242:	00 
  206243:	e8 68 36 00 00       	call   2098b0 <FixedBufferAllocator_init>
  206248:	48 8d 7d b8          	lea    rdi,[rbp-0x48]
  20624c:	48 8d 0d 75 f2 01 00 	lea    rcx,[rip+0x1f275]        # 2254c8 <__unnamed_35>
  206253:	48 8d 85 68 ff ff ff 	lea    rax,[rbp-0x98]
  20625a:	ba 30 00 00 00       	mov    edx,0x30
  20625f:	48 8d 75 c0          	lea    rsi,[rbp-0x40]
  206263:	49 89 c0             	mov    r8,rax
  206266:	48 89 bd 48 ff ff ff 	mov    QWORD PTR [rbp-0xb8],rdi
  20626d:	4c 89 c7             	mov    rdi,r8
  206270:	48 89 85 40 ff ff ff 	mov    QWORD PTR [rbp-0xc0],rax
  206277:	48 89 8d 38 ff ff ff 	mov    QWORD PTR [rbp-0xc8],rcx
  20627e:	e8 7d ba 01 00       	call   221d00 <memcpy>
            return os.File.openRead(&fixed_allocator.allocator, proc_file_path);
  206283:	48 8b bd 48 ff ff ff 	mov    rdi,QWORD PTR [rbp-0xb8]
  20628a:	48 8b b5 58 ff ff ff 	mov    rsi,QWORD PTR [rbp-0xa8]
  206291:	48 8b 95 40 ff ff ff 	mov    rdx,QWORD PTR [rbp-0xc0]
  206298:	48 8b 8d 38 ff ff ff 	mov    rcx,QWORD PTR [rbp-0xc8]
  20629f:	e8 7c 36 00 00       	call   209920 <File_openRead>
  2062a4:	66 83 7d b8 00       	cmp    WORD PTR [rbp-0x48],0x0
  2062a9:	0f 85 3e ff ff ff    	jne    2061ed <openSelfExe+0x7d>
  2062af:	e9 47 ff ff ff       	jmp    2061fb <openSelfExe+0x8b>
  2062b4:	66 66 66 2e 0f 1f 84 	data16 data16 nop WORD PTR cs:[rax+rax*1+0x0]
  2062bb:	00 00 00 00 00 

00000000002062c0 <Allocator_destroy>:
    pub fn destroy(self: *Allocator, ptr: var) void {
  2062c0:	55                   	push   rbp
  2062c1:	48 89 e5             	mov    rbp,rsp
  2062c4:	48 83 ec 40          	sub    rsp,0x40
  2062c8:	b0 01                	mov    al,0x1
  2062ca:	48 89 7d e8          	mov    QWORD PTR [rbp-0x18],rdi
  2062ce:	48 89 75 e0          	mov    QWORD PTR [rbp-0x20],rsi
        const non_const_ptr = @intToPtr([*]u8, @ptrToInt(ptr));
  2062d2:	48 8b 75 e0          	mov    rsi,QWORD PTR [rbp-0x20]
  2062d6:	48 89 75 d8          	mov    QWORD PTR [rbp-0x28],rsi
        self.freeFn(self, non_const_ptr[0..@sizeOf(@typeOf(ptr).Child)]);
  2062da:	48 8b 75 e8          	mov    rsi,QWORD PTR [rbp-0x18]
  2062de:	48 8b 76 10          	mov    rsi,QWORD PTR [rsi+0x10]
  2062e2:	48 8b 7d e8          	mov    rdi,QWORD PTR [rbp-0x18]
  2062e6:	48 8b 4d d8          	mov    rcx,QWORD PTR [rbp-0x28]
  2062ea:	a8 01                	test   al,0x1
  2062ec:	48 89 4d d0          	mov    QWORD PTR [rbp-0x30],rcx
  2062f0:	48 89 75 c8          	mov    QWORD PTR [rbp-0x38],rsi
  2062f4:	48 89 7d c0          	mov    QWORD PTR [rbp-0x40],rdi
  2062f8:	75 10                	jne    20630a <Allocator_destroy+0x4a>
  2062fa:	48 8d 3d ff ef 01 00 	lea    rdi,[rip+0x1efff]        # 225300 <__unnamed_4>
  206301:	31 c0                	xor    eax,eax
  206303:	89 c6                	mov    esi,eax
  206305:	e8 b6 cd ff ff       	call   2030c0 <panic>
  20630a:	48 8d 75 f0          	lea    rsi,[rbp-0x10]
  20630e:	48 8b 45 d0          	mov    rax,QWORD PTR [rbp-0x30]
  206312:	48 89 45 f0          	mov    QWORD PTR [rbp-0x10],rax
  206316:	48 c7 45 f8 c8 00 00 	mov    QWORD PTR [rbp-0x8],0xc8
  20631d:	00 
  20631e:	48 8b 7d c0          	mov    rdi,QWORD PTR [rbp-0x40]
  206322:	48 8b 4d c8          	mov    rcx,QWORD PTR [rbp-0x38]
  206326:	ff d1                	call   rcx
    pub fn destroy(self: *Allocator, ptr: var) void {
  206328:	48 83 c4 40          	add    rsp,0x40
  20632c:	5d                   	pop    rbp
  20632d:	c3                   	ret    
  20632e:	66 90                	xchg   ax,ax

0000000000206330 <Elf_openFile>:
        try elf.openFile(allocator, *elf.prealloc_file);
        elf.auto_close_stream = true;
    }

    /// Call close when done.
    pub fn openFile(elf: *Elf, allocator: *mem.Allocator, file: *os.File) !void {
  206330:	55                   	push   rbp
  206331:	48 89 e5             	mov    rbp,rsp
  206334:	48 81 ec 20 09 00 00 	sub    rsp,0x920
  20633b:	48 8d 45 f0          	lea    rax,[rbp-0x10]
  20633f:	48 89 b5 18 fc ff ff 	mov    QWORD PTR [rbp-0x3e8],rsi
  206346:	48 89 95 10 fc ff ff 	mov    QWORD PTR [rbp-0x3f0],rdx
  20634d:	48 89 8d 08 fc ff ff 	mov    QWORD PTR [rbp-0x3f8],rcx
        elf.allocator = allocator;
  206354:	48 8b 8d 18 fc ff ff 	mov    rcx,QWORD PTR [rbp-0x3e8]
  20635b:	48 8b 95 10 fc ff ff 	mov    rdx,QWORD PTR [rbp-0x3f0]
  206362:	48 89 51 48          	mov    QWORD PTR [rcx+0x48],rdx
        elf.in_file = file;
  206366:	48 8b 8d 18 fc ff ff 	mov    rcx,QWORD PTR [rbp-0x3e8]
  20636d:	48 8b 95 08 fc ff ff 	mov    rdx,QWORD PTR [rbp-0x3f8]
  206374:	48 89 11             	mov    QWORD PTR [rcx],rdx
        elf.auto_close_stream = false;
  206377:	48 8b 8d 18 fc ff ff 	mov    rcx,QWORD PTR [rbp-0x3e8]
  20637e:	c6 41 08 00          	mov    BYTE PTR [rcx+0x8],0x0

        var file_stream = io.FileInStream.init(elf.in_file);
  206382:	48 8b 8d 18 fc ff ff 	mov    rcx,QWORD PTR [rbp-0x3e8]
  206389:	48 8b 31             	mov    rsi,QWORD PTR [rcx]
  20638c:	48 89 bd 70 fb ff ff 	mov    QWORD PTR [rbp-0x490],rdi
  206393:	48 89 c7             	mov    rdi,rax
  206396:	e8 f5 3e 00 00       	call   20a290 <FileInStream_init>
  20639b:	41 b0 01             	mov    r8b,0x1
  20639e:	48 8d 85 f8 fb ff ff 	lea    rax,[rbp-0x408]
  2063a5:	48 8b 4d f0          	mov    rcx,QWORD PTR [rbp-0x10]
  2063a9:	48 89 8d f8 fb ff ff 	mov    QWORD PTR [rbp-0x408],rcx
  2063b0:	48 8b 4d f8          	mov    rcx,QWORD PTR [rbp-0x8]
  2063b4:	48 89 8d 00 fc ff ff 	mov    QWORD PTR [rbp-0x400],rcx
        const in = &file_stream.stream;
  2063bb:	48 83 c0 08          	add    rax,0x8
  2063bf:	48 89 85 f0 fb ff ff 	mov    QWORD PTR [rbp-0x410],rax

        var magic: [4]u8 = undefined;
  2063c6:	44 8b 0d 97 c0 ff ff 	mov    r9d,DWORD PTR [rip+0xffffffffffffc097]        # 202464 <__unnamed_21>
  2063cd:	44 89 8d ec fb ff ff 	mov    DWORD PTR [rbp-0x414],r9d
        try in.readNoEof(magic[0..]);
  2063d4:	48 8b b5 f0 fb ff ff 	mov    rsi,QWORD PTR [rbp-0x410]
  2063db:	41 f6 c0 01          	test   r8b,0x1
  2063df:	48 89 b5 68 fb ff ff 	mov    QWORD PTR [rbp-0x498],rsi
  2063e6:	0f 85 a2 22 00 00    	jne    20868e <Elf_openFile+0x235e>
  2063ec:	e9 8d 22 00 00       	jmp    20867e <Elf_openFile+0x234e>
  2063f1:	66 8b 45 de          	mov    ax,WORD PTR [rbp-0x22]
  2063f5:	48 8b bd 70 fb ff ff 	mov    rdi,QWORD PTR [rbp-0x490]
  2063fc:	66 89 85 66 fb ff ff 	mov    WORD PTR [rbp-0x49a],ax
  206403:	e8 48 e0 ff ff       	call   204450 <__zig_return_error>
  206408:	66 8b 85 66 fb ff ff 	mov    ax,WORD PTR [rbp-0x49a]
  20640f:	48 81 c4 20 09 00 00 	add    rsp,0x920
  206416:	5d                   	pop    rbp
  206417:	c3                   	ret    
  206418:	48 8d 85 ec fb ff ff 	lea    rax,[rbp-0x414]
        if (!mem.eql(u8, magic, "\x7fELF")) return error.InvalidFormat;
  20641f:	48 89 45 c8          	mov    QWORD PTR [rbp-0x38],rax
  206423:	48 c7 45 d0 04 00 00 	mov    QWORD PTR [rbp-0x30],0x4
  20642a:	00 
  20642b:	48 8d 35 c6 f0 01 00 	lea    rsi,[rip+0x1f0c6]        # 2254f8 <__unnamed_37>
  206432:	48 8d 7d c8          	lea    rdi,[rbp-0x38]
  206436:	e8 25 3f 00 00       	call   20a360 <eql>
  20643b:	88 c1                	mov    cl,al
  20643d:	a8 01                	test   al,0x1
  20643f:	88 8d 65 fb ff ff    	mov    BYTE PTR [rbp-0x49b],cl
  206445:	75 1b                	jne    206462 <Elf_openFile+0x132>
  206447:	eb 00                	jmp    206449 <Elf_openFile+0x119>
  206449:	48 8b bd 70 fb ff ff 	mov    rdi,QWORD PTR [rbp-0x490]
  206450:	e8 fb df ff ff       	call   204450 <__zig_return_error>
  206455:	66 b8 1f 00          	mov    ax,0x1f
  206459:	48 81 c4 20 09 00 00 	add    rsp,0x920
  206460:	5d                   	pop    rbp
  206461:	c3                   	ret    
  206462:	eb 00                	jmp    206464 <Elf_openFile+0x134>
  206464:	48 8d 7d c0          	lea    rdi,[rbp-0x40]

        elf.is_64 = switch (try in.readByte()) {
  206468:	48 8b 85 18 fc ff ff 	mov    rax,QWORD PTR [rbp-0x3e8]
  20646f:	48 83 c0 09          	add    rax,0x9
  206473:	48 8b 95 f0 fb ff ff 	mov    rdx,QWORD PTR [rbp-0x410]
  20647a:	48 8b b5 70 fb ff ff 	mov    rsi,QWORD PTR [rbp-0x490]
  206481:	48 89 85 58 fb ff ff 	mov    QWORD PTR [rbp-0x4a8],rax
  206488:	e8 b3 3f 00 00       	call   20a440 <InStream(ReadError)_readByte>
  20648d:	66 83 7d c0 00       	cmp    WORD PTR [rbp-0x40],0x0
  206492:	74 27                	je     2064bb <Elf_openFile+0x18b>
  206494:	66 8b 45 c0          	mov    ax,WORD PTR [rbp-0x40]
  206498:	48 8b bd 70 fb ff ff 	mov    rdi,QWORD PTR [rbp-0x490]
  20649f:	66 89 85 56 fb ff ff 	mov    WORD PTR [rbp-0x4aa],ax
  2064a6:	e8 a5 df ff ff       	call   204450 <__zig_return_error>
  2064ab:	66 8b 85 56 fb ff ff 	mov    ax,WORD PTR [rbp-0x4aa]
  2064b2:	48 81 c4 20 09 00 00 	add    rsp,0x920
  2064b9:	5d                   	pop    rbp
  2064ba:	c3                   	ret    
  2064bb:	8a 45 c2             	mov    al,BYTE PTR [rbp-0x3e]
  2064be:	88 c1                	mov    cl,al
  2064c0:	80 e9 01             	sub    cl,0x1
  2064c3:	88 85 55 fb ff ff    	mov    BYTE PTR [rbp-0x4ab],al
  2064c9:	88 8d 54 fb ff ff    	mov    BYTE PTR [rbp-0x4ac],cl
  2064cf:	74 2d                	je     2064fe <Elf_openFile+0x1ce>
  2064d1:	eb 00                	jmp    2064d3 <Elf_openFile+0x1a3>
  2064d3:	8a 85 55 fb ff ff    	mov    al,BYTE PTR [rbp-0x4ab]
  2064d9:	2c 02                	sub    al,0x2
  2064db:	88 85 53 fb ff ff    	mov    BYTE PTR [rbp-0x4ad],al
  2064e1:	74 27                	je     20650a <Elf_openFile+0x1da>
  2064e3:	eb 00                	jmp    2064e5 <Elf_openFile+0x1b5>
            1 => false,
            2 => true,
            else => return error.InvalidFormat,
  2064e5:	48 8b bd 70 fb ff ff 	mov    rdi,QWORD PTR [rbp-0x490]
  2064ec:	e8 5f df ff ff       	call   204450 <__zig_return_error>
  2064f1:	66 b8 1f 00          	mov    ax,0x1f
  2064f5:	48 81 c4 20 09 00 00 	add    rsp,0x920
  2064fc:	5d                   	pop    rbp
  2064fd:	c3                   	ret    
  2064fe:	31 c0                	xor    eax,eax
  206500:	88 c1                	mov    cl,al
        elf.is_64 = switch (try in.readByte()) {
  206502:	88 8d 52 fb ff ff    	mov    BYTE PTR [rbp-0x4ae],cl
  206508:	eb 0a                	jmp    206514 <Elf_openFile+0x1e4>
  20650a:	b0 01                	mov    al,0x1
  20650c:	88 85 52 fb ff ff    	mov    BYTE PTR [rbp-0x4ae],al
  206512:	eb 00                	jmp    206514 <Elf_openFile+0x1e4>
  206514:	8a 85 52 fb ff ff    	mov    al,BYTE PTR [rbp-0x4ae]
  20651a:	48 8d 7d b0          	lea    rdi,[rbp-0x50]
  20651e:	24 01                	and    al,0x1
  206520:	48 8b 8d 58 fb ff ff 	mov    rcx,QWORD PTR [rbp-0x4a8]
  206527:	88 01                	mov    BYTE PTR [rcx],al
        };

        elf.endian = switch (try in.readByte()) {
  206529:	48 8b 95 18 fc ff ff 	mov    rdx,QWORD PTR [rbp-0x3e8]
  206530:	48 83 c2 0a          	add    rdx,0xa
  206534:	48 8b b5 f0 fb ff ff 	mov    rsi,QWORD PTR [rbp-0x410]
  20653b:	4c 8b 85 70 fb ff ff 	mov    r8,QWORD PTR [rbp-0x490]
  206542:	48 89 b5 48 fb ff ff 	mov    QWORD PTR [rbp-0x4b8],rsi
  206549:	4c 89 c6             	mov    rsi,r8
  20654c:	4c 8b 8d 48 fb ff ff 	mov    r9,QWORD PTR [rbp-0x4b8]
  206553:	48 89 95 40 fb ff ff 	mov    QWORD PTR [rbp-0x4c0],rdx
  20655a:	4c 89 ca             	mov    rdx,r9
  20655d:	e8 de 3e 00 00       	call   20a440 <InStream(ReadError)_readByte>
  206562:	66 83 7d b0 00       	cmp    WORD PTR [rbp-0x50],0x0
  206567:	74 27                	je     206590 <Elf_openFile+0x260>
  206569:	66 8b 45 b0          	mov    ax,WORD PTR [rbp-0x50]
  20656d:	48 8b bd 70 fb ff ff 	mov    rdi,QWORD PTR [rbp-0x490]
  206574:	66 89 85 3e fb ff ff 	mov    WORD PTR [rbp-0x4c2],ax
  20657b:	e8 d0 de ff ff       	call   204450 <__zig_return_error>
  206580:	66 8b 85 3e fb ff ff 	mov    ax,WORD PTR [rbp-0x4c2]
  206587:	48 81 c4 20 09 00 00 	add    rsp,0x920
  20658e:	5d                   	pop    rbp
  20658f:	c3                   	ret    
  206590:	8a 45 b2             	mov    al,BYTE PTR [rbp-0x4e]
  206593:	88 c1                	mov    cl,al
  206595:	80 e9 01             	sub    cl,0x1
  206598:	88 85 3d fb ff ff    	mov    BYTE PTR [rbp-0x4c3],al
  20659e:	88 8d 3c fb ff ff    	mov    BYTE PTR [rbp-0x4c4],cl
  2065a4:	74 2d                	je     2065d3 <Elf_openFile+0x2a3>
  2065a6:	eb 00                	jmp    2065a8 <Elf_openFile+0x278>
  2065a8:	8a 85 3d fb ff ff    	mov    al,BYTE PTR [rbp-0x4c3]
  2065ae:	2c 02                	sub    al,0x2
  2065b0:	88 85 3b fb ff ff    	mov    BYTE PTR [rbp-0x4c5],al
  2065b6:	74 25                	je     2065dd <Elf_openFile+0x2ad>
  2065b8:	eb 00                	jmp    2065ba <Elf_openFile+0x28a>
            1 => builtin.Endian.Little,
            2 => builtin.Endian.Big,
            else => return error.InvalidFormat,
  2065ba:	48 8b bd 70 fb ff ff 	mov    rdi,QWORD PTR [rbp-0x490]
  2065c1:	e8 8a de ff ff       	call   204450 <__zig_return_error>
  2065c6:	66 b8 1f 00          	mov    ax,0x1f
  2065ca:	48 81 c4 20 09 00 00 	add    rsp,0x920
  2065d1:	5d                   	pop    rbp
  2065d2:	c3                   	ret    
  2065d3:	b0 01                	mov    al,0x1
        elf.endian = switch (try in.readByte()) {
  2065d5:	88 85 3a fb ff ff    	mov    BYTE PTR [rbp-0x4c6],al
  2065db:	eb 0c                	jmp    2065e9 <Elf_openFile+0x2b9>
  2065dd:	31 c0                	xor    eax,eax
  2065df:	88 c1                	mov    cl,al
  2065e1:	88 8d 3a fb ff ff    	mov    BYTE PTR [rbp-0x4c6],cl
  2065e7:	eb 00                	jmp    2065e9 <Elf_openFile+0x2b9>
  2065e9:	8a 85 3a fb ff ff    	mov    al,BYTE PTR [rbp-0x4c6]
  2065ef:	48 8d 7d a0          	lea    rdi,[rbp-0x60]
  2065f3:	24 01                	and    al,0x1
  2065f5:	48 8b 8d 40 fb ff ff 	mov    rcx,QWORD PTR [rbp-0x4c0]
  2065fc:	88 01                	mov    BYTE PTR [rcx],al
        };

        const version_byte = try in.readByte();
  2065fe:	48 8b 95 f0 fb ff ff 	mov    rdx,QWORD PTR [rbp-0x410]
  206605:	48 8b b5 70 fb ff ff 	mov    rsi,QWORD PTR [rbp-0x490]
  20660c:	e8 2f 3e 00 00       	call   20a440 <InStream(ReadError)_readByte>
  206611:	66 83 7d a0 00       	cmp    WORD PTR [rbp-0x60],0x0
  206616:	74 27                	je     20663f <Elf_openFile+0x30f>
  206618:	66 8b 45 a0          	mov    ax,WORD PTR [rbp-0x60]
  20661c:	48 8b bd 70 fb ff ff 	mov    rdi,QWORD PTR [rbp-0x490]
  206623:	66 89 85 38 fb ff ff 	mov    WORD PTR [rbp-0x4c8],ax
  20662a:	e8 21 de ff ff       	call   204450 <__zig_return_error>
  20662f:	66 8b 85 38 fb ff ff 	mov    ax,WORD PTR [rbp-0x4c8]
  206636:	48 81 c4 20 09 00 00 	add    rsp,0x920
  20663d:	5d                   	pop    rbp
  20663e:	c3                   	ret    
  20663f:	8a 45 a2             	mov    al,BYTE PTR [rbp-0x5e]
  206642:	88 85 eb fb ff ff    	mov    BYTE PTR [rbp-0x415],al
        if (version_byte != 1) return error.InvalidFormat;
  206648:	80 bd eb fb ff ff 01 	cmp    BYTE PTR [rbp-0x415],0x1
  20664f:	74 19                	je     20666a <Elf_openFile+0x33a>
  206651:	48 8b bd 70 fb ff ff 	mov    rdi,QWORD PTR [rbp-0x490]
  206658:	e8 f3 dd ff ff       	call   204450 <__zig_return_error>
  20665d:	66 b8 1f 00          	mov    ax,0x1f
  206661:	48 81 c4 20 09 00 00 	add    rsp,0x920
  206668:	5d                   	pop    rbp
  206669:	c3                   	ret    
  20666a:	eb 00                	jmp    20666c <Elf_openFile+0x33c>
  20666c:	b8 09 00 00 00       	mov    eax,0x9
  206671:	89 c2                	mov    edx,eax

        // skip over padding
        try elf.in_file.seekForward(9);
  206673:	48 8b 8d 18 fc ff ff 	mov    rcx,QWORD PTR [rbp-0x3e8]
  20667a:	48 8b 31             	mov    rsi,QWORD PTR [rcx]
  20667d:	48 8b bd 70 fb ff ff 	mov    rdi,QWORD PTR [rbp-0x490]
  206684:	e8 87 3e 00 00       	call   20a510 <File_seekForward>
  206689:	66 89 45 96          	mov    WORD PTR [rbp-0x6a],ax
  20668d:	66 83 7d 96 00       	cmp    WORD PTR [rbp-0x6a],0x0
  206692:	74 27                	je     2066bb <Elf_openFile+0x38b>
  206694:	66 8b 45 96          	mov    ax,WORD PTR [rbp-0x6a]
  206698:	48 8b bd 70 fb ff ff 	mov    rdi,QWORD PTR [rbp-0x490]
  20669f:	66 89 85 36 fb ff ff 	mov    WORD PTR [rbp-0x4ca],ax
  2066a6:	e8 a5 dd ff ff       	call   204450 <__zig_return_error>
  2066ab:	66 8b 85 36 fb ff ff 	mov    ax,WORD PTR [rbp-0x4ca]
  2066b2:	48 81 c4 20 09 00 00 	add    rsp,0x920
  2066b9:	5d                   	pop    rbp
  2066ba:	c3                   	ret    
  2066bb:	48 8d 45 90          	lea    rax,[rbp-0x70]

        elf.file_type = switch (try in.readInt(elf.endian, u16)) {
  2066bf:	48 8b 8d 18 fc ff ff 	mov    rcx,QWORD PTR [rbp-0x3e8]
  2066c6:	48 83 c1 0b          	add    rcx,0xb
  2066ca:	48 8b 95 f0 fb ff ff 	mov    rdx,QWORD PTR [rbp-0x410]
  2066d1:	48 8b b5 18 fc ff ff 	mov    rsi,QWORD PTR [rbp-0x3e8]
  2066d8:	40 8a 7e 0a          	mov    dil,BYTE PTR [rsi+0xa]
  2066dc:	44 0f b6 c7          	movzx  r8d,dil
  2066e0:	48 8d 7d 90          	lea    rdi,[rbp-0x70]
  2066e4:	48 8b b5 70 fb ff ff 	mov    rsi,QWORD PTR [rbp-0x490]
  2066eb:	48 89 8d 28 fb ff ff 	mov    QWORD PTR [rbp-0x4d8],rcx
  2066f2:	44 89 c1             	mov    ecx,r8d
  2066f5:	48 89 85 20 fb ff ff 	mov    QWORD PTR [rbp-0x4e0],rax
  2066fc:	e8 2f 3f 00 00       	call   20a630 <InStream(ReadError)_readInt>
  206701:	66 83 7d 90 00       	cmp    WORD PTR [rbp-0x70],0x0
  206706:	74 27                	je     20672f <Elf_openFile+0x3ff>
  206708:	66 8b 45 90          	mov    ax,WORD PTR [rbp-0x70]
  20670c:	48 8b bd 70 fb ff ff 	mov    rdi,QWORD PTR [rbp-0x490]
  206713:	66 89 85 1e fb ff ff 	mov    WORD PTR [rbp-0x4e2],ax
  20671a:	e8 31 dd ff ff       	call   204450 <__zig_return_error>
  20671f:	66 8b 85 1e fb ff ff 	mov    ax,WORD PTR [rbp-0x4e2]
  206726:	48 81 c4 20 09 00 00 	add    rsp,0x920
  20672d:	5d                   	pop    rbp
  20672e:	c3                   	ret    
  20672f:	0f b7 45 92          	movzx  eax,WORD PTR [rbp-0x6e]
  206733:	83 c0 ff             	add    eax,0xffffffff
  206736:	66 89 c1             	mov    cx,ax
  206739:	0f b7 c1             	movzx  eax,cx
  20673c:	89 c2                	mov    edx,eax
  20673e:	83 e8 03             	sub    eax,0x3
  206741:	48 89 95 10 fb ff ff 	mov    QWORD PTR [rbp-0x4f0],rdx
  206748:	89 85 0c fb ff ff    	mov    DWORD PTR [rbp-0x4f4],eax
  20674e:	77 17                	ja     206767 <Elf_openFile+0x437>
  206750:	48 8d 05 39 9a ff ff 	lea    rax,[rip+0xffffffffffff9a39]        # 200190 <arch-0x3a3>
  206757:	48 8b 8d 10 fb ff ff 	mov    rcx,QWORD PTR [rbp-0x4f0]
  20675e:	48 63 14 88          	movsxd rdx,DWORD PTR [rax+rcx*4]
  206762:	48 01 c2             	add    rdx,rax
  206765:	ff e2                	jmp    rdx
            1 => FileType.Relocatable,
            2 => FileType.Executable,
            3 => FileType.Shared,
            4 => FileType.Core,
            else => return error.InvalidFormat,
  206767:	48 8b bd 70 fb ff ff 	mov    rdi,QWORD PTR [rbp-0x490]
  20676e:	e8 dd dc ff ff       	call   204450 <__zig_return_error>
  206773:	66 b8 1f 00          	mov    ax,0x1f
  206777:	48 81 c4 20 09 00 00 	add    rsp,0x920
  20677e:	5d                   	pop    rbp
  20677f:	c3                   	ret    
  206780:	31 c0                	xor    eax,eax
  206782:	88 c1                	mov    cl,al
        elf.file_type = switch (try in.readInt(elf.endian, u16)) {
  206784:	88 8d 0b fb ff ff    	mov    BYTE PTR [rbp-0x4f5],cl
  20678a:	eb 1e                	jmp    2067aa <Elf_openFile+0x47a>
  20678c:	b0 01                	mov    al,0x1
  20678e:	88 85 0b fb ff ff    	mov    BYTE PTR [rbp-0x4f5],al
  206794:	eb 14                	jmp    2067aa <Elf_openFile+0x47a>
  206796:	b0 02                	mov    al,0x2
  206798:	88 85 0b fb ff ff    	mov    BYTE PTR [rbp-0x4f5],al
  20679e:	eb 0a                	jmp    2067aa <Elf_openFile+0x47a>
  2067a0:	b0 03                	mov    al,0x3
  2067a2:	88 85 0b fb ff ff    	mov    BYTE PTR [rbp-0x4f5],al
  2067a8:	eb 00                	jmp    2067aa <Elf_openFile+0x47a>
  2067aa:	8a 85 0b fb ff ff    	mov    al,BYTE PTR [rbp-0x4f5]
  2067b0:	48 8d 4d 80          	lea    rcx,[rbp-0x80]
  2067b4:	24 03                	and    al,0x3
  2067b6:	48 8b 95 28 fb ff ff 	mov    rdx,QWORD PTR [rbp-0x4d8]
  2067bd:	88 02                	mov    BYTE PTR [rdx],al
        };

        elf.arch = switch (try in.readInt(elf.endian, u16)) {
  2067bf:	48 8b b5 18 fc ff ff 	mov    rsi,QWORD PTR [rbp-0x3e8]
  2067c6:	48 83 c6 0c          	add    rsi,0xc
  2067ca:	48 8b 95 f0 fb ff ff 	mov    rdx,QWORD PTR [rbp-0x410]
  2067d1:	48 8b bd 18 fc ff ff 	mov    rdi,QWORD PTR [rbp-0x3e8]
  2067d8:	8a 47 0a             	mov    al,BYTE PTR [rdi+0xa]
  2067db:	44 0f b6 c0          	movzx  r8d,al
  2067df:	48 8d 7d 80          	lea    rdi,[rbp-0x80]
  2067e3:	4c 8b 8d 70 fb ff ff 	mov    r9,QWORD PTR [rbp-0x490]
  2067ea:	48 89 b5 00 fb ff ff 	mov    QWORD PTR [rbp-0x500],rsi
  2067f1:	4c 89 ce             	mov    rsi,r9
  2067f4:	48 89 8d f8 fa ff ff 	mov    QWORD PTR [rbp-0x508],rcx
  2067fb:	44 89 c1             	mov    ecx,r8d
  2067fe:	e8 2d 3e 00 00       	call   20a630 <InStream(ReadError)_readInt>
  206803:	66 83 7d 80 00       	cmp    WORD PTR [rbp-0x80],0x0
  206808:	74 27                	je     206831 <Elf_openFile+0x501>
  20680a:	66 8b 45 80          	mov    ax,WORD PTR [rbp-0x80]
  20680e:	48 8b bd 70 fb ff ff 	mov    rdi,QWORD PTR [rbp-0x490]
  206815:	66 89 85 f6 fa ff ff 	mov    WORD PTR [rbp-0x50a],ax
  20681c:	e8 2f dc ff ff       	call   204450 <__zig_return_error>
  206821:	66 8b 85 f6 fa ff ff 	mov    ax,WORD PTR [rbp-0x50a]
  206828:	48 81 c4 20 09 00 00 	add    rsp,0x920
  20682f:	5d                   	pop    rbp
  206830:	c3                   	ret    
  206831:	0f b7 45 82          	movzx  eax,WORD PTR [rbp-0x7e]
  206835:	66 89 c1             	mov    cx,ax
  206838:	83 e8 02             	sub    eax,0x2
  20683b:	66 89 8d f4 fa ff ff 	mov    WORD PTR [rbp-0x50c],cx
  206842:	89 85 f0 fa ff ff    	mov    DWORD PTR [rbp-0x510],eax
  206848:	0f 84 ee 00 00 00    	je     20693c <Elf_openFile+0x60c>
  20684e:	eb 00                	jmp    206850 <Elf_openFile+0x520>
  206850:	66 8b 85 f4 fa ff ff 	mov    ax,WORD PTR [rbp-0x50c]
  206857:	0f b7 c8             	movzx  ecx,ax
  20685a:	83 e9 03             	sub    ecx,0x3
  20685d:	89 8d ec fa ff ff    	mov    DWORD PTR [rbp-0x514],ecx
  206863:	0f 84 df 00 00 00    	je     206948 <Elf_openFile+0x618>
  206869:	eb 00                	jmp    20686b <Elf_openFile+0x53b>
  20686b:	66 8b 85 f4 fa ff ff 	mov    ax,WORD PTR [rbp-0x50c]
  206872:	0f b7 c8             	movzx  ecx,ax
  206875:	83 e9 08             	sub    ecx,0x8
  206878:	89 8d e8 fa ff ff    	mov    DWORD PTR [rbp-0x518],ecx
  20687e:	0f 84 ce 00 00 00    	je     206952 <Elf_openFile+0x622>
  206884:	eb 00                	jmp    206886 <Elf_openFile+0x556>
  206886:	66 8b 85 f4 fa ff ff 	mov    ax,WORD PTR [rbp-0x50c]
  20688d:	0f b7 c8             	movzx  ecx,ax
  206890:	83 e9 14             	sub    ecx,0x14
  206893:	89 8d e4 fa ff ff    	mov    DWORD PTR [rbp-0x51c],ecx
  206899:	0f 84 bd 00 00 00    	je     20695c <Elf_openFile+0x62c>
  20689f:	eb 00                	jmp    2068a1 <Elf_openFile+0x571>
  2068a1:	66 8b 85 f4 fa ff ff 	mov    ax,WORD PTR [rbp-0x50c]
  2068a8:	0f b7 c8             	movzx  ecx,ax
  2068ab:	83 e9 28             	sub    ecx,0x28
  2068ae:	89 8d e0 fa ff ff    	mov    DWORD PTR [rbp-0x520],ecx
  2068b4:	0f 84 ac 00 00 00    	je     206966 <Elf_openFile+0x636>
  2068ba:	eb 00                	jmp    2068bc <Elf_openFile+0x58c>
  2068bc:	66 8b 85 f4 fa ff ff 	mov    ax,WORD PTR [rbp-0x50c]
  2068c3:	0f b7 c8             	movzx  ecx,ax
  2068c6:	83 e9 2a             	sub    ecx,0x2a
  2068c9:	89 8d dc fa ff ff    	mov    DWORD PTR [rbp-0x524],ecx
  2068cf:	0f 84 9b 00 00 00    	je     206970 <Elf_openFile+0x640>
  2068d5:	eb 00                	jmp    2068d7 <Elf_openFile+0x5a7>
  2068d7:	66 8b 85 f4 fa ff ff 	mov    ax,WORD PTR [rbp-0x50c]
  2068de:	0f b7 c8             	movzx  ecx,ax
  2068e1:	83 e9 32             	sub    ecx,0x32
  2068e4:	89 8d d8 fa ff ff    	mov    DWORD PTR [rbp-0x528],ecx
  2068ea:	0f 84 8a 00 00 00    	je     20697a <Elf_openFile+0x64a>
  2068f0:	eb 00                	jmp    2068f2 <Elf_openFile+0x5c2>
  2068f2:	66 8b 85 f4 fa ff ff 	mov    ax,WORD PTR [rbp-0x50c]
  2068f9:	0f b7 c8             	movzx  ecx,ax
  2068fc:	83 e9 3e             	sub    ecx,0x3e
  2068ff:	89 8d d4 fa ff ff    	mov    DWORD PTR [rbp-0x52c],ecx
  206905:	74 7d                	je     206984 <Elf_openFile+0x654>
  206907:	eb 00                	jmp    206909 <Elf_openFile+0x5d9>
  206909:	66 8b 85 f4 fa ff ff 	mov    ax,WORD PTR [rbp-0x50c]
  206910:	0f b7 c8             	movzx  ecx,ax
  206913:	81 e9 b7 00 00 00    	sub    ecx,0xb7
  206919:	89 8d d0 fa ff ff    	mov    DWORD PTR [rbp-0x530],ecx
  20691f:	74 6d                	je     20698e <Elf_openFile+0x65e>
  206921:	eb 00                	jmp    206923 <Elf_openFile+0x5f3>
            0x28 => Arch.Arm,
            0x2A => Arch.SuperH,
            0x32 => Arch.IA_64,
            0x3E => Arch.x86_64,
            0xb7 => Arch.AArch64,
            else => return error.InvalidFormat,
  206923:	48 8b bd 70 fb ff ff 	mov    rdi,QWORD PTR [rbp-0x490]
  20692a:	e8 21 db ff ff       	call   204450 <__zig_return_error>
  20692f:	66 b8 1f 00          	mov    ax,0x1f
  206933:	48 81 c4 20 09 00 00 	add    rsp,0x920
  20693a:	5d                   	pop    rbp
  20693b:	c3                   	ret    
  20693c:	31 c0                	xor    eax,eax
  20693e:	88 c1                	mov    cl,al
        elf.arch = switch (try in.readInt(elf.endian, u16)) {
  206940:	88 8d cf fa ff ff    	mov    BYTE PTR [rbp-0x531],cl
  206946:	eb 50                	jmp    206998 <Elf_openFile+0x668>
  206948:	b0 01                	mov    al,0x1
  20694a:	88 85 cf fa ff ff    	mov    BYTE PTR [rbp-0x531],al
  206950:	eb 46                	jmp    206998 <Elf_openFile+0x668>
  206952:	b0 02                	mov    al,0x2
  206954:	88 85 cf fa ff ff    	mov    BYTE PTR [rbp-0x531],al
  20695a:	eb 3c                	jmp    206998 <Elf_openFile+0x668>
  20695c:	b0 03                	mov    al,0x3
  20695e:	88 85 cf fa ff ff    	mov    BYTE PTR [rbp-0x531],al
  206964:	eb 32                	jmp    206998 <Elf_openFile+0x668>
  206966:	b0 04                	mov    al,0x4
  206968:	88 85 cf fa ff ff    	mov    BYTE PTR [rbp-0x531],al
  20696e:	eb 28                	jmp    206998 <Elf_openFile+0x668>
  206970:	b0 05                	mov    al,0x5
  206972:	88 85 cf fa ff ff    	mov    BYTE PTR [rbp-0x531],al
  206978:	eb 1e                	jmp    206998 <Elf_openFile+0x668>
  20697a:	b0 06                	mov    al,0x6
  20697c:	88 85 cf fa ff ff    	mov    BYTE PTR [rbp-0x531],al
  206982:	eb 14                	jmp    206998 <Elf_openFile+0x668>
  206984:	b0 07                	mov    al,0x7
  206986:	88 85 cf fa ff ff    	mov    BYTE PTR [rbp-0x531],al
  20698c:	eb 0a                	jmp    206998 <Elf_openFile+0x668>
  20698e:	b0 08                	mov    al,0x8
  206990:	88 85 cf fa ff ff    	mov    BYTE PTR [rbp-0x531],al
  206996:	eb 00                	jmp    206998 <Elf_openFile+0x668>
  206998:	8a 85 cf fa ff ff    	mov    al,BYTE PTR [rbp-0x531]
  20699e:	48 8d 8d 70 ff ff ff 	lea    rcx,[rbp-0x90]
  2069a5:	24 0f                	and    al,0xf
  2069a7:	48 8b 95 00 fb ff ff 	mov    rdx,QWORD PTR [rbp-0x500]
  2069ae:	88 02                	mov    BYTE PTR [rdx],al
        };

        const elf_version = try in.readInt(elf.endian, u32);
  2069b0:	48 8b 95 f0 fb ff ff 	mov    rdx,QWORD PTR [rbp-0x410]
  2069b7:	48 8b b5 18 fc ff ff 	mov    rsi,QWORD PTR [rbp-0x3e8]
  2069be:	8a 46 0a             	mov    al,BYTE PTR [rsi+0xa]
  2069c1:	0f b6 f8             	movzx  edi,al
  2069c4:	48 8d b5 70 ff ff ff 	lea    rsi,[rbp-0x90]
  2069cb:	89 bd c8 fa ff ff    	mov    DWORD PTR [rbp-0x538],edi
  2069d1:	48 89 f7             	mov    rdi,rsi
  2069d4:	48 8b b5 70 fb ff ff 	mov    rsi,QWORD PTR [rbp-0x490]
  2069db:	44 8b 85 c8 fa ff ff 	mov    r8d,DWORD PTR [rbp-0x538]
  2069e2:	48 89 8d c0 fa ff ff 	mov    QWORD PTR [rbp-0x540],rcx
  2069e9:	44 89 c1             	mov    ecx,r8d
  2069ec:	e8 4f 3d 00 00       	call   20a740 <InStream(ReadError)_readInt.15>
  2069f1:	66 83 bd 70 ff ff ff 	cmp    WORD PTR [rbp-0x90],0x0
  2069f8:	00 
  2069f9:	74 2a                	je     206a25 <Elf_openFile+0x6f5>
  2069fb:	66 8b 85 70 ff ff ff 	mov    ax,WORD PTR [rbp-0x90]
  206a02:	48 8b bd 70 fb ff ff 	mov    rdi,QWORD PTR [rbp-0x490]
  206a09:	66 89 85 be fa ff ff 	mov    WORD PTR [rbp-0x542],ax
  206a10:	e8 3b da ff ff       	call   204450 <__zig_return_error>
  206a15:	66 8b 85 be fa ff ff 	mov    ax,WORD PTR [rbp-0x542]
  206a1c:	48 81 c4 20 09 00 00 	add    rsp,0x920
  206a23:	5d                   	pop    rbp
  206a24:	c3                   	ret    
  206a25:	8b 85 74 ff ff ff    	mov    eax,DWORD PTR [rbp-0x8c]
  206a2b:	89 85 e4 fb ff ff    	mov    DWORD PTR [rbp-0x41c],eax
        if (elf_version != 1) return error.InvalidFormat;
  206a31:	83 bd e4 fb ff ff 01 	cmp    DWORD PTR [rbp-0x41c],0x1
  206a38:	74 19                	je     206a53 <Elf_openFile+0x723>
  206a3a:	48 8b bd 70 fb ff ff 	mov    rdi,QWORD PTR [rbp-0x490]
  206a41:	e8 0a da ff ff       	call   204450 <__zig_return_error>
  206a46:	66 b8 1f 00          	mov    ax,0x1f
  206a4a:	48 81 c4 20 09 00 00 	add    rsp,0x920
  206a51:	5d                   	pop    rbp
  206a52:	c3                   	ret    
  206a53:	eb 00                	jmp    206a55 <Elf_openFile+0x725>

        if (elf.is_64) {
  206a55:	48 8b 85 18 fc ff ff 	mov    rax,QWORD PTR [rbp-0x3e8]
  206a5c:	f6 40 09 01          	test   BYTE PTR [rax+0x9],0x1
  206a60:	75 05                	jne    206a67 <Elf_openFile+0x737>
  206a62:	e9 b8 01 00 00       	jmp    206c1f <Elf_openFile+0x8ef>
  206a67:	48 8d 85 58 ff ff ff 	lea    rax,[rbp-0xa8]
            elf.entry_addr = try in.readInt(elf.endian, u64);
  206a6e:	48 8b 8d 18 fc ff ff 	mov    rcx,QWORD PTR [rbp-0x3e8]
  206a75:	48 83 c1 10          	add    rcx,0x10
  206a79:	48 8b 95 f0 fb ff ff 	mov    rdx,QWORD PTR [rbp-0x410]
  206a80:	48 8b b5 18 fc ff ff 	mov    rsi,QWORD PTR [rbp-0x3e8]
  206a87:	40 8a 7e 0a          	mov    dil,BYTE PTR [rsi+0xa]
  206a8b:	44 0f b6 c7          	movzx  r8d,dil
  206a8f:	48 8d bd 58 ff ff ff 	lea    rdi,[rbp-0xa8]
  206a96:	48 8b b5 70 fb ff ff 	mov    rsi,QWORD PTR [rbp-0x490]
  206a9d:	48 89 8d b0 fa ff ff 	mov    QWORD PTR [rbp-0x550],rcx
  206aa4:	44 89 c1             	mov    ecx,r8d
  206aa7:	48 89 85 a8 fa ff ff 	mov    QWORD PTR [rbp-0x558],rax
  206aae:	e8 9d 3d 00 00       	call   20a850 <InStream(ReadError)_readInt.16>
  206ab3:	66 83 bd 58 ff ff ff 	cmp    WORD PTR [rbp-0xa8],0x0
  206aba:	00 
  206abb:	74 2a                	je     206ae7 <Elf_openFile+0x7b7>
  206abd:	66 8b 85 58 ff ff ff 	mov    ax,WORD PTR [rbp-0xa8]
  206ac4:	48 8b bd 70 fb ff ff 	mov    rdi,QWORD PTR [rbp-0x490]
  206acb:	66 89 85 a6 fa ff ff 	mov    WORD PTR [rbp-0x55a],ax
  206ad2:	e8 79 d9 ff ff       	call   204450 <__zig_return_error>
  206ad7:	66 8b 85 a6 fa ff ff 	mov    ax,WORD PTR [rbp-0x55a]
  206ade:	48 81 c4 20 09 00 00 	add    rsp,0x920
  206ae5:	5d                   	pop    rbp
  206ae6:	c3                   	ret    
  206ae7:	48 8d 85 38 ff ff ff 	lea    rax,[rbp-0xc8]
  206aee:	48 8b 8d 60 ff ff ff 	mov    rcx,QWORD PTR [rbp-0xa0]
  206af5:	48 8b 95 b0 fa ff ff 	mov    rdx,QWORD PTR [rbp-0x550]
  206afc:	48 89 0a             	mov    QWORD PTR [rdx],rcx
            elf.program_header_offset = try in.readInt(elf.endian, u64);
  206aff:	48 8b 8d 18 fc ff ff 	mov    rcx,QWORD PTR [rbp-0x3e8]
  206b06:	48 83 c1 18          	add    rcx,0x18
  206b0a:	48 8b 95 f0 fb ff ff 	mov    rdx,QWORD PTR [rbp-0x410]
  206b11:	48 8b b5 18 fc ff ff 	mov    rsi,QWORD PTR [rbp-0x3e8]
  206b18:	40 8a 7e 0a          	mov    dil,BYTE PTR [rsi+0xa]
  206b1c:	44 0f b6 c7          	movzx  r8d,dil
  206b20:	48 8d bd 38 ff ff ff 	lea    rdi,[rbp-0xc8]
  206b27:	48 8b b5 70 fb ff ff 	mov    rsi,QWORD PTR [rbp-0x490]
  206b2e:	48 89 8d 98 fa ff ff 	mov    QWORD PTR [rbp-0x568],rcx
  206b35:	44 89 c1             	mov    ecx,r8d
  206b38:	48 89 85 90 fa ff ff 	mov    QWORD PTR [rbp-0x570],rax
  206b3f:	e8 0c 3d 00 00       	call   20a850 <InStream(ReadError)_readInt.16>
  206b44:	66 83 bd 38 ff ff ff 	cmp    WORD PTR [rbp-0xc8],0x0
  206b4b:	00 
  206b4c:	74 2a                	je     206b78 <Elf_openFile+0x848>
  206b4e:	66 8b 85 38 ff ff ff 	mov    ax,WORD PTR [rbp-0xc8]
  206b55:	48 8b bd 70 fb ff ff 	mov    rdi,QWORD PTR [rbp-0x490]
  206b5c:	66 89 85 8e fa ff ff 	mov    WORD PTR [rbp-0x572],ax
  206b63:	e8 e8 d8 ff ff       	call   204450 <__zig_return_error>
  206b68:	66 8b 85 8e fa ff ff 	mov    ax,WORD PTR [rbp-0x572]
  206b6f:	48 81 c4 20 09 00 00 	add    rsp,0x920
  206b76:	5d                   	pop    rbp
  206b77:	c3                   	ret    
  206b78:	48 8d 85 18 ff ff ff 	lea    rax,[rbp-0xe8]
  206b7f:	48 8b 8d 40 ff ff ff 	mov    rcx,QWORD PTR [rbp-0xc0]
  206b86:	48 8b 95 98 fa ff ff 	mov    rdx,QWORD PTR [rbp-0x568]
  206b8d:	48 89 0a             	mov    QWORD PTR [rdx],rcx
            elf.section_header_offset = try in.readInt(elf.endian, u64);
  206b90:	48 8b 8d 18 fc ff ff 	mov    rcx,QWORD PTR [rbp-0x3e8]
  206b97:	48 83 c1 20          	add    rcx,0x20
  206b9b:	48 8b 95 f0 fb ff ff 	mov    rdx,QWORD PTR [rbp-0x410]
  206ba2:	48 8b b5 18 fc ff ff 	mov    rsi,QWORD PTR [rbp-0x3e8]
  206ba9:	40 8a 7e 0a          	mov    dil,BYTE PTR [rsi+0xa]
  206bad:	44 0f b6 c7          	movzx  r8d,dil
  206bb1:	48 8d bd 18 ff ff ff 	lea    rdi,[rbp-0xe8]
  206bb8:	48 8b b5 70 fb ff ff 	mov    rsi,QWORD PTR [rbp-0x490]
  206bbf:	48 89 8d 80 fa ff ff 	mov    QWORD PTR [rbp-0x580],rcx
  206bc6:	44 89 c1             	mov    ecx,r8d
  206bc9:	48 89 85 78 fa ff ff 	mov    QWORD PTR [rbp-0x588],rax
  206bd0:	e8 7b 3c 00 00       	call   20a850 <InStream(ReadError)_readInt.16>
  206bd5:	66 83 bd 18 ff ff ff 	cmp    WORD PTR [rbp-0xe8],0x0
  206bdc:	00 
  206bdd:	74 2a                	je     206c09 <Elf_openFile+0x8d9>
  206bdf:	66 8b 85 18 ff ff ff 	mov    ax,WORD PTR [rbp-0xe8]
  206be6:	48 8b bd 70 fb ff ff 	mov    rdi,QWORD PTR [rbp-0x490]
  206bed:	66 89 85 76 fa ff ff 	mov    WORD PTR [rbp-0x58a],ax
  206bf4:	e8 57 d8 ff ff       	call   204450 <__zig_return_error>
  206bf9:	66 8b 85 76 fa ff ff 	mov    ax,WORD PTR [rbp-0x58a]
  206c00:	48 81 c4 20 09 00 00 	add    rsp,0x920
  206c07:	5d                   	pop    rbp
  206c08:	c3                   	ret    
  206c09:	48 8b 85 20 ff ff ff 	mov    rax,QWORD PTR [rbp-0xe0]
  206c10:	48 8b 8d 80 fa ff ff 	mov    rcx,QWORD PTR [rbp-0x580]
  206c17:	48 89 01             	mov    QWORD PTR [rcx],rax
        if (elf.is_64) {
  206c1a:	e9 d8 01 00 00       	jmp    206df7 <Elf_openFile+0xac7>
  206c1f:	48 8d 85 00 ff ff ff 	lea    rax,[rbp-0x100]
        } else {
            elf.entry_addr = u64(try in.readInt(elf.endian, u32));
  206c26:	48 8b 8d 18 fc ff ff 	mov    rcx,QWORD PTR [rbp-0x3e8]
  206c2d:	48 83 c1 10          	add    rcx,0x10
  206c31:	48 8b 95 f0 fb ff ff 	mov    rdx,QWORD PTR [rbp-0x410]
  206c38:	48 8b b5 18 fc ff ff 	mov    rsi,QWORD PTR [rbp-0x3e8]
  206c3f:	40 8a 7e 0a          	mov    dil,BYTE PTR [rsi+0xa]
  206c43:	44 0f b6 c7          	movzx  r8d,dil
  206c47:	48 8d bd 00 ff ff ff 	lea    rdi,[rbp-0x100]
  206c4e:	48 8b b5 70 fb ff ff 	mov    rsi,QWORD PTR [rbp-0x490]
  206c55:	48 89 8d 68 fa ff ff 	mov    QWORD PTR [rbp-0x598],rcx
  206c5c:	44 89 c1             	mov    ecx,r8d
  206c5f:	48 89 85 60 fa ff ff 	mov    QWORD PTR [rbp-0x5a0],rax
  206c66:	e8 d5 3a 00 00       	call   20a740 <InStream(ReadError)_readInt.15>
  206c6b:	66 83 bd 00 ff ff ff 	cmp    WORD PTR [rbp-0x100],0x0
  206c72:	00 
  206c73:	74 2a                	je     206c9f <Elf_openFile+0x96f>
  206c75:	66 8b 85 00 ff ff ff 	mov    ax,WORD PTR [rbp-0x100]
  206c7c:	48 8b bd 70 fb ff ff 	mov    rdi,QWORD PTR [rbp-0x490]
  206c83:	66 89 85 5e fa ff ff 	mov    WORD PTR [rbp-0x5a2],ax
  206c8a:	e8 c1 d7 ff ff       	call   204450 <__zig_return_error>
  206c8f:	66 8b 85 5e fa ff ff 	mov    ax,WORD PTR [rbp-0x5a2]
  206c96:	48 81 c4 20 09 00 00 	add    rsp,0x920
  206c9d:	5d                   	pop    rbp
  206c9e:	c3                   	ret    
  206c9f:	48 8d 85 f0 fe ff ff 	lea    rax,[rbp-0x110]
  206ca6:	8b 8d 04 ff ff ff    	mov    ecx,DWORD PTR [rbp-0xfc]
  206cac:	89 ca                	mov    edx,ecx
  206cae:	48 8b b5 68 fa ff ff 	mov    rsi,QWORD PTR [rbp-0x598]
  206cb5:	48 89 16             	mov    QWORD PTR [rsi],rdx
            elf.program_header_offset = u64(try in.readInt(elf.endian, u32));
  206cb8:	48 8b 95 18 fc ff ff 	mov    rdx,QWORD PTR [rbp-0x3e8]
  206cbf:	48 83 c2 18          	add    rdx,0x18
  206cc3:	48 8b bd f0 fb ff ff 	mov    rdi,QWORD PTR [rbp-0x410]
  206cca:	4c 8b 85 18 fc ff ff 	mov    r8,QWORD PTR [rbp-0x3e8]
  206cd1:	45 8a 48 0a          	mov    r9b,BYTE PTR [r8+0xa]
  206cd5:	41 0f b6 c9          	movzx  ecx,r9b
  206cd9:	4c 8d 85 f0 fe ff ff 	lea    r8,[rbp-0x110]
  206ce0:	48 89 bd 50 fa ff ff 	mov    QWORD PTR [rbp-0x5b0],rdi
  206ce7:	4c 89 c7             	mov    rdi,r8
  206cea:	48 8b b5 70 fb ff ff 	mov    rsi,QWORD PTR [rbp-0x490]
  206cf1:	4c 8b 85 50 fa ff ff 	mov    r8,QWORD PTR [rbp-0x5b0]
  206cf8:	48 89 95 48 fa ff ff 	mov    QWORD PTR [rbp-0x5b8],rdx
  206cff:	4c 89 c2             	mov    rdx,r8
  206d02:	48 89 85 40 fa ff ff 	mov    QWORD PTR [rbp-0x5c0],rax
  206d09:	e8 32 3a 00 00       	call   20a740 <InStream(ReadError)_readInt.15>
  206d0e:	66 83 bd f0 fe ff ff 	cmp    WORD PTR [rbp-0x110],0x0
  206d15:	00 
  206d16:	74 2a                	je     206d42 <Elf_openFile+0xa12>
  206d18:	66 8b 85 f0 fe ff ff 	mov    ax,WORD PTR [rbp-0x110]
  206d1f:	48 8b bd 70 fb ff ff 	mov    rdi,QWORD PTR [rbp-0x490]
  206d26:	66 89 85 3e fa ff ff 	mov    WORD PTR [rbp-0x5c2],ax
  206d2d:	e8 1e d7 ff ff       	call   204450 <__zig_return_error>
  206d32:	66 8b 85 3e fa ff ff 	mov    ax,WORD PTR [rbp-0x5c2]
  206d39:	48 81 c4 20 09 00 00 	add    rsp,0x920
  206d40:	5d                   	pop    rbp
  206d41:	c3                   	ret    
  206d42:	48 8d 85 e0 fe ff ff 	lea    rax,[rbp-0x120]
  206d49:	8b 8d f4 fe ff ff    	mov    ecx,DWORD PTR [rbp-0x10c]
  206d4f:	89 ca                	mov    edx,ecx
  206d51:	48 8b b5 48 fa ff ff 	mov    rsi,QWORD PTR [rbp-0x5b8]
  206d58:	48 89 16             	mov    QWORD PTR [rsi],rdx
            elf.section_header_offset = u64(try in.readInt(elf.endian, u32));
  206d5b:	48 8b 95 18 fc ff ff 	mov    rdx,QWORD PTR [rbp-0x3e8]
  206d62:	48 83 c2 20          	add    rdx,0x20
  206d66:	48 8b bd f0 fb ff ff 	mov    rdi,QWORD PTR [rbp-0x410]
  206d6d:	4c 8b 85 18 fc ff ff 	mov    r8,QWORD PTR [rbp-0x3e8]
  206d74:	45 8a 48 0a          	mov    r9b,BYTE PTR [r8+0xa]
  206d78:	41 0f b6 c9          	movzx  ecx,r9b
  206d7c:	4c 8d 85 e0 fe ff ff 	lea    r8,[rbp-0x120]
  206d83:	48 89 bd 30 fa ff ff 	mov    QWORD PTR [rbp-0x5d0],rdi
  206d8a:	4c 89 c7             	mov    rdi,r8
  206d8d:	48 8b b5 70 fb ff ff 	mov    rsi,QWORD PTR [rbp-0x490]
  206d94:	4c 8b 85 30 fa ff ff 	mov    r8,QWORD PTR [rbp-0x5d0]
  206d9b:	48 89 95 28 fa ff ff 	mov    QWORD PTR [rbp-0x5d8],rdx
  206da2:	4c 89 c2             	mov    rdx,r8
  206da5:	48 89 85 20 fa ff ff 	mov    QWORD PTR [rbp-0x5e0],rax
  206dac:	e8 8f 39 00 00       	call   20a740 <InStream(ReadError)_readInt.15>
  206db1:	66 83 bd e0 fe ff ff 	cmp    WORD PTR [rbp-0x120],0x0
  206db8:	00 
  206db9:	74 2a                	je     206de5 <Elf_openFile+0xab5>
  206dbb:	66 8b 85 e0 fe ff ff 	mov    ax,WORD PTR [rbp-0x120]
  206dc2:	48 8b bd 70 fb ff ff 	mov    rdi,QWORD PTR [rbp-0x490]
  206dc9:	66 89 85 1e fa ff ff 	mov    WORD PTR [rbp-0x5e2],ax
  206dd0:	e8 7b d6 ff ff       	call   204450 <__zig_return_error>
  206dd5:	66 8b 85 1e fa ff ff 	mov    ax,WORD PTR [rbp-0x5e2]
  206ddc:	48 81 c4 20 09 00 00 	add    rsp,0x920
  206de3:	5d                   	pop    rbp
  206de4:	c3                   	ret    
  206de5:	8b 85 e4 fe ff ff    	mov    eax,DWORD PTR [rbp-0x11c]
  206deb:	89 c1                	mov    ecx,eax
  206ded:	48 8b 95 28 fa ff ff 	mov    rdx,QWORD PTR [rbp-0x5d8]
  206df4:	48 89 0a             	mov    QWORD PTR [rdx],rcx
  206df7:	b8 04 00 00 00       	mov    eax,0x4
  206dfc:	89 c2                	mov    edx,eax
        }

        // skip over flags
        try elf.in_file.seekForward(4);
  206dfe:	48 8b 8d 18 fc ff ff 	mov    rcx,QWORD PTR [rbp-0x3e8]
  206e05:	48 8b 31             	mov    rsi,QWORD PTR [rcx]
  206e08:	48 8b bd 70 fb ff ff 	mov    rdi,QWORD PTR [rbp-0x490]
  206e0f:	e8 fc 36 00 00       	call   20a510 <File_seekForward>
  206e14:	66 89 85 d6 fe ff ff 	mov    WORD PTR [rbp-0x12a],ax
  206e1b:	66 83 bd d6 fe ff ff 	cmp    WORD PTR [rbp-0x12a],0x0
  206e22:	00 
  206e23:	74 2a                	je     206e4f <Elf_openFile+0xb1f>
  206e25:	66 8b 85 d6 fe ff ff 	mov    ax,WORD PTR [rbp-0x12a]
  206e2c:	48 8b bd 70 fb ff ff 	mov    rdi,QWORD PTR [rbp-0x490]
