
./zig-cache/test:     file format elf64-x86-64


Disassembly of section .text:

0000000000203000 <assert>:
/// In Debug and ReleaseSafe modes, calls to this function are always
/// generated, and the `unreachable` statement triggers a panic.
/// In ReleaseFast and ReleaseSmall modes, calls to this function can be
/// optimized away.
pub fn assert(ok: bool) void {
    if (!ok) {
  203000:	40 f6 c7 01          	test   dil,0x1
  203004:	74 01                	je     203007 <assert+0x7>
pub fn assert(ok: bool) void {
  203006:	c3                   	ret    
        // In ReleaseFast test mode, we still want assert(false) to crash, so
        // we insert an explicit call to @panic instead of unreachable.
        // TODO we should use `assertOrPanic` in tests and remove this logic.
        if (builtin.is_test) {
            @panic("assertion failure");
  203007:	50                   	push   rax
  203008:	e8 c3 01 00 00       	call   2031d0 <panic>
  20300d:	0f 1f 00             	nop    DWORD PTR [rax]

0000000000203010 <loop_opt>:
}

var gValue: u32 = undefined;

pub fn setValue(v: u32) void {
    gValue = v;
  203010:	55                   	push   rbp
  203011:	41 57                	push   r15
  203013:	41 56                	push   r14
  203015:	53                   	push   rbx
  203016:	48 83 ec 58          	sub    rsp,0x58
  20301a:	c7 05 f4 ff 00 00 33 	mov    DWORD PTR [rip+0xfff4],0x6a0d7333        # 213018 <gValue>
  203021:	73 0d 6a 

pub fn waitWhileExpectedValue(expectedValue: u32, stallCount: u64) u32 {
    var count = stallCount;
    var val: u32 = undefined;

    val = @atomicLoad(u32, &gValue, AtomicOrder.SeqCst);
  203024:	8b 2d ee ff 00 00    	mov    ebp,DWORD PTR [rip+0xffee]        # 213018 <gValue>
    while ((val == expectedValue) and (count > 0)) {
  20302a:	83 fd 01             	cmp    ebp,0x1
  20302d:	75 50                	jne    20307f <loop_opt+0x6f>
  20302f:	48 c7 c0 19 fc ff ff 	mov    rax,0xfffffffffffffc19
  203036:	66 2e 0f 1f 84 00 00 	nop    WORD PTR cs:[rax+rax*1+0x0]
  20303d:	00 00 00 
        val = @atomicLoad(u32, &gValue, AtomicOrder.SeqCst);
  203040:	8b 2d d2 ff 00 00    	mov    ebp,DWORD PTR [rip+0xffd2]        # 213018 <gValue>
    while ((val == expectedValue) and (count > 0)) {
  203046:	48 85 c0             	test   rax,rax
  203049:	74 09                	je     203054 <loop_opt+0x44>
  20304b:	48 83 c0 01          	add    rax,0x1
  20304f:	83 fd 01             	cmp    ebp,0x1
  203052:	74 ec                	je     203040 <loop_opt+0x30>
  203054:	83 fd 01             	cmp    ebp,0x1
        count -= 1;
    }
    while (val == expectedValue) {
  203057:	75 26                	jne    20307f <loop_opt+0x6f>
  203059:	48 8d 3d b8 ff 00 00 	lea    rdi,[rip+0xffb8]        # 213018 <gValue>
        : "rcx", "r11"
    );
}

pub fn syscall4(number: usize, arg1: usize, arg2: usize, arg3: usize, arg4: usize) usize {
    return asm volatile ("syscall"
  203060:	b8 ca 00 00 00       	mov    eax,0xca
  203065:	be 00 00 00 00       	mov    esi,0x0
  20306a:	ba 01 00 00 00       	mov    edx,0x1
  20306f:	45 31 d2             	xor    r10d,r10d
  203072:	0f 05                	syscall 
        futex_wait(&gValue, expectedValue);
        val = @atomicLoad(u32, &gValue, AtomicOrder.SeqCst);
  203074:	8b 2d 9e ff 00 00    	mov    ebp,DWORD PTR [rip+0xff9e]        # 213018 <gValue>
    while (val == expectedValue) {
  20307a:	83 fd 01             	cmp    ebp,0x1
  20307d:	74 e1                	je     203060 <loop_opt+0x50>
    if (stderr_stream) |st| {
  20307f:	4c 8b 3d 82 1f 01 00 	mov    r15,QWORD PTR [rip+0x11f82]        # 215008 <stderr_stream>
  203086:	4d 85 ff             	test   r15,r15
  203089:	74 09                	je     203094 <loop_opt+0x84>
        pub const Error = WriteError;

        writeFn: fn (self: *Self, bytes: []const u8) Error!void,

        pub fn print(self: *Self, comptime format: []const u8, args: ...) !void {
            return std.fmt.format(self, Error, self.writeFn, format, args);
  20308b:	4c 8b 35 7e ff 00 00 	mov    r14,QWORD PTR [rip+0xff7e]        # 213010 <stderr_file_out_stream+0x8>
  203092:	eb 34                	jmp    2030c8 <loop_opt+0xb8>
        stderr_file = try io.getStdErr();
  203094:	48 8d 05 65 ff 00 00 	lea    rax,[rip+0xff65]        # 213000 <stderr_file>
        stderr_file_out_stream = io.FileOutStream.init(&stderr_file);
  20309b:	48 89 05 66 ff 00 00 	mov    QWORD PTR [rip+0xff66],rax        # 213008 <stderr_file_out_stream>
  2030a2:	4c 8d 35 f7 19 00 00 	lea    r14,[rip+0x19f7]        # 204aa0 <FileOutStream_writeFn>
  2030a9:	4c 89 35 60 ff 00 00 	mov    QWORD PTR [rip+0xff60],r14        # 213010 <stderr_file_out_stream+0x8>
        stderr_file = try io.getStdErr();
  2030b0:	c7 05 46 ff 00 00 02 	mov    DWORD PTR [rip+0xff46],0x2        # 213000 <stderr_file>
  2030b7:	00 00 00 
        stderr_file_out_stream = io.FileOutStream.init(&stderr_file);
  2030ba:	4c 8d 3d 4f ff 00 00 	lea    r15,[rip+0xff4f]        # 213010 <stderr_file_out_stream+0x8>
        stderr_stream = st;
  2030c1:	4c 89 3d 40 1f 01 00 	mov    QWORD PTR [rip+0x11f40],r15        # 215008 <stderr_stream>
    inline for (fmt) |c, i| {
        switch (state) {
            State.Start => switch (c) {
                '{' => {
                    if (start_index < i) {
                        try output(context, fmt[start_index..i]);
  2030c8:	48 8d 35 d9 11 01 00 	lea    rsi,[rip+0x111d9]        # 2142a8 <__unnamed_1>
  2030cf:	4c 89 ff             	mov    rdi,r15
  2030d2:	41 ff d6             	call   r14
  2030d5:	66 85 c0             	test   ax,ax
  2030d8:	0f 85 d8 00 00 00    	jne    2031b6 <loop_opt+0x1a6>
    comptime Errors: type,
    output: fn (@typeOf(context), []const u8) Errors!void,
) Errors!void {
    // max_int_digits accounts for the minus sign. when printing an unsigned
    // number we don't need to do that.
    var buf: [max_int_digits - 1]u8 = undefined;
  2030de:	c5 fc 10 05 39 f4 ff 	vmovups ymm0,YMMWORD PTR [rip+0xfffffffffffff439]        # 20251f <__unnamed_2+0x1f>
  2030e5:	ff 
  2030e6:	c5 fc 11 44 24 2f    	vmovups YMMWORD PTR [rsp+0x2f],ymm0
  2030ec:	c5 fc 10 05 0c f4 ff 	vmovups ymm0,YMMWORD PTR [rip+0xfffffffffffff40c]        # 202500 <__unnamed_2>
  2030f3:	ff 
  2030f4:	c5 fc 11 44 24 10    	vmovups YMMWORD PTR [rsp+0x10],ymm0
    var a = if (@sizeOf(@typeOf(value)) == 1) u8(value) else value;
    var index: usize = buf.len;

    while (true) {
        const digit = a % base;
  2030fa:	89 e8                	mov    eax,ebp
  2030fc:	b9 cd cc cc cc       	mov    ecx,0xcccccccd
  203101:	48 0f af c8          	imul   rcx,rax
  203105:	48 c1 e9 23          	shr    rcx,0x23
  203109:	01 c9                	add    ecx,ecx
  20310b:	8d 0c 89             	lea    ecx,[rcx+rcx*4]
  20310e:	89 e8                	mov    eax,ebp
  203110:	29 c8                	sub    eax,ecx
    return value;
}

fn digitToChar(digit: u8, uppercase: bool) u8 {
    return switch (digit) {
        0...9 => digit + '0',
  203112:	b1 30                	mov    cl,0x30
  203114:	3c 0a                	cmp    al,0xa
  203116:	72 02                	jb     20311a <loop_opt+0x10a>
  203118:	b1 57                	mov    cl,0x57
  20311a:	00 c1                	add    cl,al
        buf[index] = digitToChar(@intCast(u8, digit), uppercase);
  20311c:	88 4c 24 4f          	mov    BYTE PTR [rsp+0x4f],cl
        if (a == 0) break;
  203120:	83 fd 0a             	cmp    ebp,0xa
  203123:	73 0c                	jae    203131 <loop_opt+0x121>
  203125:	48 8d 4c 24 4f       	lea    rcx,[rsp+0x4f]
  20312a:	b8 40 00 00 00       	mov    eax,0x40
  20312f:	eb 51                	jmp    203182 <loop_opt+0x172>
  203131:	b8 40 00 00 00       	mov    eax,0x40
  203136:	b9 cd cc cc cc       	mov    ecx,0xcccccccd
  20313b:	89 ea                	mov    edx,ebp
  20313d:	0f 1f 00             	nop    DWORD PTR [rax]
        a /= base;
  203140:	89 d6                	mov    esi,edx
  203142:	48 0f af f1          	imul   rsi,rcx
  203146:	48 c1 ee 23          	shr    rsi,0x23
        const digit = a % base;
  20314a:	48 89 f7             	mov    rdi,rsi
  20314d:	48 0f af f9          	imul   rdi,rcx
  203151:	48 c1 ef 23          	shr    rdi,0x23
  203155:	01 ff                	add    edi,edi
  203157:	8d 1c bf             	lea    ebx,[rdi+rdi*4]
  20315a:	89 f7                	mov    edi,esi
  20315c:	29 df                	sub    edi,ebx
        0...9 => digit + '0',
  20315e:	b3 30                	mov    bl,0x30
  203160:	40 80 ff 0a          	cmp    dil,0xa
  203164:	72 02                	jb     203168 <loop_opt+0x158>
  203166:	b3 57                	mov    bl,0x57
  203168:	40 00 fb             	add    bl,dil
        buf[index] = digitToChar(@intCast(u8, digit), uppercase);
  20316b:	88 5c 04 0e          	mov    BYTE PTR [rsp+rax*1+0xe],bl
        if (a == 0) break;
  20316f:	48 83 c0 ff          	add    rax,0xffffffffffffffff
  203173:	83 fa 63             	cmp    edx,0x63
  203176:	89 f2                	mov    edx,esi
  203178:	77 c6                	ja     203140 <loop_opt+0x130>
        const padded_buf = buf[index - padding ..];
  20317a:	48 8d 0c 04          	lea    rcx,[rsp+rax*1]
  20317e:	48 83 c1 0f          	add    rcx,0xf
  203182:	ba 41 00 00 00       	mov    edx,0x41
  203187:	48 29 c2             	sub    rdx,rax
  20318a:	48 89 0c 24          	mov    QWORD PTR [rsp],rcx
  20318e:	48 89 54 24 08       	mov    QWORD PTR [rsp+0x8],rdx
  203193:	48 89 e6             	mov    rsi,rsp
        return output(context, padded_buf);
  203196:	4c 89 ff             	mov    rdi,r15
  203199:	c5 f8 77             	vzeroupper 
  20319c:	41 ff d6             	call   r14
                    try formatType(args[next_arg], fmt[0..0], context, Errors, output);
  20319f:	66 85 c0             	test   ax,ax
  2031a2:	75 0d                	jne    2031b1 <loop_opt+0x1a1>
        try output(context, fmt[start_index..]);
  2031a4:	48 8d 35 0d 11 01 00 	lea    rsi,[rip+0x1110d]        # 2142b8 <__unnamed_3>
  2031ab:	4c 89 ff             	mov    rdi,r15
  2031ae:	41 ff d6             	call   r14
    var prng = std.rand.DefaultPrng.init(12345678);
    setValue(prng.random.scalar(u32));

    var new_value = waitWhileExpectedValue(1, 1000);
    warn("new_value={}\n", new_value);
    assert(new_value != 1);
  2031b1:	83 fd 01             	cmp    ebp,0x1
    if (!ok) {
  2031b4:	74 0d                	je     2031c3 <loop_opt+0x1b3>
test "loop_opt" {
  2031b6:	31 c0                	xor    eax,eax
  2031b8:	48 83 c4 58          	add    rsp,0x58
  2031bc:	5b                   	pop    rbx
  2031bd:	41 5e                	pop    r14
  2031bf:	41 5f                	pop    r15
  2031c1:	5d                   	pop    rbp
  2031c2:	c3                   	ret    
            @panic("assertion failure");
  2031c3:	e8 08 00 00 00       	call   2031d0 <panic>
  2031c8:	0f 1f 84 00 00 00 00 	nop    DWORD PTR [rax+rax*1+0x0]
  2031cf:	00 

00000000002031d0 <panic>:
        // TODO: fix panic in zen.
        builtin.Os.freestanding, builtin.Os.zen => {
            while (true) {}
        },
        else => {
            const first_trace_addr = @ptrToInt(@returnAddress());
  2031d0:	48 83 ec 18          	sub    rsp,0x18
  2031d4:	48 8b 44 24 18       	mov    rax,QWORD PTR [rsp+0x18]
            std.debug.panicExtra(error_return_trace, first_trace_addr, "{}", msg);
  2031d9:	48 89 44 24 08       	mov    QWORD PTR [rsp+0x8],rax
  2031de:	c6 44 24 10 01       	mov    BYTE PTR [rsp+0x10],0x1
  2031e3:	48 8d 7c 24 08       	lea    rdi,[rsp+0x8]
  2031e8:	e8 03 00 00 00       	call   2031f0 <panicExtra>
  2031ed:	0f 1f 00             	nop    DWORD PTR [rax]

00000000002031f0 <panicExtra>:
    panicExtra(null, first_trace_addr, format, args);
}

var panicking: u8 = 0; // TODO make this a bool

pub fn panicExtra(trace: ?*const builtin.StackTrace, first_trace_addr: ?usize, comptime format: []const u8, args: ...) noreturn {
  2031f0:	41 57                	push   r15
  2031f2:	41 56                	push   r14
  2031f4:	53                   	push   rbx
  2031f5:	48 83 ec 10          	sub    rsp,0x10
  2031f9:	b0 01                	mov    al,0x1
    @setCold(true);

    if (@atomicRmw(u8, &panicking, builtin.AtomicRmwOp.Xchg, 1, builtin.AtomicOrder.SeqCst) == 1) {
  2031fb:	86 05 ff 1d 01 00    	xchg   BYTE PTR [rip+0x11dff],al        # 215000 <panicking>
  203201:	49 89 fe             	mov    r14,rdi
  203204:	3c 01                	cmp    al,0x1
  203206:	74 7e                	je     203286 <panicExtra+0x96>
    if (stderr_stream) |st| {
  203208:	48 8b 1d f9 1d 01 00 	mov    rbx,QWORD PTR [rip+0x11df9]        # 215008 <stderr_stream>
  20320f:	48 85 db             	test   rbx,rbx
  203212:	75 36                	jne    20324a <panicExtra+0x5a>
        stderr_file = try io.getStdErr();
  203214:	48 8d 05 e5 fd 00 00 	lea    rax,[rip+0xfde5]        # 213000 <stderr_file>
        stderr_file_out_stream = io.FileOutStream.init(&stderr_file);
  20321b:	48 89 05 e6 fd 00 00 	mov    QWORD PTR [rip+0xfde6],rax        # 213008 <stderr_file_out_stream>
  203222:	4c 8d 3d 77 18 00 00 	lea    r15,[rip+0x1877]        # 204aa0 <FileOutStream_writeFn>
  203229:	4c 89 3d e0 fd 00 00 	mov    QWORD PTR [rip+0xfde0],r15        # 213010 <stderr_file_out_stream+0x8>
        stderr_file = try io.getStdErr();
  203230:	c7 05 c6 fd 00 00 02 	mov    DWORD PTR [rip+0xfdc6],0x2        # 213000 <stderr_file>
  203237:	00 00 00 
        stderr_file_out_stream = io.FileOutStream.init(&stderr_file);
  20323a:	48 8d 1d cf fd 00 00 	lea    rbx,[rip+0xfdcf]        # 213010 <stderr_file_out_stream+0x8>
        stderr_stream = st;
  203241:	48 89 1d c0 1d 01 00 	mov    QWORD PTR [rip+0x11dc0],rbx        # 215008 <stderr_stream>
  203248:	eb 07                	jmp    203251 <panicExtra+0x61>
  20324a:	4c 8b 3d bf fd 00 00 	mov    r15,QWORD PTR [rip+0xfdbf]        # 213010 <stderr_file_out_stream+0x8>
                const casted_value = ([]const u8)(value);
  203251:	c5 f8 10 05 2f 10 01 	vmovups xmm0,XMMWORD PTR [rip+0x1102f]        # 214288 <__unnamed_4>
  203258:	00 
  203259:	c5 f8 29 04 24       	vmovaps XMMWORD PTR [rsp],xmm0
  20325e:	48 89 e6             	mov    rsi,rsp
                return output(context, casted_value);
  203261:	48 89 df             	mov    rdi,rbx
  203264:	41 ff d7             	call   r15
                    try formatType(args[next_arg], fmt[0..0], context, Errors, output);
  203267:	66 85 c0             	test   ax,ax
  20326a:	75 1a                	jne    203286 <panicExtra+0x96>
        try output(context, fmt[start_index..]);
  20326c:	48 8d 35 25 10 01 00 	lea    rsi,[rip+0x11025]        # 214298 <__unnamed_5>
  203273:	48 89 df             	mov    rdi,rbx
  203276:	41 ff d7             	call   r15
        // we would want to return here instead of calling abort, so that the thread
        // which first called panic can finish printing a stack trace.
        os.abort();
    }
    const stderr = getStderrStream() catch os.abort();
    stderr.print(format ++ "\n", args) catch os.abort();
  203279:	66 85 c0             	test   ax,ax
  20327c:	75 08                	jne    203286 <panicExtra+0x96>
    if (trace) |t| {
        dumpStackTrace(t);
    }
    dumpCurrentStackTrace(first_trace_addr);
  20327e:	4c 89 f7             	mov    rdi,r14
  203281:	e8 0a 01 00 00       	call   203390 <dumpCurrentStackTrace>
  203286:	e8 05 00 00 00       	call   203290 <abort>
  20328b:	0f 1f 44 00 00       	nop    DWORD PTR [rax+rax*1+0x0]

0000000000203290 <abort>:
pub const SIG_DFL = @intToPtr(extern fn (i32) void, 0);
pub const SIG_IGN = @intToPtr(extern fn (i32) void, 1);
pub const empty_sigset = []usize{0} ** sigset_t.len;

pub fn raise(sig: i32) usize {
    var set: sigset_t = undefined;
  203290:	50                   	push   rax
  203291:	c5 fc 10 05 7f dc ff 	vmovups ymm0,YMMWORD PTR [rip+0xffffffffffffdc7f]        # 200f18 <__unnamed_6+0x60>
  203298:	ff 
  203299:	c5 fc 11 44 24 e0    	vmovups YMMWORD PTR [rsp-0x20],ymm0
  20329f:	c5 fc 10 0d 51 dc ff 	vmovups ymm1,YMMWORD PTR [rip+0xffffffffffffdc51]        # 200ef8 <__unnamed_6+0x40>
  2032a6:	ff 
  2032a7:	c5 fc 11 4c 24 c0    	vmovups YMMWORD PTR [rsp-0x40],ymm1
  2032ad:	c5 fc 10 15 23 dc ff 	vmovups ymm2,YMMWORD PTR [rip+0xffffffffffffdc23]        # 200ed8 <__unnamed_6+0x20>
  2032b4:	ff 
  2032b5:	c5 fc 11 54 24 a0    	vmovups YMMWORD PTR [rsp-0x60],ymm2
  2032bb:	c5 fc 10 1d f5 db ff 	vmovups ymm3,YMMWORD PTR [rip+0xffffffffffffdbf5]        # 200eb8 <__unnamed_6>
  2032c2:	ff 
  2032c3:	c5 fc 11 5c 24 80    	vmovups YMMWORD PTR [rsp-0x80],ymm3
        : "rcx", "r11"
    );
}

pub fn syscall4(number: usize, arg1: usize, arg2: usize, arg3: usize, arg4: usize) usize {
    return asm volatile ("syscall"
  2032c9:	4c 8d 0d 50 cf ff ff 	lea    r9,[rip+0xffffffffffffcf50]        # 200220 <app_mask>
  2032d0:	4c 8d 44 24 80       	lea    r8,[rsp-0x80]
  2032d5:	b8 0e 00 00 00       	mov    eax,0xe
  2032da:	bf 00 00 00 00       	mov    edi,0x0
  2032df:	41 ba 08 00 00 00    	mov    r10d,0x8
  2032e5:	4c 89 ce             	mov    rsi,r9
  2032e8:	4c 89 c2             	mov    rdx,r8
  2032eb:	0f 05                	syscall 
    return asm volatile ("syscall"
  2032ed:	b8 ba 00 00 00       	mov    eax,0xba
  2032f2:	0f 05                	syscall 
    blockAppSignals(&set);
    const tid = @intCast(i32, syscall0(SYS_gettid));
    const ret = syscall2(SYS_tkill, @intCast(usize, tid), @intCast(usize, sig));
  2032f4:	48 63 f8             	movsxd rdi,eax
    return asm volatile ("syscall"
  2032f7:	b8 c8 00 00 00       	mov    eax,0xc8
  2032fc:	be 06 00 00 00       	mov    esi,0x6
  203301:	0f 05                	syscall 
    return asm volatile ("syscall"
  203303:	b8 0e 00 00 00       	mov    eax,0xe
  203308:	bf 02 00 00 00       	mov    edi,0x2
  20330d:	ba 00 00 00 00       	mov    edx,0x0
  203312:	41 ba 08 00 00 00    	mov    r10d,0x8
  203318:	4c 89 c6             	mov    rsi,r8
  20331b:	0f 05                	syscall 
    var set: sigset_t = undefined;
  20331d:	c5 fc 11 44 24 e0    	vmovups YMMWORD PTR [rsp-0x20],ymm0
  203323:	c5 fc 11 4c 24 c0    	vmovups YMMWORD PTR [rsp-0x40],ymm1
  203329:	c5 fc 11 54 24 a0    	vmovups YMMWORD PTR [rsp-0x60],ymm2
  20332f:	c5 fc 11 5c 24 80    	vmovups YMMWORD PTR [rsp-0x80],ymm3
  203335:	b8 0e 00 00 00       	mov    eax,0xe
  20333a:	bf 00 00 00 00       	mov    edi,0x0
  20333f:	41 ba 08 00 00 00    	mov    r10d,0x8
  203345:	4c 89 ce             	mov    rsi,r9
  203348:	4c 89 c2             	mov    rdx,r8
  20334b:	0f 05                	syscall 
    return asm volatile ("syscall"
  20334d:	b8 ba 00 00 00       	mov    eax,0xba
  203352:	0f 05                	syscall 
    const ret = syscall2(SYS_tkill, @intCast(usize, tid), @intCast(usize, sig));
  203354:	48 63 f8             	movsxd rdi,eax
    return asm volatile ("syscall"
  203357:	b8 c8 00 00 00       	mov    eax,0xc8
  20335c:	be 09 00 00 00       	mov    esi,0x9
  203361:	0f 05                	syscall 
    return asm volatile ("syscall"
  203363:	b8 0e 00 00 00       	mov    eax,0xe
  203368:	bf 02 00 00 00       	mov    edi,0x2
  20336d:	31 d2                	xor    edx,edx
  20336f:	41 ba 08 00 00 00    	mov    r10d,0x8
  203375:	4c 89 c6             	mov    rsi,r8
  203378:	0f 05                	syscall 
  20337a:	66 0f 1f 44 00 00    	nop    WORD PTR [rax+rax*1+0x0]
    }
    switch (builtin.os) {
        Os.linux, Os.macosx, Os.ios => {
            _ = posix.raise(posix.SIGABRT);
            _ = posix.raise(posix.SIGKILL);
            while (true) {}
  203380:	eb fe                	jmp    203380 <abort+0xf0>
  203382:	66 66 66 66 66 2e 0f 	data16 data16 data16 data16 nop WORD PTR cs:[rax+rax*1+0x0]
  203389:	1f 84 00 00 00 00 00 

0000000000203390 <dumpCurrentStackTrace>:
pub fn dumpCurrentStackTrace(start_addr: ?usize) void {
  203390:	55                   	push   rbp
  203391:	48 89 e5             	mov    rbp,rsp
  203394:	41 57                	push   r15
  203396:	41 56                	push   r14
  203398:	41 55                	push   r13
  20339a:	41 54                	push   r12
  20339c:	53                   	push   rbx
  20339d:	48 83 e4 e0          	and    rsp,0xffffffffffffffe0
  2033a1:	48 81 ec a0 01 00 00 	sub    rsp,0x1a0
  2033a8:	49 89 fe             	mov    r14,rdi
    if (stderr_stream) |st| {
  2033ab:	48 8b 1d 56 1c 01 00 	mov    rbx,QWORD PTR [rip+0x11c56]        # 215008 <stderr_stream>
  2033b2:	48 85 db             	test   rbx,rbx
  2033b5:	74 39                	je     2033f0 <dumpCurrentStackTrace+0x60>
    if (self_debug_info) |info| {
  2033b7:	48 8b 05 52 1c 01 00 	mov    rax,QWORD PTR [rip+0x11c52]        # 215010 <self_debug_info>
  2033be:	48 89 44 24 28       	mov    QWORD PTR [rsp+0x28],rax
  2033c3:	48 85 c0             	test   rax,rax
  2033c6:	74 6d                	je     203435 <dumpCurrentStackTrace+0xa5>
// TODO make thread safe
var debug_info_allocator: ?*mem.Allocator = null;
var debug_info_direct_allocator: std.heap.DirectAllocator = undefined;
var debug_info_arena_allocator: std.heap.ArenaAllocator = undefined;
fn getDebugInfoAllocator() *mem.Allocator {
    if (debug_info_allocator) |a| return a;
  2033c8:	48 83 3d 48 1c 01 00 	cmp    QWORD PTR [rip+0x11c48],0x0        # 215018 <debug_info_allocator>
  2033cf:	00 
  2033d0:	0f 84 4e 01 00 00    	je     203524 <dumpCurrentStackTrace+0x194>
    }
}

/// TODO make this go through libc when we have it
pub fn getEnvPosix(key: []const u8) ?[]const u8 {
    for (posix_environ_raw) |ptr| {
  2033d6:	48 8b 05 ab fc 00 00 	mov    rax,QWORD PTR [rip+0xfcab]        # 213088 <posix_environ_raw+0x8>
  2033dd:	48 85 c0             	test   rax,rax
  2033e0:	48 89 5c 24 70       	mov    QWORD PTR [rsp+0x70],rbx
  2033e5:	0f 85 a4 01 00 00    	jne    20358f <dumpCurrentStackTrace+0x1ff>
  2033eb:	e9 5d 02 00 00       	jmp    20364d <dumpCurrentStackTrace+0x2bd>
        stderr_file = try io.getStdErr();
  2033f0:	48 8d 05 09 fc 00 00 	lea    rax,[rip+0xfc09]        # 213000 <stderr_file>
        stderr_file_out_stream = io.FileOutStream.init(&stderr_file);
  2033f7:	48 89 05 0a fc 00 00 	mov    QWORD PTR [rip+0xfc0a],rax        # 213008 <stderr_file_out_stream>
  2033fe:	48 8d 05 9b 16 00 00 	lea    rax,[rip+0x169b]        # 204aa0 <FileOutStream_writeFn>
  203405:	48 89 05 04 fc 00 00 	mov    QWORD PTR [rip+0xfc04],rax        # 213010 <stderr_file_out_stream+0x8>
        stderr_file = try io.getStdErr();
  20340c:	c7 05 ea fb 00 00 02 	mov    DWORD PTR [rip+0xfbea],0x2        # 213000 <stderr_file>
  203413:	00 00 00 
        stderr_file_out_stream = io.FileOutStream.init(&stderr_file);
  203416:	48 8d 1d f3 fb 00 00 	lea    rbx,[rip+0xfbf3]        # 213010 <stderr_file_out_stream+0x8>
        stderr_stream = st;
  20341d:	48 89 1d e4 1b 01 00 	mov    QWORD PTR [rip+0x11be4],rbx        # 215008 <stderr_stream>
    if (self_debug_info) |info| {
  203424:	48 8b 05 e5 1b 01 00 	mov    rax,QWORD PTR [rip+0x11be5]        # 215010 <self_debug_info>
  20342b:	48 89 44 24 28       	mov    QWORD PTR [rsp+0x28],rax
  203430:	48 85 c0             	test   rax,rax
  203433:	75 93                	jne    2033c8 <dumpCurrentStackTrace+0x38>
    if (debug_info_allocator) |a| return a;
  203435:	48 8b 35 dc 1b 01 00 	mov    rsi,QWORD PTR [rip+0x11bdc]        # 215018 <debug_info_allocator>
  20343c:	48 85 f6             	test   rsi,rsi
  20343f:	75 56                	jne    203497 <dumpCurrentStackTrace+0x107>

    debug_info_direct_allocator = std.heap.DirectAllocator.init();
  203441:	c5 fc 10 05 77 10 01 	vmovups ymm0,YMMWORD PTR [rip+0x11077]        # 2144c0 <__unnamed_7>
  203448:	00 
  203449:	c5 fc 11 05 cf fb 00 	vmovups YMMWORD PTR [rip+0xfbcf],ymm0        # 213020 <debug_info_direct_allocator>
  203450:	00 
    debug_info_arena_allocator = std.heap.ArenaAllocator.init(&debug_info_direct_allocator.allocator);
  203451:	c5 fa 6f 05 87 10 01 	vmovdqu xmm0,XMMWORD PTR [rip+0x11087]        # 2144e0 <__unnamed_8>
  203458:	00 
  203459:	c5 fa 7f 05 df fb 00 	vmovdqu XMMWORD PTR [rip+0xfbdf],xmm0        # 213040 <debug_info_arena_allocator>
  203460:	00 
    debug_info_direct_allocator = std.heap.DirectAllocator.init();
  203461:	48 8d 05 b8 fb 00 00 	lea    rax,[rip+0xfbb8]        # 213020 <debug_info_direct_allocator>
    debug_info_arena_allocator = std.heap.ArenaAllocator.init(&debug_info_direct_allocator.allocator);
  203468:	48 8b 0d 81 10 01 00 	mov    rcx,QWORD PTR [rip+0x11081]        # 2144f0 <__unnamed_8+0x10>
  20346f:	48 89 0d da fb 00 00 	mov    QWORD PTR [rip+0xfbda],rcx        # 213050 <debug_info_arena_allocator+0x10>
  203476:	48 8d 35 c3 fb 00 00 	lea    rsi,[rip+0xfbc3]        # 213040 <debug_info_arena_allocator>
  20347d:	48 89 05 d4 fb 00 00 	mov    QWORD PTR [rip+0xfbd4],rax        # 213058 <debug_info_arena_allocator+0x18>
  203484:	c5 f9 ef c0          	vpxor  xmm0,xmm0,xmm0
  203488:	c5 fe 7f 05 d0 fb 00 	vmovdqu YMMWORD PTR [rip+0xfbd0],ymm0        # 213060 <debug_info_arena_allocator+0x20>
  20348f:	00 
    debug_info_allocator = &debug_info_arena_allocator.allocator;
  203490:	48 89 35 81 1b 01 00 	mov    QWORD PTR [rip+0x11b81],rsi        # 215018 <debug_info_allocator>
  203497:	48 8d 7c 24 30       	lea    rdi,[rsp+0x30]
        const info = try openSelfDebugInfo(getDebugInfoAllocator());
  20349c:	c5 f8 77             	vzeroupper 
  20349f:	e8 ec 16 00 00       	call   204b90 <openSelfDebugInfo>
  2034a4:	4c 0f bf 7c 24 30    	movsx  r15,WORD PTR [rsp+0x30]
  2034aa:	4d 85 ff             	test   r15,r15
  2034ad:	74 56                	je     203505 <dumpCurrentStackTrace+0x175>
  2034af:	4c 8b 33             	mov    r14,QWORD PTR [rbx]
                        try output(context, fmt[start_index..i]);
  2034b2:	48 8d 35 87 0e 01 00 	lea    rsi,[rip+0x10e87]        # 214340 <__unnamed_9>
  2034b9:	48 89 df             	mov    rdi,rbx
  2034bc:	41 ff d6             	call   r14
  2034bf:	66 85 c0             	test   ax,ax
  2034c2:	0f 85 f9 14 00 00    	jne    2049c1 <dumpCurrentStackTrace+0x1631>
        stderr.print("Unable to dump stack trace: Unable to open debug info: {}\n", @errorName(err)) catch return;
  2034c8:	49 c1 e7 04          	shl    r15,0x4
  2034cc:	48 8d 05 2d 0b 01 00 	lea    rax,[rip+0x10b2d]        # 214000 <raw+0xf68>
                const casted_value = ([]const u8)(value);
  2034d3:	c4 c1 7a 6f 04 07    	vmovdqu xmm0,XMMWORD PTR [r15+rax*1]
  2034d9:	c5 f9 7f 44 24 30    	vmovdqa XMMWORD PTR [rsp+0x30],xmm0
  2034df:	48 8d 74 24 30       	lea    rsi,[rsp+0x30]
                return output(context, casted_value);
  2034e4:	48 89 df             	mov    rdi,rbx
  2034e7:	41 ff d6             	call   r14
                    try formatType(args[next_arg], fmt[0..0], context, Errors, output);
  2034ea:	66 85 c0             	test   ax,ax
  2034ed:	0f 85 ce 14 00 00    	jne    2049c1 <dumpCurrentStackTrace+0x1631>
        try output(context, fmt[start_index..]);
  2034f3:	48 8d 35 56 0e 01 00 	lea    rsi,[rip+0x10e56]        # 214350 <__unnamed_10>
  2034fa:	48 89 df             	mov    rdi,rbx
  2034fd:	41 ff d6             	call   r14
  203500:	e9 bc 14 00 00       	jmp    2049c1 <dumpCurrentStackTrace+0x1631>
        const info = try openSelfDebugInfo(getDebugInfoAllocator());
  203505:	48 8b 44 24 38       	mov    rax,QWORD PTR [rsp+0x38]
  20350a:	48 89 44 24 28       	mov    QWORD PTR [rsp+0x28],rax
        self_debug_info = info;
  20350f:	48 89 05 fa 1a 01 00 	mov    QWORD PTR [rip+0x11afa],rax        # 215010 <self_debug_info>
    if (debug_info_allocator) |a| return a;
  203516:	48 83 3d fa 1a 01 00 	cmp    QWORD PTR [rip+0x11afa],0x0        # 215018 <debug_info_allocator>
  20351d:	00 
  20351e:	0f 85 b2 fe ff ff    	jne    2033d6 <dumpCurrentStackTrace+0x46>
    debug_info_direct_allocator = std.heap.DirectAllocator.init();
  203524:	c5 fc 10 05 94 0f 01 	vmovups ymm0,YMMWORD PTR [rip+0x10f94]        # 2144c0 <__unnamed_7>
  20352b:	00 
  20352c:	c5 fc 11 05 ec fa 00 	vmovups YMMWORD PTR [rip+0xfaec],ymm0        # 213020 <debug_info_direct_allocator>
  203533:	00 
    debug_info_arena_allocator = std.heap.ArenaAllocator.init(&debug_info_direct_allocator.allocator);
  203534:	c5 fa 6f 05 a4 0f 01 	vmovdqu xmm0,XMMWORD PTR [rip+0x10fa4]        # 2144e0 <__unnamed_8>
  20353b:	00 
  20353c:	c5 fa 7f 05 fc fa 00 	vmovdqu XMMWORD PTR [rip+0xfafc],xmm0        # 213040 <debug_info_arena_allocator>
  203543:	00 
    debug_info_direct_allocator = std.heap.DirectAllocator.init();
  203544:	48 8d 05 d5 fa 00 00 	lea    rax,[rip+0xfad5]        # 213020 <debug_info_direct_allocator>
    debug_info_arena_allocator = std.heap.ArenaAllocator.init(&debug_info_direct_allocator.allocator);
  20354b:	48 8b 0d 9e 0f 01 00 	mov    rcx,QWORD PTR [rip+0x10f9e]        # 2144f0 <__unnamed_8+0x10>
  203552:	48 89 0d f7 fa 00 00 	mov    QWORD PTR [rip+0xfaf7],rcx        # 213050 <debug_info_arena_allocator+0x10>
  203559:	48 8d 0d e0 fa 00 00 	lea    rcx,[rip+0xfae0]        # 213040 <debug_info_arena_allocator>
  203560:	48 89 05 f1 fa 00 00 	mov    QWORD PTR [rip+0xfaf1],rax        # 213058 <debug_info_arena_allocator+0x18>
  203567:	c5 f9 ef c0          	vpxor  xmm0,xmm0,xmm0
  20356b:	c5 fe 7f 05 ed fa 00 	vmovdqu YMMWORD PTR [rip+0xfaed],ymm0        # 213060 <debug_info_arena_allocator+0x20>
  203572:	00 
    debug_info_allocator = &debug_info_arena_allocator.allocator;
  203573:	48 89 0d 9e 1a 01 00 	mov    QWORD PTR [rip+0x11a9e],rcx        # 215018 <debug_info_allocator>
  20357a:	48 8b 05 07 fb 00 00 	mov    rax,QWORD PTR [rip+0xfb07]        # 213088 <posix_environ_raw+0x8>
  203581:	48 85 c0             	test   rax,rax
  203584:	48 89 5c 24 70       	mov    QWORD PTR [rsp+0x70],rbx
  203589:	0f 84 be 00 00 00    	je     20364d <dumpCurrentStackTrace+0x2bd>
  20358f:	48 8b 0d ea fa 00 00 	mov    rcx,QWORD PTR [rip+0xfaea]        # 213080 <posix_environ_raw>
  203596:	31 d2                	xor    edx,edx
  203598:	0f 1f 84 00 00 00 00 	nop    DWORD PTR [rax+rax*1+0x0]
  20359f:	00 
  2035a0:	48 8b 34 d1          	mov    rsi,QWORD PTR [rcx+rdx*8]
  2035a4:	48 c7 c7 f1 ff ff ff 	mov    rdi,0xfffffffffffffff1
        var line_i: usize = 0;
        while (ptr[line_i] != 0 and ptr[line_i] != '=') : (line_i += 1) {}
  2035ab:	8a 5c 3e 0f          	mov    bl,BYTE PTR [rsi+rdi*1+0xf]
  2035af:	84 db                	test   bl,bl
  2035b1:	74 1f                	je     2035d2 <dumpCurrentStackTrace+0x242>
  2035b3:	66 66 66 66 2e 0f 1f 	data16 data16 data16 nop WORD PTR cs:[rax+rax*1+0x0]
  2035ba:	84 00 00 00 00 00 
  2035c0:	80 fb 3d             	cmp    bl,0x3d
  2035c3:	74 0d                	je     2035d2 <dumpCurrentStackTrace+0x242>
  2035c5:	48 83 c7 01          	add    rdi,0x1
  2035c9:	0f b6 5c 3e 0f       	movzx  ebx,BYTE PTR [rsi+rdi*1+0xf]
  2035ce:	84 db                	test   bl,bl
  2035d0:	75 ee                	jne    2035c0 <dumpCurrentStackTrace+0x230>
    assert(lessThan(u8, "", "a"));
}

/// Compares two slices and returns whether they are equal.
pub fn eql(comptime T: type, a: []const T, b: []const T) bool {
    if (a.len != b.len) return false;
  2035d2:	48 85 ff             	test   rdi,rdi
  2035d5:	75 69                	jne    203640 <dumpCurrentStackTrace+0x2b0>
    for (a) |item, index| {
        if (b[index] != item) return false;
  2035d7:	80 3e 5a             	cmp    BYTE PTR [rsi],0x5a
  2035da:	75 64                	jne    203640 <dumpCurrentStackTrace+0x2b0>
  2035dc:	80 7e 01 49          	cmp    BYTE PTR [rsi+0x1],0x49
  2035e0:	75 5e                	jne    203640 <dumpCurrentStackTrace+0x2b0>
  2035e2:	80 7e 02 47          	cmp    BYTE PTR [rsi+0x2],0x47
  2035e6:	75 58                	jne    203640 <dumpCurrentStackTrace+0x2b0>
  2035e8:	80 7e 03 5f          	cmp    BYTE PTR [rsi+0x3],0x5f
  2035ec:	75 52                	jne    203640 <dumpCurrentStackTrace+0x2b0>
  2035ee:	80 7e 04 44          	cmp    BYTE PTR [rsi+0x4],0x44
  2035f2:	75 4c                	jne    203640 <dumpCurrentStackTrace+0x2b0>
  2035f4:	80 7e 05 45          	cmp    BYTE PTR [rsi+0x5],0x45
  2035f8:	75 46                	jne    203640 <dumpCurrentStackTrace+0x2b0>
  2035fa:	80 7e 06 42          	cmp    BYTE PTR [rsi+0x6],0x42
  2035fe:	75 40                	jne    203640 <dumpCurrentStackTrace+0x2b0>
  203600:	80 7e 07 55          	cmp    BYTE PTR [rsi+0x7],0x55
  203604:	75 3a                	jne    203640 <dumpCurrentStackTrace+0x2b0>
  203606:	80 7e 08 47          	cmp    BYTE PTR [rsi+0x8],0x47
  20360a:	75 34                	jne    203640 <dumpCurrentStackTrace+0x2b0>
  20360c:	80 7e 09 5f          	cmp    BYTE PTR [rsi+0x9],0x5f
  203610:	75 2e                	jne    203640 <dumpCurrentStackTrace+0x2b0>
  203612:	80 7e 0a 43          	cmp    BYTE PTR [rsi+0xa],0x43
  203616:	75 28                	jne    203640 <dumpCurrentStackTrace+0x2b0>
  203618:	80 7e 0b 4f          	cmp    BYTE PTR [rsi+0xb],0x4f
  20361c:	75 22                	jne    203640 <dumpCurrentStackTrace+0x2b0>
  20361e:	80 7e 0c 4c          	cmp    BYTE PTR [rsi+0xc],0x4c
  203622:	75 1c                	jne    203640 <dumpCurrentStackTrace+0x2b0>
  203624:	80 7e 0d 4f          	cmp    BYTE PTR [rsi+0xd],0x4f
  203628:	75 16                	jne    203640 <dumpCurrentStackTrace+0x2b0>
  20362a:	80 7e 0e 52          	cmp    BYTE PTR [rsi+0xe],0x52
  20362e:	0f 84 44 14 00 00    	je     204a78 <dumpCurrentStackTrace+0x16e8>
  203634:	66 66 66 2e 0f 1f 84 	data16 data16 nop WORD PTR cs:[rax+rax*1+0x0]
  20363b:	00 00 00 00 00 
    for (posix_environ_raw) |ptr| {
  203640:	48 83 c2 01          	add    rdx,0x1
  203644:	48 39 c2             	cmp    rdx,rax
  203647:	0f 82 53 ff ff ff    	jb     2035a0 <dumpCurrentStackTrace+0x210>
    return syscall3(SYS_ioctl, @intCast(usize, fd), TIOCGWINSZ, @ptrToInt(&wsz)) == 0;
  20364d:	48 63 3d ac f9 00 00 	movsxd rdi,DWORD PTR [rip+0xf9ac]        # 213000 <stderr_file>
  203654:	48 8d 54 24 30       	lea    rdx,[rsp+0x30]
    return asm volatile ("syscall"
  203659:	b8 10 00 00 00       	mov    eax,0x10
  20365e:	be 13 54 00 00       	mov    esi,0x5413
  203663:	0f 05                	syscall 
  203665:	48 85 c0             	test   rax,rax
  203668:	0f 94 44 24 0f       	sete   BYTE PTR [rsp+0xf]
    if (start_addr) |addr| {
  20366d:	41 80 7e 08 01       	cmp    BYTE PTR [r14+0x8],0x1
  203672:	48 8b 74 24 28       	mov    rsi,QWORD PTR [rsp+0x28]
  203677:	75 0f                	jne    203688 <dumpCurrentStackTrace+0x2f8>
  203679:	49 8b 0e             	mov    rcx,QWORD PTR [r14]
  20367c:	b0 01                	mov    al,0x1
    while (fp != 0) : (fp = @intToPtr(*const usize, fp).*) {
  20367e:	48 85 ed             	test   rbp,rbp
  203681:	75 10                	jne    203693 <dumpCurrentStackTrace+0x303>
  203683:	e9 39 13 00 00       	jmp    2049c1 <dumpCurrentStackTrace+0x1631>
  203688:	31 c0                	xor    eax,eax
  20368a:	48 85 ed             	test   rbp,rbp
  20368d:	0f 84 2e 13 00 00    	je     2049c1 <dumpCurrentStackTrace+0x1631>
  203693:	48 89 ea             	mov    rdx,rbp
  203696:	c4 62 7d 59 25 69 cb 	vpbroadcastq ymm12,QWORD PTR [rip+0xffffffffffffcb69]        # 200208 <app_mask-0x18>
  20369d:	ff ff 
  20369f:	c4 62 7d 59 2d 98 cb 	vpbroadcastq ymm13,QWORD PTR [rip+0xffffffffffffcb98]        # 200240 <app_mask+0x20>
  2036a6:	ff ff 
  2036a8:	c5 7d 7f a4 24 00 01 	vmovdqa YMMWORD PTR [rsp+0x100],ymm12
  2036af:	00 00 
  2036b1:	c5 7d 7f ac 24 e0 00 	vmovdqa YMMWORD PTR [rsp+0xe0],ymm13
  2036b8:	00 00 
  2036ba:	48 89 8c 24 a8 00 00 	mov    QWORD PTR [rsp+0xa8],rcx
  2036c1:	00 
  2036c2:	48 89 74 24 28       	mov    QWORD PTR [rsp+0x28],rsi
  2036c7:	66 0f 1f 84 00 00 00 	nop    WORD PTR [rax+rax*1+0x0]
  2036ce:	00 00 
        const return_address = @intToPtr(*const usize, fp + @sizeOf(usize)).*;
  2036d0:	4c 8b 6a 08          	mov    r13,QWORD PTR [rdx+0x8]
                if (return_address == addr) {
  2036d4:	49 39 cd             	cmp    r13,rcx
        switch (addr_state) {
  2036d7:	74 17                	je     2036f0 <dumpCurrentStackTrace+0x360>
  2036d9:	f6 d0                	not    al
  2036db:	a8 01                	test   al,0x1
  2036dd:	b0 01                	mov    al,0x1
  2036df:	75 0f                	jne    2036f0 <dumpCurrentStackTrace+0x360>
    while (fp != 0) : (fp = @intToPtr(*const usize, fp).*) {
  2036e1:	48 8b 12             	mov    rdx,QWORD PTR [rdx]
  2036e4:	48 85 d2             	test   rdx,rdx
  2036e7:	75 e7                	jne    2036d0 <dumpCurrentStackTrace+0x340>
  2036e9:	e9 d3 12 00 00       	jmp    2049c1 <dumpCurrentStackTrace+0x1631>
  2036ee:	66 90                	xchg   ax,ax
  2036f0:	48 89 94 24 b0 00 00 	mov    QWORD PTR [rsp+0xb0],rdx
  2036f7:	00 
    var in_file_stream = io.FileInStream.init(&st.self_exe_file);
  2036f8:	48 89 b4 24 c8 00 00 	mov    QWORD PTR [rsp+0xc8],rsi
  2036ff:	00 
  203700:	48 8d 05 b9 5f 00 00 	lea    rax,[rip+0x5fb9]        # 2096c0 <FileInStream_readFn>
  203707:	48 89 84 24 d0 00 00 	mov    QWORD PTR [rsp+0xd0],rax
  20370e:	00 
        pub fn deinit(self: Self) void {
            self.allocator.free(self.items);
        }

        pub fn toSlice(self: Self) []align(A) T {
            return self.items[0..self.len];
  20370f:	48 8b 86 b8 00 00 00 	mov    rax,QWORD PTR [rsi+0xb8]
  203716:	48 89 44 24 78       	mov    QWORD PTR [rsp+0x78],rax
    for (st.compile_unit_list.toSlice()) |*compile_unit| {
  20371b:	48 85 c0             	test   rax,rax
  20371e:	0f 84 6c 04 00 00    	je     203b90 <dumpCurrentStackTrace+0x800>
  203724:	48 8b 44 24 28       	mov    rax,QWORD PTR [rsp+0x28]
  203729:	4c 8b 88 a8 00 00 00 	mov    r9,QWORD PTR [rax+0xa8]
  203730:	45 31 e4             	xor    r12d,r12d
  203733:	e9 08 02 00 00       	jmp    203940 <dumpCurrentStackTrace+0x5b0>
                result = (result << 8) | b;
            }
        },
        builtin.Endian.Little => {
            const ShiftType = math.Log2Int(T);
            for (bytes) |b, index| {
  203738:	48 89 c3             	mov    rbx,rax
  20373b:	48 83 e3 f0          	and    rbx,0xfffffffffffffff0
  20373f:	48 8d 73 f0          	lea    rsi,[rbx-0x10]
  203743:	48 89 f7             	mov    rdi,rsi
  203746:	48 c1 ef 04          	shr    rdi,0x4
  20374a:	44 8d 47 01          	lea    r8d,[rdi+0x1]
  20374e:	41 83 e0 01          	and    r8d,0x1
  203752:	48 85 f6             	test   rsi,rsi
  203755:	0f 84 bd 01 00 00    	je     203918 <dumpCurrentStackTrace+0x588>
  20375b:	49 8d 70 ff          	lea    rsi,[r8-0x1]
  20375f:	48 29 fe             	sub    rsi,rdi
  203762:	c5 f9 ef c0          	vpxor  xmm0,xmm0,xmm0
  203766:	31 ff                	xor    edi,edi
  203768:	c5 fd 6f 25 30 ca ff 	vmovdqa ymm4,YMMWORD PTR [rip+0xffffffffffffca30]        # 2001a0 <app_mask-0x80>
  20376f:	ff 
  203770:	c5 f1 ef c9          	vpxor  xmm1,xmm1,xmm1
  203774:	c5 e1 ef db          	vpxor  xmm3,xmm3,xmm3
  203778:	c5 e9 ef d2          	vpxor  xmm2,xmm2,xmm2
  20377c:	0f 1f 40 00          	nop    DWORD PTR [rax+0x0]
                result = result | (T(b) << @intCast(ShiftType, index * 8));
  203780:	c4 e2 7d 32 2c 39    	vpmovzxbq ymm5,DWORD PTR [rcx+rdi*1]
  203786:	c4 e2 7d 32 74 39 04 	vpmovzxbq ymm6,DWORD PTR [rcx+rdi*1+0x4]
  20378d:	c4 e2 7d 32 7c 39 08 	vpmovzxbq ymm7,DWORD PTR [rcx+rdi*1+0x8]
  203794:	c4 62 7d 32 44 39 0c 	vpmovzxbq ymm8,DWORD PTR [rcx+rdi*1+0xc]
  20379b:	c5 b5 73 f4 03       	vpsllq ymm9,ymm4,0x3
  2037a0:	c4 41 35 d4 d4       	vpaddq ymm10,ymm9,ymm12
  2037a5:	c4 41 35 db dd       	vpand  ymm11,ymm9,ymm13
  2037aa:	c4 41 2d db d5       	vpand  ymm10,ymm10,ymm13
  2037af:	c4 c2 d5 47 eb       	vpsllvq ymm5,ymm5,ymm11
  2037b4:	c5 d5 eb c0          	vpor   ymm0,ymm5,ymm0
  2037b8:	c4 c2 cd 47 ea       	vpsllvq ymm5,ymm6,ymm10
  2037bd:	c5 d5 eb c9          	vpor   ymm1,ymm5,ymm1
  2037c1:	c4 c2 c5 47 eb       	vpsllvq ymm5,ymm7,ymm11
  2037c6:	c5 d5 eb db          	vpor   ymm3,ymm5,ymm3
  2037ca:	c4 c2 bd 47 ea       	vpsllvq ymm5,ymm8,ymm10
  2037cf:	c4 e2 7d 32 74 39 10 	vpmovzxbq ymm6,DWORD PTR [rcx+rdi*1+0x10]
  2037d6:	c4 e2 7d 32 7c 39 14 	vpmovzxbq ymm7,DWORD PTR [rcx+rdi*1+0x14]
  2037dd:	c4 62 7d 32 44 39 18 	vpmovzxbq ymm8,DWORD PTR [rcx+rdi*1+0x18]
  2037e4:	c5 d5 eb d2          	vpor   ymm2,ymm5,ymm2
  2037e8:	c4 e2 7d 32 6c 39 1c 	vpmovzxbq ymm5,DWORD PTR [rcx+rdi*1+0x1c]
  2037ef:	c4 62 7d 59 15 40 ca 	vpbroadcastq ymm10,QWORD PTR [rip+0xffffffffffffca40]        # 200238 <app_mask+0x18>
  2037f6:	ff ff 
  2037f8:	c4 41 35 d4 d2       	vpaddq ymm10,ymm9,ymm10
  2037fd:	c4 62 7d 59 1d e2 c9 	vpbroadcastq ymm11,QWORD PTR [rip+0xffffffffffffc9e2]        # 2001e8 <app_mask-0x38>
  203804:	ff ff 
  203806:	c4 41 35 d4 cb       	vpaddq ymm9,ymm9,ymm11
  20380b:	c4 41 2d db d5       	vpand  ymm10,ymm10,ymm13
  203810:	c4 41 35 db cd       	vpand  ymm9,ymm9,ymm13
  203815:	c4 c2 cd 47 f2       	vpsllvq ymm6,ymm6,ymm10
  20381a:	c5 cd eb c0          	vpor   ymm0,ymm6,ymm0
  20381e:	c4 c2 c5 47 f1       	vpsllvq ymm6,ymm7,ymm9
  203823:	c5 cd eb c9          	vpor   ymm1,ymm6,ymm1
  203827:	c4 c2 bd 47 f2       	vpsllvq ymm6,ymm8,ymm10
  20382c:	c5 cd eb db          	vpor   ymm3,ymm6,ymm3
  203830:	c4 c2 d5 47 e9       	vpsllvq ymm5,ymm5,ymm9
  203835:	c5 d5 eb d2          	vpor   ymm2,ymm5,ymm2
            for (bytes) |b, index| {
  203839:	48 83 c7 20          	add    rdi,0x20
  20383d:	c4 c1 5d d4 e4       	vpaddq ymm4,ymm4,ymm12
  203842:	48 83 c6 02          	add    rsi,0x2
  203846:	0f 85 34 ff ff ff    	jne    203780 <dumpCurrentStackTrace+0x3f0>
  20384c:	4d 85 c0             	test   r8,r8
  20384f:	74 53                	je     2038a4 <dumpCurrentStackTrace+0x514>
                result = result | (T(b) << @intCast(ShiftType, index * 8));
  203851:	c4 e2 7d 32 6c 39 0c 	vpmovzxbq ymm5,DWORD PTR [rcx+rdi*1+0xc]
  203858:	c5 dd 73 f4 03       	vpsllq ymm4,ymm4,0x3
  20385d:	c4 c1 5d d4 f4       	vpaddq ymm6,ymm4,ymm12
  203862:	c4 c1 4d db f5       	vpand  ymm6,ymm6,ymm13
  203867:	c4 e2 d5 47 ee       	vpsllvq ymm5,ymm5,ymm6
  20386c:	c4 e2 7d 32 7c 39 08 	vpmovzxbq ymm7,DWORD PTR [rcx+rdi*1+0x8]
  203873:	c5 d5 eb d2          	vpor   ymm2,ymm5,ymm2
  203877:	c4 c1 5d db e5       	vpand  ymm4,ymm4,ymm13
  20387c:	c4 e2 c5 47 ec       	vpsllvq ymm5,ymm7,ymm4
  203881:	c5 d5 eb db          	vpor   ymm3,ymm5,ymm3
  203885:	c4 e2 7d 32 6c 39 04 	vpmovzxbq ymm5,DWORD PTR [rcx+rdi*1+0x4]
  20388c:	c4 e2 d5 47 ee       	vpsllvq ymm5,ymm5,ymm6
  203891:	c5 d5 eb c9          	vpor   ymm1,ymm5,ymm1
  203895:	c4 e2 7d 32 2c 39    	vpmovzxbq ymm5,DWORD PTR [rcx+rdi*1]
  20389b:	c4 e2 d5 47 e4       	vpsllvq ymm4,ymm5,ymm4
  2038a0:	c5 dd eb c0          	vpor   ymm0,ymm4,ymm0
  2038a4:	c5 f5 eb ca          	vpor   ymm1,ymm1,ymm2
  2038a8:	c5 fd eb c3          	vpor   ymm0,ymm0,ymm3
  2038ac:	c5 fd eb c1          	vpor   ymm0,ymm0,ymm1
  2038b0:	c4 e3 7d 39 c1 01    	vextracti128 xmm1,ymm0,0x1
  2038b6:	c5 fd eb c1          	vpor   ymm0,ymm0,ymm1
  2038ba:	c5 f9 70 c8 4e       	vpshufd xmm1,xmm0,0x4e
  2038bf:	c5 fd eb c1          	vpor   ymm0,ymm0,ymm1
  2038c3:	c4 e1 f9 7e c6       	vmovq  rsi,xmm0
  2038c8:	48 39 d8             	cmp    rax,rbx
            for (bytes) |b, index| {
  2038cb:	74 31                	je     2038fe <dumpCurrentStackTrace+0x56e>
  2038cd:	48 29 d8             	sub    rax,rbx
  2038d0:	48 01 d9             	add    rcx,rbx
  2038d3:	48 c1 e3 03          	shl    rbx,0x3
  2038d7:	66 0f 1f 84 00 00 00 	nop    WORD PTR [rax+rax*1+0x0]
  2038de:	00 00 
                result = result | (T(b) << @intCast(ShiftType, index * 8));
  2038e0:	0f b6 39             	movzx  edi,BYTE PTR [rcx]
  2038e3:	89 da                	mov    edx,ebx
  2038e5:	80 e2 38             	and    dl,0x38
  2038e8:	c4 e2 e9 f7 d7       	shlx   rdx,rdi,rdx
  2038ed:	48 09 d6             	or     rsi,rdx
            for (bytes) |b, index| {
  2038f0:	48 83 c3 08          	add    rbx,0x8
  2038f4:	48 83 c1 01          	add    rcx,0x1
  2038f8:	48 83 c0 ff          	add    rax,0xffffffffffffffff
  2038fc:	75 e2                	jne    2038e0 <dumpCurrentStackTrace+0x550>
            if (st.debug_ranges) |debug_ranges| {
  2038fe:	48 8b 44 24 28       	mov    rax,QWORD PTR [rsp+0x28]
  203903:	48 8b 80 80 00 00 00 	mov    rax,QWORD PTR [rax+0x80]
  20390a:	48 85 c0             	test   rax,rax
  20390d:	0f 85 fd 00 00 00    	jne    203a10 <dumpCurrentStackTrace+0x680>
  203913:	e9 68 02 00 00       	jmp    203b80 <dumpCurrentStackTrace+0x7f0>
  203918:	c5 f9 ef c0          	vpxor  xmm0,xmm0,xmm0
  20391c:	31 ff                	xor    edi,edi
  20391e:	c5 fd 6f 25 7a c8 ff 	vmovdqa ymm4,YMMWORD PTR [rip+0xffffffffffffc87a]        # 2001a0 <app_mask-0x80>
  203925:	ff 
  203926:	c5 f1 ef c9          	vpxor  xmm1,xmm1,xmm1
  20392a:	c5 e1 ef db          	vpxor  xmm3,xmm3,xmm3
  20392e:	c5 e9 ef d2          	vpxor  xmm2,xmm2,xmm2
  203932:	4d 85 c0             	test   r8,r8
  203935:	0f 85 16 ff ff ff    	jne    203851 <dumpCurrentStackTrace+0x4c1>
  20393b:	e9 64 ff ff ff       	jmp    2038a4 <dumpCurrentStackTrace+0x514>
        if (compile_unit.pc_range) |range| {
  203940:	4f 8d 34 64          	lea    r14,[r12+r12*2]
  203944:	49 c1 e6 04          	shl    r14,0x4
  203948:	43 80 7c 31 28 01    	cmp    BYTE PTR [r9+r14*1+0x28],0x1
  20394e:	75 12                	jne    203962 <dumpCurrentStackTrace+0x5d2>
            if (target_address >= range.start and target_address < range.end) return compile_unit;
  203950:	4f 39 6c 31 18       	cmp    QWORD PTR [r9+r14*1+0x18],r13
  203955:	77 0b                	ja     203962 <dumpCurrentStackTrace+0x5d2>
  203957:	4f 39 6c 31 20       	cmp    QWORD PTR [r9+r14*1+0x20],r13
  20395c:	0f 87 4c 04 00 00    	ja     203dae <dumpCurrentStackTrace+0xa1e>
        if (compile_unit.die.getAttrSecOffset(DW.AT_ranges)) |ranges_offset| {
  203962:	4b 8b 4c 31 08       	mov    rcx,QWORD PTR [r9+r14*1+0x8]
  203967:	48 8b 41 20          	mov    rax,QWORD PTR [rcx+0x20]
        for (self.attrs.toSliceConst()) |*attr| {
  20396b:	48 85 c0             	test   rax,rax
  20396e:	0f 84 0c 02 00 00    	je     203b80 <dumpCurrentStackTrace+0x7f0>
  203974:	4b 8d 14 31          	lea    rdx,[r9+r14*1]
  203978:	48 83 c2 08          	add    rdx,0x8
  20397c:	48 89 94 24 38 01 00 	mov    QWORD PTR [rsp+0x138],rdx
  203983:	00 
  203984:	48 8b 49 10          	mov    rcx,QWORD PTR [rcx+0x10]
            if (attr.id == id) return &attr.value;
  203988:	48 83 c1 20          	add    rcx,0x20
  20398c:	31 d2                	xor    edx,edx
  20398e:	66 90                	xchg   ax,ax
  203990:	48 83 79 e0 55       	cmp    QWORD PTR [rcx-0x20],0x55
  203995:	74 19                	je     2039b0 <dumpCurrentStackTrace+0x620>
        for (self.attrs.toSliceConst()) |*attr| {
  203997:	48 83 c2 01          	add    rdx,0x1
  20399b:	48 83 c1 28          	add    rcx,0x28
  20399f:	48 39 c2             	cmp    rdx,rax
  2039a2:	72 ec                	jb     203990 <dumpCurrentStackTrace+0x600>
  2039a4:	e9 d7 01 00 00       	jmp    203b80 <dumpCurrentStackTrace+0x7f0>
  2039a9:	0f 1f 80 00 00 00 00 	nop    DWORD PTR [rax+0x0]
  2039b0:	8a 01                	mov    al,BYTE PTR [rcx]
  2039b2:	3c 05                	cmp    al,0x5
        return switch (form_value.*) {
  2039b4:	74 41                	je     2039f7 <dumpCurrentStackTrace+0x667>
  2039b6:	3c 02                	cmp    al,0x2
  2039b8:	0f 85 d2 01 00 00    	jne    203b90 <dumpCurrentStackTrace+0x800>
            FormValue.Const => |value| value.asUnsignedLe(),
  2039be:	48 8b 41 f0          	mov    rax,QWORD PTR [rcx-0x10]
        if (self.payload.len > @sizeOf(u64)) return error.InvalidDebugInfo;
  2039c2:	48 83 f8 08          	cmp    rax,0x8
  2039c6:	0f 87 c4 01 00 00    	ja     203b90 <dumpCurrentStackTrace+0x800>
            FormValue.Const => |value| value.asUnsignedLe(),
  2039cc:	8a 51 f8             	mov    dl,BYTE PTR [rcx-0x8]
        if (self.signed) return error.InvalidDebugInfo;
  2039cf:	84 d2                	test   dl,dl
  2039d1:	0f 85 b9 01 00 00    	jne    203b90 <dumpCurrentStackTrace+0x800>
  2039d7:	48 85 c0             	test   rax,rax
  2039da:	0f 84 7c 01 00 00    	je     203b5c <dumpCurrentStackTrace+0x7cc>
  2039e0:	48 8b 49 e8          	mov    rcx,QWORD PTR [rcx-0x18]
  2039e4:	48 83 f8 10          	cmp    rax,0x10
  2039e8:	0f 83 4a fd ff ff    	jae    203738 <dumpCurrentStackTrace+0x3a8>
  2039ee:	31 db                	xor    ebx,ebx
  2039f0:	31 f6                	xor    esi,esi
  2039f2:	e9 d6 fe ff ff       	jmp    2038cd <dumpCurrentStackTrace+0x53d>
            FormValue.SecOffset => |value| value,
  2039f7:	48 8b 71 e8          	mov    rsi,QWORD PTR [rcx-0x18]
            if (st.debug_ranges) |debug_ranges| {
  2039fb:	48 8b 44 24 28       	mov    rax,QWORD PTR [rsp+0x28]
  203a00:	48 8b 80 80 00 00 00 	mov    rax,QWORD PTR [rax+0x80]
  203a07:	48 85 c0             	test   rax,rax
  203a0a:	0f 84 70 01 00 00    	je     203b80 <dumpCurrentStackTrace+0x7f0>
/// Cast an integer to a different integer type. If the value doesn't fit,
/// return an error.
pub fn cast(comptime T: type, x: var) (error{Overflow}!T) {
    comptime assert(@typeId(T) == builtin.TypeId.Int); // must pass an integer
    comptime assert(@typeId(@typeOf(x)) == builtin.TypeId.Int); // must pass an integer
    if (@maxValue(@typeOf(x)) > @maxValue(T) and x > @maxValue(T)) {
  203a10:	48 03 70 18          	add    rsi,QWORD PTR [rax+0x18]
  203a14:	0f 88 76 01 00 00    	js     203b90 <dumpCurrentStackTrace+0x800>
    return syscall3(SYS_lseek, @intCast(usize, fd), @bitCast(usize, offset), ref_pos);
  203a1a:	48 8b 44 24 28       	mov    rax,QWORD PTR [rsp+0x28]
  203a1f:	48 63 38             	movsxd rdi,DWORD PTR [rax]
  203a22:	b8 08 00 00 00       	mov    eax,0x8
  203a27:	31 d2                	xor    edx,edx
  203a29:	0f 05                	syscall 
    return if (signed_r > -4096 and signed_r < 0) @intCast(usize, -signed_r) else 0;
  203a2b:	48 3d 01 f0 ff ff    	cmp    rax,0xfffffffffffff001
        switch (builtin.os) {
            Os.linux, Os.macosx, Os.ios => {
                const ipos = try math.cast(isize, pos);
                const result = posix.lseek(self.handle, ipos, posix.SEEK_SET);
                const err = posix.getErrno(result);
                if (err > 0) {
  203a31:	0f 83 59 01 00 00    	jae    203b90 <dumpCurrentStackTrace+0x800>
  203a37:	4c 89 cb             	mov    rbx,r9
            try self.readNoEof(bytes[0..]);
  203a3a:	48 8d 84 24 b8 00 00 	lea    rax,[rsp+0xb8]
  203a41:	00 
  203a42:	48 89 44 24 10       	mov    QWORD PTR [rsp+0x10],rax
  203a47:	48 c7 44 24 18 08 00 	mov    QWORD PTR [rsp+0x18],0x8
  203a4e:	00 00 
            return self.readFn(self, buffer);
  203a50:	48 8d 7c 24 30       	lea    rdi,[rsp+0x30]
  203a55:	48 8d b4 24 d0 00 00 	lea    rsi,[rsp+0xd0]
  203a5c:	00 
  203a5d:	48 8d 54 24 10       	lea    rdx,[rsp+0x10]
  203a62:	c5 f8 77             	vzeroupper 
  203a65:	ff 94 24 d0 00 00 00 	call   QWORD PTR [rsp+0xd0]
            const amt_read = try self.read(buf);
  203a6c:	66 83 7c 24 30 00    	cmp    WORD PTR [rsp+0x30],0x0
  203a72:	0f 85 18 01 00 00    	jne    203b90 <dumpCurrentStackTrace+0x800>
  203a78:	48 8b 44 24 38       	mov    rax,QWORD PTR [rsp+0x38]
  203a7d:	0f 1f 00             	nop    DWORD PTR [rax]
            if (amt_read < buf.len) return error.EndOfStream;
  203a80:	48 3b 44 24 18       	cmp    rax,QWORD PTR [rsp+0x18]
  203a85:	0f 82 05 01 00 00    	jb     203b90 <dumpCurrentStackTrace+0x800>
                result = result | (T(b) << @intCast(ShiftType, index * 8));
  203a8b:	4c 8b bc 24 b8 00 00 	mov    r15,QWORD PTR [rsp+0xb8]
  203a92:	00 
            try self.readNoEof(bytes[0..]);
  203a93:	48 8d 84 24 b8 00 00 	lea    rax,[rsp+0xb8]
  203a9a:	00 
  203a9b:	48 89 44 24 10       	mov    QWORD PTR [rsp+0x10],rax
  203aa0:	48 c7 44 24 18 08 00 	mov    QWORD PTR [rsp+0x18],0x8
  203aa7:	00 00 
            return self.readFn(self, buffer);
  203aa9:	48 8d 7c 24 30       	lea    rdi,[rsp+0x30]
  203aae:	48 8d b4 24 d0 00 00 	lea    rsi,[rsp+0xd0]
  203ab5:	00 
  203ab6:	48 8d 54 24 10       	lea    rdx,[rsp+0x10]
  203abb:	ff 94 24 d0 00 00 00 	call   QWORD PTR [rsp+0xd0]
            const amt_read = try self.read(buf);
  203ac2:	66 83 7c 24 30 00    	cmp    WORD PTR [rsp+0x30],0x0
  203ac8:	0f 85 c2 00 00 00    	jne    203b90 <dumpCurrentStackTrace+0x800>
  203ace:	48 8b 44 24 18       	mov    rax,QWORD PTR [rsp+0x18]
  203ad3:	48 39 44 24 38       	cmp    QWORD PTR [rsp+0x38],rax
  203ad8:	0f 82 b2 00 00 00    	jb     203b90 <dumpCurrentStackTrace+0x800>
  203ade:	48 8b 84 24 b8 00 00 	mov    rax,QWORD PTR [rsp+0xb8]
  203ae5:	00 
                    if (begin_addr == 0 and end_addr == 0) {
  203ae6:	48 89 c1             	mov    rcx,rax
  203ae9:	4c 09 f9             	or     rcx,r15
  203aec:	c5 7d 6f a4 24 00 01 	vmovdqa ymm12,YMMWORD PTR [rsp+0x100]
  203af3:	00 00 
  203af5:	c5 7d 6f ac 24 e0 00 	vmovdqa ymm13,YMMWORD PTR [rsp+0xe0]
  203afc:	00 00 
  203afe:	49 89 d9             	mov    r9,rbx
  203b01:	74 7d                	je     203b80 <dumpCurrentStackTrace+0x7f0>
                    if (begin_addr == @maxValue(usize)) {
  203b03:	49 83 ff ff          	cmp    r15,0xffffffffffffffff
  203b07:	74 0e                	je     203b17 <dumpCurrentStackTrace+0x787>
                    if (target_address >= begin_addr and target_address < end_addr) {
  203b09:	4d 39 ef             	cmp    r15,r13
  203b0c:	77 09                	ja     203b17 <dumpCurrentStackTrace+0x787>
  203b0e:	4c 39 e8             	cmp    rax,r13
  203b11:	0f 87 8d 02 00 00    	ja     203da4 <dumpCurrentStackTrace+0xa14>
            try self.readNoEof(bytes[0..]);
  203b17:	48 8d 84 24 b8 00 00 	lea    rax,[rsp+0xb8]
  203b1e:	00 
  203b1f:	48 89 44 24 10       	mov    QWORD PTR [rsp+0x10],rax
  203b24:	48 c7 44 24 18 08 00 	mov    QWORD PTR [rsp+0x18],0x8
  203b2b:	00 00 
            return self.readFn(self, buffer);
  203b2d:	48 8d 7c 24 30       	lea    rdi,[rsp+0x30]
  203b32:	48 8d b4 24 d0 00 00 	lea    rsi,[rsp+0xd0]
  203b39:	00 
  203b3a:	48 8d 54 24 10       	lea    rdx,[rsp+0x10]
  203b3f:	c5 f8 77             	vzeroupper 
  203b42:	ff 94 24 d0 00 00 00 	call   QWORD PTR [rsp+0xd0]
  203b49:	48 8b 44 24 38       	mov    rax,QWORD PTR [rsp+0x38]
            const amt_read = try self.read(buf);
  203b4e:	66 83 7c 24 30 00    	cmp    WORD PTR [rsp+0x30],0x0
  203b54:	0f 84 26 ff ff ff    	je     203a80 <dumpCurrentStackTrace+0x6f0>
  203b5a:	eb 34                	jmp    203b90 <dumpCurrentStackTrace+0x800>
        return switch (form_value.*) {
  203b5c:	31 f6                	xor    esi,esi
            if (st.debug_ranges) |debug_ranges| {
  203b5e:	48 8b 44 24 28       	mov    rax,QWORD PTR [rsp+0x28]
  203b63:	48 8b 80 80 00 00 00 	mov    rax,QWORD PTR [rax+0x80]
  203b6a:	48 85 c0             	test   rax,rax
  203b6d:	0f 85 9d fe ff ff    	jne    203a10 <dumpCurrentStackTrace+0x680>
  203b73:	66 66 66 66 2e 0f 1f 	data16 data16 data16 nop WORD PTR cs:[rax+rax*1+0x0]
  203b7a:	84 00 00 00 00 00 
    for (st.compile_unit_list.toSlice()) |*compile_unit| {
  203b80:	49 83 c4 01          	add    r12,0x1
  203b84:	4c 3b 64 24 78       	cmp    r12,QWORD PTR [rsp+0x78]
  203b89:	0f 82 b1 fd ff ff    	jb     203940 <dumpCurrentStackTrace+0x5b0>
  203b8f:	90                   	nop
  203b90:	4c 8b 64 24 70       	mov    r12,QWORD PTR [rsp+0x70]
            return std.fmt.format(self, Error, self.writeFn, format, args);
  203b95:	4d 8b 34 24          	mov    r14,QWORD PTR [r12]
                if (tty_color) {
  203b99:	80 7c 24 0f 00       	cmp    BYTE PTR [rsp+0xf],0x0
  203b9e:	74 70                	je     203c10 <dumpCurrentStackTrace+0x880>
                        try output(context, fmt[start_index..i]);
  203ba0:	4c 89 e7             	mov    rdi,r12
  203ba3:	48 8d 35 d6 07 01 00 	lea    rsi,[rip+0x107d6]        # 214380 <__unnamed_11>
  203baa:	c5 f8 77             	vzeroupper 
  203bad:	41 ff d6             	call   r14
  203bb0:	41 89 c7             	mov    r15d,eax
  203bb3:	66 45 85 ff          	test   r15w,r15w
  203bb7:	0f 85 a3 01 00 00    	jne    203d60 <dumpCurrentStackTrace+0x9d0>
    var buf: [max_int_digits - 1]u8 = undefined;
  203bbd:	c5 fc 10 05 5a e9 ff 	vmovups ymm0,YMMWORD PTR [rip+0xffffffffffffe95a]        # 20251f <__unnamed_2+0x1f>
  203bc4:	ff 
  203bc5:	c5 fc 11 44 24 4f    	vmovups YMMWORD PTR [rsp+0x4f],ymm0
  203bcb:	c5 fe 6f 05 2d e9 ff 	vmovdqu ymm0,YMMWORD PTR [rip+0xffffffffffffe92d]        # 202500 <__unnamed_2>
  203bd2:	ff 
  203bd3:	c5 fe 7f 44 24 30    	vmovdqu YMMWORD PTR [rsp+0x30],ymm0
        buf[index] = digitToChar(@intCast(u8, digit), uppercase);
  203bd9:	44 89 e8             	mov    eax,r13d
  203bdc:	24 0f                	and    al,0xf
        0...9 => digit + '0',
  203bde:	b1 30                	mov    cl,0x30
  203be0:	3c 0a                	cmp    al,0xa
  203be2:	72 02                	jb     203be6 <dumpCurrentStackTrace+0x856>
  203be4:	b1 57                	mov    cl,0x57
  203be6:	00 c1                	add    cl,al
        buf[index] = digitToChar(@intCast(u8, digit), uppercase);
  203be8:	88 4c 24 6f          	mov    BYTE PTR [rsp+0x6f],cl
  203bec:	b8 40 00 00 00       	mov    eax,0x40
        if (a == 0) break;
  203bf1:	49 83 fd 10          	cmp    r13,0x10
  203bf5:	73 7e                	jae    203c75 <dumpCurrentStackTrace+0x8e5>
  203bf7:	48 8d 4c 24 6f       	lea    rcx,[rsp+0x6f]
  203bfc:	e9 af 00 00 00       	jmp    203cb0 <dumpCurrentStackTrace+0x920>
  203c01:	66 66 66 66 66 66 2e 	data16 data16 data16 data16 data16 nop WORD PTR cs:[rax+rax*1+0x0]
  203c08:	0f 1f 84 00 00 00 00 
  203c0f:	00 
                        try output(context, fmt[start_index..i]);
  203c10:	4c 89 e7             	mov    rdi,r12
  203c13:	48 8d 35 86 07 01 00 	lea    rsi,[rip+0x10786]        # 2143a0 <__unnamed_12>
  203c1a:	c5 f8 77             	vzeroupper 
  203c1d:	41 ff d6             	call   r14
  203c20:	41 89 c7             	mov    r15d,eax
  203c23:	66 45 85 ff          	test   r15w,r15w
  203c27:	0f 85 33 01 00 00    	jne    203d60 <dumpCurrentStackTrace+0x9d0>
    var buf: [max_int_digits - 1]u8 = undefined;
  203c2d:	c5 fc 10 05 ea e8 ff 	vmovups ymm0,YMMWORD PTR [rip+0xffffffffffffe8ea]        # 20251f <__unnamed_2+0x1f>
  203c34:	ff 
  203c35:	c5 fc 11 44 24 4f    	vmovups YMMWORD PTR [rsp+0x4f],ymm0
  203c3b:	c5 fe 6f 05 bd e8 ff 	vmovdqu ymm0,YMMWORD PTR [rip+0xffffffffffffe8bd]        # 202500 <__unnamed_2>
  203c42:	ff 
  203c43:	c5 fe 7f 44 24 30    	vmovdqu YMMWORD PTR [rsp+0x30],ymm0
        buf[index] = digitToChar(@intCast(u8, digit), uppercase);
  203c49:	44 89 e8             	mov    eax,r13d
  203c4c:	24 0f                	and    al,0xf
        0...9 => digit + '0',
  203c4e:	b1 30                	mov    cl,0x30
  203c50:	3c 0a                	cmp    al,0xa
  203c52:	72 02                	jb     203c56 <dumpCurrentStackTrace+0x8c6>
  203c54:	b1 57                	mov    cl,0x57
  203c56:	00 c1                	add    cl,al
        buf[index] = digitToChar(@intCast(u8, digit), uppercase);
  203c58:	88 4c 24 6f          	mov    BYTE PTR [rsp+0x6f],cl
  203c5c:	b8 40 00 00 00       	mov    eax,0x40
        if (a == 0) break;
  203c61:	49 83 fd 10          	cmp    r13,0x10
  203c65:	0f 83 7e 00 00 00    	jae    203ce9 <dumpCurrentStackTrace+0x959>
  203c6b:	48 8d 4c 24 6f       	lea    rcx,[rsp+0x6f]
  203c70:	e9 ab 00 00 00       	jmp    203d20 <dumpCurrentStackTrace+0x990>
        a /= base;
  203c75:	4c 89 e9             	mov    rcx,r13
  203c78:	0f 1f 84 00 00 00 00 	nop    DWORD PTR [rax+rax*1+0x0]
  203c7f:	00 
  203c80:	48 c1 e9 04          	shr    rcx,0x4
        buf[index] = digitToChar(@intCast(u8, digit), uppercase);
  203c84:	89 ca                	mov    edx,ecx
  203c86:	80 e2 0f             	and    dl,0xf
        0...9 => digit + '0',
  203c89:	b3 30                	mov    bl,0x30
  203c8b:	80 fa 0a             	cmp    dl,0xa
  203c8e:	72 02                	jb     203c92 <dumpCurrentStackTrace+0x902>
  203c90:	b3 57                	mov    bl,0x57
  203c92:	00 d3                	add    bl,dl
        buf[index] = digitToChar(@intCast(u8, digit), uppercase);
  203c94:	88 5c 04 2e          	mov    BYTE PTR [rsp+rax*1+0x2e],bl
        if (a == 0) break;
  203c98:	48 83 c0 ff          	add    rax,0xffffffffffffffff
  203c9c:	49 81 fd ff 00 00 00 	cmp    r13,0xff
  203ca3:	49 89 cd             	mov    r13,rcx
  203ca6:	77 d8                	ja     203c80 <dumpCurrentStackTrace+0x8f0>
        const padded_buf = buf[index - padding ..];
  203ca8:	48 8d 0c 04          	lea    rcx,[rsp+rax*1]
  203cac:	48 83 c1 2f          	add    rcx,0x2f
  203cb0:	ba 41 00 00 00       	mov    edx,0x41
  203cb5:	48 29 c2             	sub    rdx,rax
  203cb8:	48 89 4c 24 10       	mov    QWORD PTR [rsp+0x10],rcx
  203cbd:	48 89 54 24 18       	mov    QWORD PTR [rsp+0x18],rdx
        return output(context, padded_buf);
  203cc2:	4c 89 e7             	mov    rdi,r12
  203cc5:	48 8d 74 24 10       	lea    rsi,[rsp+0x10]
  203cca:	c5 f8 77             	vzeroupper 
  203ccd:	41 ff d6             	call   r14
  203cd0:	41 89 c7             	mov    r15d,eax
                    try formatType(args[next_arg], fmt[s..i], context, Errors, output);
  203cd3:	66 45 85 ff          	test   r15w,r15w
  203cd7:	0f 85 83 00 00 00    	jne    203d60 <dumpCurrentStackTrace+0x9d0>
        try output(context, fmt[start_index..]);
  203cdd:	4c 89 e7             	mov    rdi,r12
  203ce0:	48 8d 35 a9 06 01 00 	lea    rsi,[rip+0x106a9]        # 214390 <__unnamed_13>
  203ce7:	eb 6a                	jmp    203d53 <dumpCurrentStackTrace+0x9c3>
        a /= base;
  203ce9:	4c 89 e9             	mov    rcx,r13
  203cec:	0f 1f 40 00          	nop    DWORD PTR [rax+0x0]
  203cf0:	48 c1 e9 04          	shr    rcx,0x4
        buf[index] = digitToChar(@intCast(u8, digit), uppercase);
  203cf4:	89 ca                	mov    edx,ecx
  203cf6:	80 e2 0f             	and    dl,0xf
        0...9 => digit + '0',
  203cf9:	b3 30                	mov    bl,0x30
  203cfb:	80 fa 0a             	cmp    dl,0xa
  203cfe:	72 02                	jb     203d02 <dumpCurrentStackTrace+0x972>
  203d00:	b3 57                	mov    bl,0x57
  203d02:	00 d3                	add    bl,dl
        buf[index] = digitToChar(@intCast(u8, digit), uppercase);
  203d04:	88 5c 04 2e          	mov    BYTE PTR [rsp+rax*1+0x2e],bl
        if (a == 0) break;
  203d08:	48 83 c0 ff          	add    rax,0xffffffffffffffff
  203d0c:	49 81 fd ff 00 00 00 	cmp    r13,0xff
  203d13:	49 89 cd             	mov    r13,rcx
  203d16:	77 d8                	ja     203cf0 <dumpCurrentStackTrace+0x960>
        const padded_buf = buf[index - padding ..];
  203d18:	48 8d 0c 04          	lea    rcx,[rsp+rax*1]
  203d1c:	48 83 c1 2f          	add    rcx,0x2f
  203d20:	ba 41 00 00 00       	mov    edx,0x41
  203d25:	48 29 c2             	sub    rdx,rax
  203d28:	48 89 4c 24 10       	mov    QWORD PTR [rsp+0x10],rcx
  203d2d:	48 89 54 24 18       	mov    QWORD PTR [rsp+0x18],rdx
        return output(context, padded_buf);
  203d32:	4c 89 e7             	mov    rdi,r12
  203d35:	48 8d 74 24 10       	lea    rsi,[rsp+0x10]
  203d3a:	c5 f8 77             	vzeroupper 
  203d3d:	41 ff d6             	call   r14
  203d40:	41 89 c7             	mov    r15d,eax
                    try formatType(args[next_arg], fmt[s..i], context, Errors, output);
  203d43:	66 45 85 ff          	test   r15w,r15w
  203d47:	75 17                	jne    203d60 <dumpCurrentStackTrace+0x9d0>
        try output(context, fmt[start_index..]);
  203d49:	4c 89 e7             	mov    rdi,r12
  203d4c:	48 8d 35 5d 06 01 00 	lea    rsi,[rip+0x1065d]        # 2143b0 <__unnamed_14>
  203d53:	41 ff d6             	call   r14
  203d56:	41 89 c7             	mov    r15d,eax
  203d59:	0f 1f 80 00 00 00 00 	nop    DWORD PTR [rax+0x0]
  203d60:	c5 7d 6f a4 24 00 01 	vmovdqa ymm12,YMMWORD PTR [rsp+0x100]
  203d67:	00 00 
  203d69:	c5 7d 6f ac 24 e0 00 	vmovdqa ymm13,YMMWORD PTR [rsp+0xe0]
  203d70:	00 00 
        try printSourceAtAddress(debug_info, out_stream, return_address, tty_color);
  203d72:	66 45 85 ff          	test   r15w,r15w
  203d76:	0f 85 f8 0b 00 00    	jne    204974 <dumpCurrentStackTrace+0x15e4>
  203d7c:	31 c0                	xor    eax,eax
  203d7e:	48 8b 8c 24 a8 00 00 	mov    rcx,QWORD PTR [rsp+0xa8]
  203d85:	00 
  203d86:	48 8b 94 24 b0 00 00 	mov    rdx,QWORD PTR [rsp+0xb0]
  203d8d:	00 
  203d8e:	48 8b 74 24 28       	mov    rsi,QWORD PTR [rsp+0x28]
    while (fp != 0) : (fp = @intToPtr(*const usize, fp).*) {
  203d93:	48 8b 12             	mov    rdx,QWORD PTR [rdx]
  203d96:	48 85 d2             	test   rdx,rdx
  203d99:	0f 85 31 f9 ff ff    	jne    2036d0 <dumpCurrentStackTrace+0x340>
  203d9f:	e9 1d 0c 00 00       	jmp    2049c1 <dumpCurrentStackTrace+0x1631>
  203da4:	48 8b 84 24 38 01 00 	mov    rax,QWORD PTR [rsp+0x138]
  203dab:	00 
  203dac:	eb 08                	jmp    203db6 <dumpCurrentStackTrace+0xa26>
            const compile_unit_name = try compile_unit.die.getAttrString(debug_info, DW.AT_name);
  203dae:	4b 8d 04 31          	lea    rax,[r9+r14*1]
  203db2:	48 83 c0 08          	add    rax,0x8
  203db6:	48 8b 00             	mov    rax,QWORD PTR [rax]
        }

        pub fn toSliceConst(self: Self) []align(A) const T {
            return self.items[0..self.len];
  203db9:	48 8b 48 20          	mov    rcx,QWORD PTR [rax+0x20]
        for (self.attrs.toSliceConst()) |*attr| {
  203dbd:	48 85 c9             	test   rcx,rcx
  203dc0:	4c 8b 64 24 70       	mov    r12,QWORD PTR [rsp+0x70]
  203dc5:	0f 84 84 0b 00 00    	je     20494f <dumpCurrentStackTrace+0x15bf>
  203dcb:	4d 01 f1             	add    r9,r14
  203dce:	48 8b 40 10          	mov    rax,QWORD PTR [rax+0x10]
  203dd2:	31 d2                	xor    edx,edx
  203dd4:	66 66 66 2e 0f 1f 84 	data16 data16 nop WORD PTR cs:[rax+rax*1+0x0]
  203ddb:	00 00 00 00 00 
            if (attr.id == id) return &attr.value;
  203de0:	48 83 38 03          	cmp    QWORD PTR [rax],0x3
  203de4:	74 12                	je     203df8 <dumpCurrentStackTrace+0xa68>
        for (self.attrs.toSliceConst()) |*attr| {
  203de6:	48 83 c2 01          	add    rdx,0x1
  203dea:	48 83 c0 28          	add    rax,0x28
  203dee:	48 39 ca             	cmp    rdx,rcx
  203df1:	72 ed                	jb     203de0 <dumpCurrentStackTrace+0xa50>
  203df3:	e9 57 0b 00 00       	jmp    20494f <dumpCurrentStackTrace+0x15bf>
  203df8:	8a 50 20             	mov    dl,BYTE PTR [rax+0x20]
  203dfb:	80 fa 0a             	cmp    dl,0xa
        return switch (form_value.*) {
  203dfe:	74 2f                	je     203e2f <dumpCurrentStackTrace+0xa9f>
  203e00:	48 8d 0d b1 d4 ff ff 	lea    rcx,[rip+0xffffffffffffd4b1]        # 2012b8 <__unnamed_15>
  203e07:	80 fa 09             	cmp    dl,0x9
  203e0a:	0f 85 a4 00 00 00    	jne    203eb4 <dumpCurrentStackTrace+0xb24>
            FormValue.String => |value| value,
  203e10:	66 c7 44 24 10 00 00 	mov    WORD PTR [rsp+0x10],0x0
  203e17:	c5 fa 6f 40 08       	vmovdqu xmm0,XMMWORD PTR [rax+0x8]
  203e1c:	48 8d 44 24 18       	lea    rax,[rsp+0x18]
  203e21:	c5 fa 7f 00          	vmovdqu XMMWORD PTR [rax],xmm0
        return switch (form_value.*) {
  203e25:	48 8d 4c 24 10       	lea    rcx,[rsp+0x10]
  203e2a:	e9 85 00 00 00       	jmp    203eb4 <dumpCurrentStackTrace+0xb24>
            FormValue.StrPtr => |offset| getString(st, offset),
  203e2f:	48 8b 70 08          	mov    rsi,QWORD PTR [rax+0x8]
  203e33:	48 8b 4c 24 28       	mov    rcx,QWORD PTR [rsp+0x28]
    const pos = st.debug_str.offset + offset;
  203e38:	48 8b 41 70          	mov    rax,QWORD PTR [rcx+0x70]
  203e3c:	48 03 70 18          	add    rsi,QWORD PTR [rax+0x18]
  203e40:	78 45                	js     203e87 <dumpCurrentStackTrace+0xaf7>
    return syscall3(SYS_lseek, @intCast(usize, fd), @bitCast(usize, offset), ref_pos);
  203e42:	48 63 39             	movsxd rdi,DWORD PTR [rcx]
  203e45:	b8 08 00 00 00       	mov    eax,0x8
  203e4a:	31 d2                	xor    edx,edx
  203e4c:	0f 05                	syscall 
    return if (signed_r > -4096 and signed_r < 0) @intCast(usize, -signed_r) else 0;
  203e4e:	48 89 c1             	mov    rcx,rax
  203e51:	48 f7 d9             	neg    rcx
  203e54:	48 3d 00 f0 ff ff    	cmp    rax,0xfffffffffffff000
  203e5a:	b8 00 00 00 00       	mov    eax,0x0
  203e5f:	48 0f 46 c8          	cmovbe rcx,rax
  203e63:	66 b8 05 00          	mov    ax,0x5
  203e67:	48 83 f9 1d          	cmp    rcx,0x1d
  203e6b:	0f 87 a2 09 00 00    	ja     204813 <dumpCurrentStackTrace+0x1483>
  203e71:	48 8d 15 d8 c3 ff ff 	lea    rdx,[rip+0xffffffffffffc3d8]        # 200250 <__unnamed_128+0x8>
  203e78:	48 63 0c 8a          	movsxd rcx,DWORD PTR [rdx+rcx*4]
  203e7c:	48 01 d1             	add    rcx,rdx
  203e7f:	ff e1                	jmp    rcx
  203e81:	66 b8 20 00          	mov    ax,0x20
  203e85:	eb 04                	jmp    203e8b <dumpCurrentStackTrace+0xafb>
  203e87:	66 b8 21 00          	mov    ax,0x21
    try st.self_exe_file.seekTo(pos);
  203e8b:	66 89 44 24 30       	mov    WORD PTR [rsp+0x30],ax
  203e90:	48 8b 84 24 d6 00 00 	mov    rax,QWORD PTR [rsp+0xd6]
  203e97:	00 
  203e98:	48 8d 4c 24 6f       	lea    rcx,[rsp+0x6f]
  203e9d:	48 89 41 d1          	mov    QWORD PTR [rcx-0x2f],rax
  203ea1:	c5 fa 6f 84 24 c8 00 	vmovdqu xmm0,XMMWORD PTR [rsp+0xc8]
  203ea8:	00 00 
  203eaa:	c5 fa 7f 41 c3       	vmovdqu XMMWORD PTR [rcx-0x3d],xmm0
        return switch (form_value.*) {
  203eaf:	48 8d 4c 24 30       	lea    rcx,[rsp+0x30]
  203eb4:	44 0f b7 39          	movzx  r15d,WORD PTR [rcx]
  203eb8:	48 8b 41 10          	mov    rax,QWORD PTR [rcx+0x10]
  203ebc:	48 89 84 24 4e 01 00 	mov    QWORD PTR [rsp+0x14e],rax
  203ec3:	00 
  203ec4:	c5 fa 6f 41 02       	vmovdqu xmm0,XMMWORD PTR [rcx+0x2]
  203ec9:	c5 f9 7f 84 24 40 01 	vmovdqa XMMWORD PTR [rsp+0x140],xmm0
  203ed0:	00 00 
            const compile_unit_name = try compile_unit.die.getAttrString(debug_info, DW.AT_name);
  203ed2:	66 45 85 ff          	test   r15w,r15w
  203ed6:	0f 85 98 0a 00 00    	jne    204974 <dumpCurrentStackTrace+0x15e4>
  203edc:	48 8d 84 24 46 01 00 	lea    rax,[rsp+0x146]
  203ee3:	00 
  203ee4:	c5 fa 6f 00          	vmovdqu xmm0,XMMWORD PTR [rax]
  203ee8:	c5 f9 7f 84 24 20 01 	vmovdqa XMMWORD PTR [rsp+0x120],xmm0
  203eef:	00 00 
            if (getLineNumberInfo(debug_info, compile_unit, address - 1)) |line_info| {
  203ef1:	49 8d 4d ff          	lea    rcx,[r13-0x1]
  203ef5:	48 8d bc 24 58 01 00 	lea    rdi,[rsp+0x158]
  203efc:	00 
  203efd:	48 8b 74 24 28       	mov    rsi,QWORD PTR [rsp+0x28]
  203f02:	4c 89 ca             	mov    rdx,r9
  203f05:	c5 f8 77             	vzeroupper 
  203f08:	e8 c3 99 00 00       	call   20d8d0 <getLineNumberInfo>
  203f0d:	44 0f b7 bc 24 58 01 	movzx  r15d,WORD PTR [rsp+0x158]
  203f14:	00 00 
  203f16:	66 45 85 ff          	test   r15w,r15w
  203f1a:	74 77                	je     203f93 <dumpCurrentStackTrace+0xc03>
            } else |err| switch (err) {
  203f1c:	44 89 f8             	mov    eax,r15d
  203f1f:	25 fe ff 00 00       	and    eax,0xfffe
  203f24:	83 f8 22             	cmp    eax,0x22
  203f27:	0f 85 47 0a 00 00    	jne    204974 <dumpCurrentStackTrace+0x15e4>
  203f2d:	4d 8b 34 24          	mov    r14,QWORD PTR [r12]
                        try output(context, fmt[start_index..i]);
  203f31:	4c 89 e7             	mov    rdi,r12
  203f34:	48 8d 35 35 05 01 00 	lea    rsi,[rip+0x10535]        # 214470 <__unnamed_16>
  203f3b:	41 ff d6             	call   r14
  203f3e:	41 89 c7             	mov    r15d,eax
  203f41:	66 45 85 ff          	test   r15w,r15w
  203f45:	0f 85 15 fe ff ff    	jne    203d60 <dumpCurrentStackTrace+0x9d0>
    var buf: [max_int_digits - 1]u8 = undefined;
  203f4b:	c5 fc 10 05 cc e5 ff 	vmovups ymm0,YMMWORD PTR [rip+0xffffffffffffe5cc]        # 20251f <__unnamed_2+0x1f>
  203f52:	ff 
  203f53:	c5 fc 11 44 24 4f    	vmovups YMMWORD PTR [rsp+0x4f],ymm0
  203f59:	c5 fe 6f 05 9f e5 ff 	vmovdqu ymm0,YMMWORD PTR [rip+0xffffffffffffe59f]        # 202500 <__unnamed_2>
  203f60:	ff 
  203f61:	c5 fe 7f 44 24 30    	vmovdqu YMMWORD PTR [rsp+0x30],ymm0
        buf[index] = digitToChar(@intCast(u8, digit), uppercase);
  203f67:	44 89 e8             	mov    eax,r13d
  203f6a:	24 0f                	and    al,0xf
        0...9 => digit + '0',
  203f6c:	b1 30                	mov    cl,0x30
  203f6e:	3c 0a                	cmp    al,0xa
  203f70:	72 02                	jb     203f74 <dumpCurrentStackTrace+0xbe4>
  203f72:	b1 57                	mov    cl,0x57
  203f74:	00 c1                	add    cl,al
        buf[index] = digitToChar(@intCast(u8, digit), uppercase);
  203f76:	88 4c 24 6f          	mov    BYTE PTR [rsp+0x6f],cl
  203f7a:	b8 40 00 00 00       	mov    eax,0x40
        if (a == 0) break;
  203f7f:	49 83 fd 10          	cmp    r13,0x10
  203f83:	0f 83 b8 04 00 00    	jae    204441 <dumpCurrentStackTrace+0x10b1>
  203f89:	48 8d 4c 24 6f       	lea    rcx,[rsp+0x6f]
  203f8e:	e9 ed 04 00 00       	jmp    204480 <dumpCurrentStackTrace+0x10f0>
  203f93:	48 8d 84 24 60 01 00 	lea    rax,[rsp+0x160]
  203f9a:	00 
            if (getLineNumberInfo(debug_info, compile_unit, address - 1)) |line_info| {
  203f9b:	c5 fe 6f 00          	vmovdqu ymm0,YMMWORD PTR [rax]
  203f9f:	c5 fe 7f 84 24 80 00 	vmovdqu YMMWORD PTR [rsp+0x80],ymm0
  203fa6:	00 00 
  203fa8:	48 8b 40 20          	mov    rax,QWORD PTR [rax+0x20]
  203fac:	48 89 84 24 a0 00 00 	mov    QWORD PTR [rsp+0xa0],rax
  203fb3:	00 
  203fb4:	4c 89 e3             	mov    rbx,r12
  203fb7:	4c 8b a4 24 80 00 00 	mov    r12,QWORD PTR [rsp+0x80]
  203fbe:	00 
  203fbf:	48 8b 84 24 88 00 00 	mov    rax,QWORD PTR [rsp+0x88]
  203fc6:	00 
  203fc7:	48 89 44 24 78       	mov    QWORD PTR [rsp+0x78],rax
  203fcc:	4c 8b 33             	mov    r14,QWORD PTR [rbx]
                if (tty_color) {
  203fcf:	80 7c 24 0f 00       	cmp    BYTE PTR [rsp+0xf],0x0
  203fd4:	0f 84 cb 01 00 00    	je     2041a5 <dumpCurrentStackTrace+0xe15>
                        try output(context, fmt[start_index..i]);
  203fda:	48 89 df             	mov    rdi,rbx
  203fdd:	48 8d 35 dc 03 01 00 	lea    rsi,[rip+0x103dc]        # 2143c0 <__unnamed_17>
  203fe4:	c5 f8 77             	vzeroupper 
  203fe7:	41 ff d6             	call   r14
  203fea:	41 89 c7             	mov    r15d,eax
  203fed:	66 45 85 ff          	test   r15w,r15w
  203ff1:	0f 85 dc 09 00 00    	jne    2049d3 <dumpCurrentStackTrace+0x1643>
                const casted_value = ([]const u8)(value);
  203ff7:	48 8d 84 24 90 00 00 	lea    rax,[rsp+0x90]
  203ffe:	00 
  203fff:	c5 fa 6f 00          	vmovdqu xmm0,XMMWORD PTR [rax]
  204003:	c5 f9 7f 44 24 30    	vmovdqa XMMWORD PTR [rsp+0x30],xmm0
                return output(context, casted_value);
  204009:	48 89 df             	mov    rdi,rbx
  20400c:	48 8d 74 24 30       	lea    rsi,[rsp+0x30]
  204011:	41 ff d6             	call   r14
  204014:	41 89 c7             	mov    r15d,eax
                    try formatType(args[next_arg], fmt[0..0], context, Errors, output);
  204017:	66 45 85 ff          	test   r15w,r15w
  20401b:	0f 85 b2 09 00 00    	jne    2049d3 <dumpCurrentStackTrace+0x1643>
                        try output(context, fmt[start_index..i]);
  204021:	48 89 df             	mov    rdi,rbx
  204024:	48 8d 35 a5 03 01 00 	lea    rsi,[rip+0x103a5]        # 2143d0 <__unnamed_18>
  20402b:	41 ff d6             	call   r14
  20402e:	41 89 c7             	mov    r15d,eax
  204031:	66 45 85 ff          	test   r15w,r15w
  204035:	0f 85 c1 09 00 00    	jne    2049fc <dumpCurrentStackTrace+0x166c>
    var buf: [max_int_digits - 1]u8 = undefined;
  20403b:	c5 fc 10 05 dc e4 ff 	vmovups ymm0,YMMWORD PTR [rip+0xffffffffffffe4dc]        # 20251f <__unnamed_2+0x1f>
  204042:	ff 
  204043:	c5 fc 11 44 24 4f    	vmovups YMMWORD PTR [rsp+0x4f],ymm0
  204049:	c5 fe 6f 05 af e4 ff 	vmovdqu ymm0,YMMWORD PTR [rip+0xffffffffffffe4af]        # 202500 <__unnamed_2>
  204050:	ff 
  204051:	c5 fe 7f 44 24 30    	vmovdqu YMMWORD PTR [rsp+0x30],ymm0
        const digit = a % base;
  204057:	4c 89 e2             	mov    rdx,r12
  20405a:	48 b8 cd cc cc cc cc 	movabs rax,0xcccccccccccccccd
  204061:	cc cc cc 
  204064:	c4 e2 fb f6 c8       	mulx   rcx,rax,rax
  204069:	c1 e9 02             	shr    ecx,0x2
  20406c:	81 e1 fe ff ff 3f    	and    ecx,0x3ffffffe
  204072:	8d 0c 89             	lea    ecx,[rcx+rcx*4]
  204075:	44 89 e0             	mov    eax,r12d
  204078:	29 c8                	sub    eax,ecx
        0...9 => digit + '0',
  20407a:	b1 30                	mov    cl,0x30
  20407c:	3c 0a                	cmp    al,0xa
  20407e:	72 02                	jb     204082 <dumpCurrentStackTrace+0xcf2>
  204080:	b1 57                	mov    cl,0x57
  204082:	00 c1                	add    cl,al
        buf[index] = digitToChar(@intCast(u8, digit), uppercase);
  204084:	88 4c 24 6f          	mov    BYTE PTR [rsp+0x6f],cl
  204088:	b8 40 00 00 00       	mov    eax,0x40
        if (a == 0) break;
  20408d:	49 83 fc 0a          	cmp    r12,0xa
  204091:	73 0d                	jae    2040a0 <dumpCurrentStackTrace+0xd10>
  204093:	48 8d 4c 24 6f       	lea    rcx,[rsp+0x6f]
  204098:	eb 58                	jmp    2040f2 <dumpCurrentStackTrace+0xd62>
  20409a:	66 0f 1f 44 00 00    	nop    WORD PTR [rax+rax*1+0x0]
        a /= base;
  2040a0:	4c 89 e2             	mov    rdx,r12
  2040a3:	48 b9 cd cc cc cc cc 	movabs rcx,0xcccccccccccccccd
  2040aa:	cc cc cc 
  2040ad:	48 89 ce             	mov    rsi,rcx
  2040b0:	c4 e2 f3 f6 d6       	mulx   rdx,rcx,rsi
  2040b5:	48 c1 ea 03          	shr    rdx,0x3
        const digit = a % base;
  2040b9:	c4 e2 f3 f6 f6       	mulx   rsi,rcx,rsi
  2040be:	c1 ee 02             	shr    esi,0x2
  2040c1:	81 e6 fe ff ff 3f    	and    esi,0x3ffffffe
  2040c7:	8d 34 b6             	lea    esi,[rsi+rsi*4]
  2040ca:	89 d1                	mov    ecx,edx
  2040cc:	29 f1                	sub    ecx,esi
        0...9 => digit + '0',
  2040ce:	b3 30                	mov    bl,0x30
  2040d0:	80 f9 0a             	cmp    cl,0xa
  2040d3:	72 02                	jb     2040d7 <dumpCurrentStackTrace+0xd47>
  2040d5:	b3 57                	mov    bl,0x57
  2040d7:	00 cb                	add    bl,cl
        buf[index] = digitToChar(@intCast(u8, digit), uppercase);
  2040d9:	88 5c 04 2e          	mov    BYTE PTR [rsp+rax*1+0x2e],bl
        if (a == 0) break;
  2040dd:	48 83 c0 ff          	add    rax,0xffffffffffffffff
  2040e1:	49 83 fc 63          	cmp    r12,0x63
  2040e5:	49 89 d4             	mov    r12,rdx
  2040e8:	77 b6                	ja     2040a0 <dumpCurrentStackTrace+0xd10>
        const padded_buf = buf[index - padding ..];
  2040ea:	48 8d 0c 04          	lea    rcx,[rsp+rax*1]
  2040ee:	48 83 c1 2f          	add    rcx,0x2f
  2040f2:	ba 41 00 00 00       	mov    edx,0x41
  2040f7:	48 29 c2             	sub    rdx,rax
  2040fa:	48 89 4c 24 10       	mov    QWORD PTR [rsp+0x10],rcx
  2040ff:	48 89 54 24 18       	mov    QWORD PTR [rsp+0x18],rdx
  204104:	4c 8b 64 24 70       	mov    r12,QWORD PTR [rsp+0x70]
        return output(context, padded_buf);
  204109:	4c 89 e7             	mov    rdi,r12
  20410c:	48 8d 74 24 10       	lea    rsi,[rsp+0x10]
  204111:	c5 f8 77             	vzeroupper 
  204114:	41 ff d6             	call   r14
  204117:	41 89 c7             	mov    r15d,eax
                    try formatType(args[next_arg], fmt[0..0], context, Errors, output);
  20411a:	66 45 85 ff          	test   r15w,r15w
  20411e:	0f 85 dd 08 00 00    	jne    204a01 <dumpCurrentStackTrace+0x1671>
                        try output(context, fmt[start_index..i]);
  204124:	4c 89 e7             	mov    rdi,r12
  204127:	48 8d 35 b2 02 01 00 	lea    rsi,[rip+0x102b2]        # 2143e0 <__unnamed_19>
  20412e:	41 ff d6             	call   r14
  204131:	41 89 c7             	mov    r15d,eax
  204134:	66 45 85 ff          	test   r15w,r15w
  204138:	0f 85 c3 08 00 00    	jne    204a01 <dumpCurrentStackTrace+0x1671>
    var buf: [max_int_digits - 1]u8 = undefined;
  20413e:	c5 fc 10 05 d9 e3 ff 	vmovups ymm0,YMMWORD PTR [rip+0xffffffffffffe3d9]        # 20251f <__unnamed_2+0x1f>
  204145:	ff 
  204146:	c5 fc 11 44 24 4f    	vmovups YMMWORD PTR [rsp+0x4f],ymm0
  20414c:	c5 fe 6f 05 ac e3 ff 	vmovdqu ymm0,YMMWORD PTR [rip+0xffffffffffffe3ac]        # 202500 <__unnamed_2>
  204153:	ff 
  204154:	c5 fe 7f 44 24 30    	vmovdqu YMMWORD PTR [rsp+0x30],ymm0
  20415a:	48 8b 54 24 78       	mov    rdx,QWORD PTR [rsp+0x78]
        const digit = a % base;
  20415f:	48 b8 cd cc cc cc cc 	movabs rax,0xcccccccccccccccd
  204166:	cc cc cc 
  204169:	c4 e2 fb f6 c8       	mulx   rcx,rax,rax
  20416e:	c1 e9 02             	shr    ecx,0x2
  204171:	81 e1 fe ff ff 3f    	and    ecx,0x3ffffffe
  204177:	8d 0c 89             	lea    ecx,[rcx+rcx*4]
  20417a:	89 d0                	mov    eax,edx
  20417c:	29 c8                	sub    eax,ecx
        0...9 => digit + '0',
  20417e:	b1 30                	mov    cl,0x30
  204180:	3c 0a                	cmp    al,0xa
  204182:	72 02                	jb     204186 <dumpCurrentStackTrace+0xdf6>
  204184:	b1 57                	mov    cl,0x57
  204186:	00 c1                	add    cl,al
        buf[index] = digitToChar(@intCast(u8, digit), uppercase);
  204188:	88 4c 24 6f          	mov    BYTE PTR [rsp+0x6f],cl
  20418c:	b9 40 00 00 00       	mov    ecx,0x40
        if (a == 0) break;
  204191:	48 83 fa 0a          	cmp    rdx,0xa
  204195:	0f 83 62 03 00 00    	jae    2044fd <dumpCurrentStackTrace+0x116d>
  20419b:	48 8d 44 24 6f       	lea    rax,[rsp+0x6f]
  2041a0:	e9 af 03 00 00       	jmp    204554 <dumpCurrentStackTrace+0x11c4>
                const casted_value = ([]const u8)(value);
  2041a5:	48 8d 84 24 90 00 00 	lea    rax,[rsp+0x90]
  2041ac:	00 
  2041ad:	c5 fa 6f 00          	vmovdqu xmm0,XMMWORD PTR [rax]
  2041b1:	c5 f9 7f 44 24 30    	vmovdqa XMMWORD PTR [rsp+0x30],xmm0
                return output(context, casted_value);
  2041b7:	48 89 df             	mov    rdi,rbx
  2041ba:	48 8d 74 24 30       	lea    rsi,[rsp+0x30]
  2041bf:	c5 f8 77             	vzeroupper 
  2041c2:	41 ff d6             	call   r14
  2041c5:	41 89 c7             	mov    r15d,eax
                    try formatType(args[next_arg], fmt[0..0], context, Errors, output);
  2041c8:	66 45 85 ff          	test   r15w,r15w
  2041cc:	0f 85 01 08 00 00    	jne    2049d3 <dumpCurrentStackTrace+0x1643>
                        try output(context, fmt[start_index..i]);
  2041d2:	48 89 df             	mov    rdi,rbx
  2041d5:	48 8d 35 44 02 01 00 	lea    rsi,[rip+0x10244]        # 214420 <__unnamed_20>
  2041dc:	41 ff d6             	call   r14
  2041df:	41 89 c7             	mov    r15d,eax
  2041e2:	66 45 85 ff          	test   r15w,r15w
  2041e6:	0f 85 f9 07 00 00    	jne    2049e5 <dumpCurrentStackTrace+0x1655>
    var buf: [max_int_digits - 1]u8 = undefined;
  2041ec:	c5 fc 10 05 2b e3 ff 	vmovups ymm0,YMMWORD PTR [rip+0xffffffffffffe32b]        # 20251f <__unnamed_2+0x1f>
  2041f3:	ff 
  2041f4:	c5 fc 11 44 24 4f    	vmovups YMMWORD PTR [rsp+0x4f],ymm0
  2041fa:	c5 fe 6f 05 fe e2 ff 	vmovdqu ymm0,YMMWORD PTR [rip+0xffffffffffffe2fe]        # 202500 <__unnamed_2>
  204201:	ff 
  204202:	c5 fe 7f 44 24 30    	vmovdqu YMMWORD PTR [rsp+0x30],ymm0
        const digit = a % base;
  204208:	4c 89 e2             	mov    rdx,r12
  20420b:	48 b8 cd cc cc cc cc 	movabs rax,0xcccccccccccccccd
  204212:	cc cc cc 
  204215:	c4 e2 fb f6 c8       	mulx   rcx,rax,rax
  20421a:	c1 e9 02             	shr    ecx,0x2
  20421d:	81 e1 fe ff ff 3f    	and    ecx,0x3ffffffe
  204223:	8d 0c 89             	lea    ecx,[rcx+rcx*4]
  204226:	44 89 e0             	mov    eax,r12d
  204229:	29 c8                	sub    eax,ecx
        0...9 => digit + '0',
  20422b:	b1 30                	mov    cl,0x30
  20422d:	3c 0a                	cmp    al,0xa
  20422f:	72 02                	jb     204233 <dumpCurrentStackTrace+0xea3>
  204231:	b1 57                	mov    cl,0x57
  204233:	00 c1                	add    cl,al
        buf[index] = digitToChar(@intCast(u8, digit), uppercase);
  204235:	88 4c 24 6f          	mov    BYTE PTR [rsp+0x6f],cl
  204239:	b8 40 00 00 00       	mov    eax,0x40
        if (a == 0) break;
  20423e:	49 83 fc 0a          	cmp    r12,0xa
  204242:	73 0c                	jae    204250 <dumpCurrentStackTrace+0xec0>
  204244:	48 8d 4c 24 6f       	lea    rcx,[rsp+0x6f]
  204249:	eb 57                	jmp    2042a2 <dumpCurrentStackTrace+0xf12>
  20424b:	0f 1f 44 00 00       	nop    DWORD PTR [rax+rax*1+0x0]
        a /= base;
  204250:	4c 89 e2             	mov    rdx,r12
  204253:	48 b9 cd cc cc cc cc 	movabs rcx,0xcccccccccccccccd
  20425a:	cc cc cc 
  20425d:	48 89 ce             	mov    rsi,rcx
  204260:	c4 e2 f3 f6 d6       	mulx   rdx,rcx,rsi
  204265:	48 c1 ea 03          	shr    rdx,0x3
        const digit = a % base;
  204269:	c4 e2 f3 f6 f6       	mulx   rsi,rcx,rsi
  20426e:	c1 ee 02             	shr    esi,0x2
  204271:	81 e6 fe ff ff 3f    	and    esi,0x3ffffffe
  204277:	8d 34 b6             	lea    esi,[rsi+rsi*4]
  20427a:	89 d1                	mov    ecx,edx
  20427c:	29 f1                	sub    ecx,esi
        0...9 => digit + '0',
  20427e:	b3 30                	mov    bl,0x30
  204280:	80 f9 0a             	cmp    cl,0xa
  204283:	72 02                	jb     204287 <dumpCurrentStackTrace+0xef7>
  204285:	b3 57                	mov    bl,0x57
  204287:	00 cb                	add    bl,cl
        buf[index] = digitToChar(@intCast(u8, digit), uppercase);
  204289:	88 5c 04 2e          	mov    BYTE PTR [rsp+rax*1+0x2e],bl
        if (a == 0) break;
  20428d:	48 83 c0 ff          	add    rax,0xffffffffffffffff
  204291:	49 83 fc 63          	cmp    r12,0x63
  204295:	49 89 d4             	mov    r12,rdx
  204298:	77 b6                	ja     204250 <dumpCurrentStackTrace+0xec0>
        const padded_buf = buf[index - padding ..];
  20429a:	48 8d 0c 04          	lea    rcx,[rsp+rax*1]
  20429e:	48 83 c1 2f          	add    rcx,0x2f
  2042a2:	ba 41 00 00 00       	mov    edx,0x41
  2042a7:	48 29 c2             	sub    rdx,rax
  2042aa:	48 89 4c 24 10       	mov    QWORD PTR [rsp+0x10],rcx
  2042af:	48 89 54 24 18       	mov    QWORD PTR [rsp+0x18],rdx
  2042b4:	4c 8b 64 24 70       	mov    r12,QWORD PTR [rsp+0x70]
        return output(context, padded_buf);
  2042b9:	4c 89 e7             	mov    rdi,r12
  2042bc:	48 8d 74 24 10       	lea    rsi,[rsp+0x10]
  2042c1:	c5 f8 77             	vzeroupper 
  2042c4:	41 ff d6             	call   r14
  2042c7:	41 89 c7             	mov    r15d,eax
                    try formatType(args[next_arg], fmt[0..0], context, Errors, output);
  2042ca:	66 45 85 ff          	test   r15w,r15w
  2042ce:	0f 85 2d 07 00 00    	jne    204a01 <dumpCurrentStackTrace+0x1671>
                        try output(context, fmt[start_index..i]);
  2042d4:	4c 89 e7             	mov    rdi,r12
  2042d7:	48 8d 35 52 01 01 00 	lea    rsi,[rip+0x10152]        # 214430 <__unnamed_21>
  2042de:	41 ff d6             	call   r14
  2042e1:	41 89 c7             	mov    r15d,eax
  2042e4:	66 45 85 ff          	test   r15w,r15w
  2042e8:	0f 85 13 07 00 00    	jne    204a01 <dumpCurrentStackTrace+0x1671>
    var buf: [max_int_digits - 1]u8 = undefined;
  2042ee:	c5 fc 10 05 29 e2 ff 	vmovups ymm0,YMMWORD PTR [rip+0xffffffffffffe229]        # 20251f <__unnamed_2+0x1f>
  2042f5:	ff 
  2042f6:	c5 fc 11 44 24 4f    	vmovups YMMWORD PTR [rsp+0x4f],ymm0
  2042fc:	c5 fe 6f 05 fc e1 ff 	vmovdqu ymm0,YMMWORD PTR [rip+0xffffffffffffe1fc]        # 202500 <__unnamed_2>
  204303:	ff 
  204304:	c5 fe 7f 44 24 30    	vmovdqu YMMWORD PTR [rsp+0x30],ymm0
  20430a:	48 8b 7c 24 78       	mov    rdi,QWORD PTR [rsp+0x78]
        const digit = a % base;
  20430f:	48 89 fa             	mov    rdx,rdi
  204312:	48 b8 cd cc cc cc cc 	movabs rax,0xcccccccccccccccd
  204319:	cc cc cc 
  20431c:	c4 e2 fb f6 c8       	mulx   rcx,rax,rax
  204321:	c1 e9 02             	shr    ecx,0x2
  204324:	81 e1 fe ff ff 3f    	and    ecx,0x3ffffffe
  20432a:	8d 0c 89             	lea    ecx,[rcx+rcx*4]
  20432d:	89 f8                	mov    eax,edi
  20432f:	29 c8                	sub    eax,ecx
        0...9 => digit + '0',
  204331:	b1 30                	mov    cl,0x30
  204333:	3c 0a                	cmp    al,0xa
  204335:	72 02                	jb     204339 <dumpCurrentStackTrace+0xfa9>
  204337:	b1 57                	mov    cl,0x57
  204339:	00 c1                	add    cl,al
        buf[index] = digitToChar(@intCast(u8, digit), uppercase);
  20433b:	88 4c 24 6f          	mov    BYTE PTR [rsp+0x6f],cl
  20433f:	b8 40 00 00 00       	mov    eax,0x40
        if (a == 0) break;
  204344:	48 83 ff 0a          	cmp    rdi,0xa
  204348:	73 16                	jae    204360 <dumpCurrentStackTrace+0xfd0>
  20434a:	48 8d 4c 24 6f       	lea    rcx,[rsp+0x6f]
  20434f:	eb 61                	jmp    2043b2 <dumpCurrentStackTrace+0x1022>
  204351:	66 66 66 66 66 66 2e 	data16 data16 data16 data16 data16 nop WORD PTR cs:[rax+rax*1+0x0]
  204358:	0f 1f 84 00 00 00 00 
  20435f:	00 
        a /= base;
  204360:	48 89 fa             	mov    rdx,rdi
  204363:	48 b9 cd cc cc cc cc 	movabs rcx,0xcccccccccccccccd
  20436a:	cc cc cc 
  20436d:	48 89 ce             	mov    rsi,rcx
  204370:	c4 e2 f3 f6 d6       	mulx   rdx,rcx,rsi
  204375:	48 c1 ea 03          	shr    rdx,0x3
        const digit = a % base;
  204379:	c4 e2 f3 f6 f6       	mulx   rsi,rcx,rsi
  20437e:	c1 ee 02             	shr    esi,0x2
  204381:	81 e6 fe ff ff 3f    	and    esi,0x3ffffffe
  204387:	8d 34 b6             	lea    esi,[rsi+rsi*4]
  20438a:	89 d1                	mov    ecx,edx
  20438c:	29 f1                	sub    ecx,esi
        0...9 => digit + '0',
  20438e:	b3 30                	mov    bl,0x30
  204390:	80 f9 0a             	cmp    cl,0xa
  204393:	72 02                	jb     204397 <dumpCurrentStackTrace+0x1007>
  204395:	b3 57                	mov    bl,0x57
  204397:	00 cb                	add    bl,cl
        buf[index] = digitToChar(@intCast(u8, digit), uppercase);
  204399:	88 5c 04 2e          	mov    BYTE PTR [rsp+rax*1+0x2e],bl
        if (a == 0) break;
  20439d:	48 83 c0 ff          	add    rax,0xffffffffffffffff
  2043a1:	48 83 ff 63          	cmp    rdi,0x63
  2043a5:	48 89 d7             	mov    rdi,rdx
  2043a8:	77 b6                	ja     204360 <dumpCurrentStackTrace+0xfd0>
        const padded_buf = buf[index - padding ..];
  2043aa:	48 8d 0c 04          	lea    rcx,[rsp+rax*1]
  2043ae:	48 83 c1 2f          	add    rcx,0x2f
  2043b2:	ba 41 00 00 00       	mov    edx,0x41
  2043b7:	48 29 c2             	sub    rdx,rax
  2043ba:	48 89 4c 24 10       	mov    QWORD PTR [rsp+0x10],rcx
  2043bf:	48 89 54 24 18       	mov    QWORD PTR [rsp+0x18],rdx
        return output(context, padded_buf);
  2043c4:	4c 89 e7             	mov    rdi,r12
  2043c7:	48 8d 74 24 10       	lea    rsi,[rsp+0x10]
  2043cc:	c5 f8 77             	vzeroupper 
  2043cf:	41 ff d6             	call   r14
  2043d2:	41 89 c7             	mov    r15d,eax
                    try formatType(args[next_arg], fmt[0..0], context, Errors, output);
  2043d5:	66 45 85 ff          	test   r15w,r15w
  2043d9:	0f 85 22 06 00 00    	jne    204a01 <dumpCurrentStackTrace+0x1671>
                        try output(context, fmt[start_index..i]);
  2043df:	4c 89 e7             	mov    rdi,r12
  2043e2:	48 8d 35 57 00 01 00 	lea    rsi,[rip+0x10057]        # 214440 <__unnamed_22>
  2043e9:	41 ff d6             	call   r14
  2043ec:	41 89 c7             	mov    r15d,eax
  2043ef:	66 45 85 ff          	test   r15w,r15w
  2043f3:	0f 85 08 06 00 00    	jne    204a01 <dumpCurrentStackTrace+0x1671>
    var buf: [max_int_digits - 1]u8 = undefined;
  2043f9:	c5 fc 10 05 1e e1 ff 	vmovups ymm0,YMMWORD PTR [rip+0xffffffffffffe11e]        # 20251f <__unnamed_2+0x1f>
  204400:	ff 
  204401:	c5 fc 11 44 24 4f    	vmovups YMMWORD PTR [rsp+0x4f],ymm0
  204407:	c5 fe 6f 05 f1 e0 ff 	vmovdqu ymm0,YMMWORD PTR [rip+0xffffffffffffe0f1]        # 202500 <__unnamed_2>
  20440e:	ff 
  20440f:	c5 fe 7f 44 24 30    	vmovdqu YMMWORD PTR [rsp+0x30],ymm0
        buf[index] = digitToChar(@intCast(u8, digit), uppercase);
  204415:	44 89 e8             	mov    eax,r13d
  204418:	24 0f                	and    al,0xf
        0...9 => digit + '0',
  20441a:	b1 30                	mov    cl,0x30
  20441c:	3c 0a                	cmp    al,0xa
  20441e:	72 02                	jb     204422 <dumpCurrentStackTrace+0x1092>
  204420:	b1 57                	mov    cl,0x57
  204422:	00 c1                	add    cl,al
        buf[index] = digitToChar(@intCast(u8, digit), uppercase);
  204424:	88 4c 24 6f          	mov    BYTE PTR [rsp+0x6f],cl
  204428:	b8 40 00 00 00       	mov    eax,0x40
        if (a == 0) break;
  20442d:	49 83 fd 10          	cmp    r13,0x10
  204431:	0f 83 ac 01 00 00    	jae    2045e3 <dumpCurrentStackTrace+0x1253>
  204437:	48 8d 4c 24 6f       	lea    rcx,[rsp+0x6f]
  20443c:	e9 df 01 00 00       	jmp    204620 <dumpCurrentStackTrace+0x1290>
        a /= base;
  204441:	4c 89 e9             	mov    rcx,r13
  204444:	66 66 66 2e 0f 1f 84 	data16 data16 nop WORD PTR cs:[rax+rax*1+0x0]
  20444b:	00 00 00 00 00 
  204450:	48 c1 e9 04          	shr    rcx,0x4
        buf[index] = digitToChar(@intCast(u8, digit), uppercase);
  204454:	89 ca                	mov    edx,ecx
  204456:	80 e2 0f             	and    dl,0xf
        0...9 => digit + '0',
  204459:	b3 30                	mov    bl,0x30
  20445b:	80 fa 0a             	cmp    dl,0xa
  20445e:	72 02                	jb     204462 <dumpCurrentStackTrace+0x10d2>
  204460:	b3 57                	mov    bl,0x57
  204462:	00 d3                	add    bl,dl
        buf[index] = digitToChar(@intCast(u8, digit), uppercase);
  204464:	88 5c 04 2e          	mov    BYTE PTR [rsp+rax*1+0x2e],bl
        if (a == 0) break;
  204468:	48 83 c0 ff          	add    rax,0xffffffffffffffff
  20446c:	49 81 fd ff 00 00 00 	cmp    r13,0xff
  204473:	49 89 cd             	mov    r13,rcx
  204476:	77 d8                	ja     204450 <dumpCurrentStackTrace+0x10c0>
        const padded_buf = buf[index - padding ..];
  204478:	48 8d 0c 04          	lea    rcx,[rsp+rax*1]
  20447c:	48 83 c1 2f          	add    rcx,0x2f
  204480:	ba 41 00 00 00       	mov    edx,0x41
  204485:	48 29 c2             	sub    rdx,rax
  204488:	48 89 4c 24 10       	mov    QWORD PTR [rsp+0x10],rcx
  20448d:	48 89 54 24 18       	mov    QWORD PTR [rsp+0x18],rdx
        return output(context, padded_buf);
  204492:	4c 89 e7             	mov    rdi,r12
  204495:	48 8d 74 24 10       	lea    rsi,[rsp+0x10]
  20449a:	c5 f8 77             	vzeroupper 
  20449d:	41 ff d6             	call   r14
  2044a0:	41 89 c7             	mov    r15d,eax
                    try formatType(args[next_arg], fmt[s..i], context, Errors, output);
  2044a3:	66 45 85 ff          	test   r15w,r15w
  2044a7:	0f 85 b3 f8 ff ff    	jne    203d60 <dumpCurrentStackTrace+0x9d0>
                        try output(context, fmt[start_index..i]);
  2044ad:	4c 89 e7             	mov    rdi,r12
  2044b0:	48 8d 35 c9 ff 00 00 	lea    rsi,[rip+0xffc9]        # 214480 <__unnamed_23>
  2044b7:	41 ff d6             	call   r14
  2044ba:	41 89 c7             	mov    r15d,eax
  2044bd:	66 45 85 ff          	test   r15w,r15w
  2044c1:	0f 85 99 f8 ff ff    	jne    203d60 <dumpCurrentStackTrace+0x9d0>
                const casted_value = ([]const u8)(value);
  2044c7:	c5 f9 6f 84 24 20 01 	vmovdqa xmm0,XMMWORD PTR [rsp+0x120]
  2044ce:	00 00 
  2044d0:	c5 f9 7f 44 24 30    	vmovdqa XMMWORD PTR [rsp+0x30],xmm0
                return output(context, casted_value);
  2044d6:	4c 89 e7             	mov    rdi,r12
  2044d9:	48 8d 74 24 30       	lea    rsi,[rsp+0x30]
  2044de:	41 ff d6             	call   r14
  2044e1:	41 89 c7             	mov    r15d,eax
                    try formatType(args[next_arg], fmt[0..0], context, Errors, output);
  2044e4:	66 45 85 ff          	test   r15w,r15w
  2044e8:	0f 85 72 f8 ff ff    	jne    203d60 <dumpCurrentStackTrace+0x9d0>
        try output(context, fmt[start_index..]);
  2044ee:	4c 89 e7             	mov    rdi,r12
  2044f1:	48 8d 35 98 ff 00 00 	lea    rsi,[rip+0xff98]        # 214490 <__unnamed_24>
  2044f8:	e9 56 f8 ff ff       	jmp    203d53 <dumpCurrentStackTrace+0x9c3>
  2044fd:	48 89 d0             	mov    rax,rdx
        a /= base;
  204500:	48 89 c2             	mov    rdx,rax
  204503:	48 be cd cc cc cc cc 	movabs rsi,0xcccccccccccccccd
  20450a:	cc cc cc 
  20450d:	48 89 f7             	mov    rdi,rsi
  204510:	c4 e2 cb f6 d7       	mulx   rdx,rsi,rdi
  204515:	48 c1 ea 03          	shr    rdx,0x3
        const digit = a % base;
  204519:	c4 e2 cb f6 ff       	mulx   rdi,rsi,rdi
  20451e:	c1 ef 02             	shr    edi,0x2
  204521:	81 e7 fe ff ff 3f    	and    edi,0x3ffffffe
  204527:	8d 3c bf             	lea    edi,[rdi+rdi*4]
  20452a:	89 d6                	mov    esi,edx
  20452c:	29 fe                	sub    esi,edi
        0...9 => digit + '0',
  20452e:	b3 30                	mov    bl,0x30
  204530:	40 80 fe 0a          	cmp    sil,0xa
  204534:	72 02                	jb     204538 <dumpCurrentStackTrace+0x11a8>
  204536:	b3 57                	mov    bl,0x57
  204538:	40 00 f3             	add    bl,sil
        buf[index] = digitToChar(@intCast(u8, digit), uppercase);
  20453b:	88 5c 0c 2e          	mov    BYTE PTR [rsp+rcx*1+0x2e],bl
        if (a == 0) break;
  20453f:	48 83 c1 ff          	add    rcx,0xffffffffffffffff
  204543:	48 83 f8 63          	cmp    rax,0x63
  204547:	48 89 d0             	mov    rax,rdx
  20454a:	77 b4                	ja     204500 <dumpCurrentStackTrace+0x1170>
        const padded_buf = buf[index - padding ..];
  20454c:	48 8d 04 0c          	lea    rax,[rsp+rcx*1]
  204550:	48 83 c0 2f          	add    rax,0x2f
  204554:	ba 41 00 00 00       	mov    edx,0x41
  204559:	48 29 ca             	sub    rdx,rcx
  20455c:	48 89 44 24 10       	mov    QWORD PTR [rsp+0x10],rax
  204561:	48 89 54 24 18       	mov    QWORD PTR [rsp+0x18],rdx
        return output(context, padded_buf);
  204566:	4c 89 e7             	mov    rdi,r12
  204569:	48 8d 74 24 10       	lea    rsi,[rsp+0x10]
  20456e:	c5 f8 77             	vzeroupper 
  204571:	41 ff d6             	call   r14
  204574:	41 89 c7             	mov    r15d,eax
                    try formatType(args[next_arg], fmt[0..0], context, Errors, output);
  204577:	66 45 85 ff          	test   r15w,r15w
  20457b:	0f 85 80 04 00 00    	jne    204a01 <dumpCurrentStackTrace+0x1671>
                        try output(context, fmt[start_index..i]);
  204581:	4c 89 e7             	mov    rdi,r12
  204584:	48 8d 35 65 fe 00 00 	lea    rsi,[rip+0xfe65]        # 2143f0 <__unnamed_25>
  20458b:	41 ff d6             	call   r14
  20458e:	41 89 c7             	mov    r15d,eax
  204591:	66 45 85 ff          	test   r15w,r15w
  204595:	0f 85 66 04 00 00    	jne    204a01 <dumpCurrentStackTrace+0x1671>
    var buf: [max_int_digits - 1]u8 = undefined;
  20459b:	c5 fc 10 05 7c df ff 	vmovups ymm0,YMMWORD PTR [rip+0xffffffffffffdf7c]        # 20251f <__unnamed_2+0x1f>
  2045a2:	ff 
  2045a3:	c5 fc 11 44 24 4f    	vmovups YMMWORD PTR [rsp+0x4f],ymm0
  2045a9:	c5 fe 6f 05 4f df ff 	vmovdqu ymm0,YMMWORD PTR [rip+0xffffffffffffdf4f]        # 202500 <__unnamed_2>
  2045b0:	ff 
  2045b1:	c5 fe 7f 44 24 30    	vmovdqu YMMWORD PTR [rsp+0x30],ymm0
        buf[index] = digitToChar(@intCast(u8, digit), uppercase);
  2045b7:	44 89 e8             	mov    eax,r13d
  2045ba:	24 0f                	and    al,0xf
        0...9 => digit + '0',
  2045bc:	b1 30                	mov    cl,0x30
  2045be:	3c 0a                	cmp    al,0xa
  2045c0:	72 02                	jb     2045c4 <dumpCurrentStackTrace+0x1234>
  2045c2:	b1 57                	mov    cl,0x57
  2045c4:	00 c1                	add    cl,al
        buf[index] = digitToChar(@intCast(u8, digit), uppercase);
  2045c6:	88 4c 24 6f          	mov    BYTE PTR [rsp+0x6f],cl
  2045ca:	b8 40 00 00 00       	mov    eax,0x40
        if (a == 0) break;
  2045cf:	49 83 fd 10          	cmp    r13,0x10
  2045d3:	0f 83 d4 00 00 00    	jae    2046ad <dumpCurrentStackTrace+0x131d>
  2045d9:	48 8d 4c 24 6f       	lea    rcx,[rsp+0x6f]
  2045de:	e9 fd 00 00 00       	jmp    2046e0 <dumpCurrentStackTrace+0x1350>
        a /= base;
  2045e3:	4c 89 e9             	mov    rcx,r13
  2045e6:	66 2e 0f 1f 84 00 00 	nop    WORD PTR cs:[rax+rax*1+0x0]
  2045ed:	00 00 00 
  2045f0:	48 c1 e9 04          	shr    rcx,0x4
        buf[index] = digitToChar(@intCast(u8, digit), uppercase);
  2045f4:	89 ca                	mov    edx,ecx
  2045f6:	80 e2 0f             	and    dl,0xf
        0...9 => digit + '0',
  2045f9:	b3 30                	mov    bl,0x30
  2045fb:	80 fa 0a             	cmp    dl,0xa
  2045fe:	72 02                	jb     204602 <dumpCurrentStackTrace+0x1272>
  204600:	b3 57                	mov    bl,0x57
  204602:	00 d3                	add    bl,dl
        buf[index] = digitToChar(@intCast(u8, digit), uppercase);
  204604:	88 5c 04 2e          	mov    BYTE PTR [rsp+rax*1+0x2e],bl
        if (a == 0) break;
  204608:	48 83 c0 ff          	add    rax,0xffffffffffffffff
  20460c:	49 81 fd ff 00 00 00 	cmp    r13,0xff
  204613:	49 89 cd             	mov    r13,rcx
  204616:	77 d8                	ja     2045f0 <dumpCurrentStackTrace+0x1260>
        const padded_buf = buf[index - padding ..];
  204618:	48 8d 0c 04          	lea    rcx,[rsp+rax*1]
  20461c:	48 83 c1 2f          	add    rcx,0x2f
  204620:	ba 41 00 00 00       	mov    edx,0x41
  204625:	48 29 c2             	sub    rdx,rax
  204628:	48 89 4c 24 10       	mov    QWORD PTR [rsp+0x10],rcx
  20462d:	48 89 54 24 18       	mov    QWORD PTR [rsp+0x18],rdx
        return output(context, padded_buf);
  204632:	4c 89 e7             	mov    rdi,r12
  204635:	48 8d 74 24 10       	lea    rsi,[rsp+0x10]
  20463a:	c5 f8 77             	vzeroupper 
  20463d:	41 ff d6             	call   r14
  204640:	41 89 c7             	mov    r15d,eax
                    try formatType(args[next_arg], fmt[s..i], context, Errors, output);
  204643:	66 45 85 ff          	test   r15w,r15w
  204647:	0f 85 b4 03 00 00    	jne    204a01 <dumpCurrentStackTrace+0x1671>
                        try output(context, fmt[start_index..i]);
  20464d:	4c 89 e7             	mov    rdi,r12
  204650:	48 8d 35 f9 fd 00 00 	lea    rsi,[rip+0xfdf9]        # 214450 <__unnamed_26>
  204657:	41 ff d6             	call   r14
  20465a:	41 89 c7             	mov    r15d,eax
  20465d:	66 45 85 ff          	test   r15w,r15w
  204661:	0f 85 9a 03 00 00    	jne    204a01 <dumpCurrentStackTrace+0x1671>
                const casted_value = ([]const u8)(value);
  204667:	c5 f9 6f 84 24 20 01 	vmovdqa xmm0,XMMWORD PTR [rsp+0x120]
  20466e:	00 00 
  204670:	c5 f9 7f 44 24 30    	vmovdqa XMMWORD PTR [rsp+0x30],xmm0
                return output(context, casted_value);
  204676:	4c 89 e7             	mov    rdi,r12
  204679:	48 8d 74 24 30       	lea    rsi,[rsp+0x30]
  20467e:	41 ff d6             	call   r14
  204681:	41 89 c7             	mov    r15d,eax
                    try formatType(args[next_arg], fmt[0..0], context, Errors, output);
  204684:	66 45 85 ff          	test   r15w,r15w
  204688:	0f 85 73 03 00 00    	jne    204a01 <dumpCurrentStackTrace+0x1671>
        try output(context, fmt[start_index..]);
  20468e:	4c 89 e7             	mov    rdi,r12
  204691:	48 8d 35 c8 fd 00 00 	lea    rsi,[rip+0xfdc8]        # 214460 <__unnamed_27>
  204698:	41 ff d6             	call   r14
  20469b:	41 89 c7             	mov    r15d,eax
                    try out_stream.print(
  20469e:	66 45 85 ff          	test   r15w,r15w
  2046a2:	0f 84 3e 02 00 00    	je     2048e6 <dumpCurrentStackTrace+0x1556>
  2046a8:	e9 54 03 00 00       	jmp    204a01 <dumpCurrentStackTrace+0x1671>
        a /= base;
  2046ad:	4c 89 e9             	mov    rcx,r13
  2046b0:	48 c1 e9 04          	shr    rcx,0x4
        buf[index] = digitToChar(@intCast(u8, digit), uppercase);
  2046b4:	89 ca                	mov    edx,ecx
  2046b6:	80 e2 0f             	and    dl,0xf
        0...9 => digit + '0',
  2046b9:	b3 30                	mov    bl,0x30
  2046bb:	80 fa 0a             	cmp    dl,0xa
  2046be:	72 02                	jb     2046c2 <dumpCurrentStackTrace+0x1332>
  2046c0:	b3 57                	mov    bl,0x57
  2046c2:	00 d3                	add    bl,dl
        buf[index] = digitToChar(@intCast(u8, digit), uppercase);
  2046c4:	88 5c 04 2e          	mov    BYTE PTR [rsp+rax*1+0x2e],bl
        if (a == 0) break;
  2046c8:	48 83 c0 ff          	add    rax,0xffffffffffffffff
  2046cc:	49 81 fd ff 00 00 00 	cmp    r13,0xff
  2046d3:	49 89 cd             	mov    r13,rcx
  2046d6:	77 d8                	ja     2046b0 <dumpCurrentStackTrace+0x1320>
        const padded_buf = buf[index - padding ..];
  2046d8:	48 8d 0c 04          	lea    rcx,[rsp+rax*1]
  2046dc:	48 83 c1 2f          	add    rcx,0x2f
  2046e0:	ba 41 00 00 00       	mov    edx,0x41
  2046e5:	48 29 c2             	sub    rdx,rax
  2046e8:	48 89 4c 24 10       	mov    QWORD PTR [rsp+0x10],rcx
  2046ed:	48 89 54 24 18       	mov    QWORD PTR [rsp+0x18],rdx
        return output(context, padded_buf);
  2046f2:	4c 89 e7             	mov    rdi,r12
  2046f5:	48 8d 74 24 10       	lea    rsi,[rsp+0x10]
  2046fa:	c5 f8 77             	vzeroupper 
  2046fd:	41 ff d6             	call   r14
  204700:	41 89 c7             	mov    r15d,eax
                    try formatType(args[next_arg], fmt[s..i], context, Errors, output);
  204703:	66 45 85 ff          	test   r15w,r15w
  204707:	0f 85 f4 02 00 00    	jne    204a01 <dumpCurrentStackTrace+0x1671>
                        try output(context, fmt[start_index..i]);
  20470d:	4c 89 e7             	mov    rdi,r12
  204710:	48 8d 35 e9 fc 00 00 	lea    rsi,[rip+0xfce9]        # 214400 <__unnamed_28>
  204717:	41 ff d6             	call   r14
  20471a:	41 89 c7             	mov    r15d,eax
  20471d:	66 45 85 ff          	test   r15w,r15w
  204721:	0f 85 da 02 00 00    	jne    204a01 <dumpCurrentStackTrace+0x1671>
                const casted_value = ([]const u8)(value);
  204727:	c5 f9 6f 84 24 20 01 	vmovdqa xmm0,XMMWORD PTR [rsp+0x120]
  20472e:	00 00 
  204730:	c5 f9 7f 44 24 30    	vmovdqa XMMWORD PTR [rsp+0x30],xmm0
                return output(context, casted_value);
  204736:	4c 89 e7             	mov    rdi,r12
  204739:	48 8d 74 24 30       	lea    rsi,[rsp+0x30]
  20473e:	41 ff d6             	call   r14
  204741:	41 89 c7             	mov    r15d,eax
                    try formatType(args[next_arg], fmt[0..0], context, Errors, output);
  204744:	66 45 85 ff          	test   r15w,r15w
  204748:	0f 85 b3 02 00 00    	jne    204a01 <dumpCurrentStackTrace+0x1671>
        try output(context, fmt[start_index..]);
  20474e:	4c 89 e7             	mov    rdi,r12
  204751:	48 8d 35 b8 fc 00 00 	lea    rsi,[rip+0xfcb8]        # 214410 <__unnamed_29>
  204758:	41 ff d6             	call   r14
  20475b:	41 89 c7             	mov    r15d,eax
                    try out_stream.print(
  20475e:	66 45 85 ff          	test   r15w,r15w
  204762:	0f 85 99 02 00 00    	jne    204a01 <dumpCurrentStackTrace+0x1671>
  204768:	48 8b 44 24 28       	mov    rax,QWORD PTR [rsp+0x28]
  20476d:	48 8b b8 a0 00 00 00 	mov    rdi,QWORD PTR [rax+0xa0]
                    if (printLineFromFile(debug_info.allocator(), out_stream, line_info)) {
  204774:	4c 89 e6             	mov    rsi,r12
  204777:	48 8d 94 24 80 00 00 	lea    rdx,[rsp+0x80]
  20477e:	00 
  20477f:	e8 7c b1 00 00       	call   20f900 <printLineFromFile>
  204784:	41 89 c7             	mov    r15d,eax
  204787:	41 0f b7 c7          	movzx  eax,r15w
  20478b:	83 f8 24             	cmp    eax,0x24
  20478e:	0f 84 52 01 00 00    	je     2048e6 <dumpCurrentStackTrace+0x1556>
  204794:	66 45 85 ff          	test   r15w,r15w
  204798:	0f 85 84 00 00 00    	jne    204822 <dumpCurrentStackTrace+0x1492>
  20479e:	48 8b 44 24 78       	mov    rax,QWORD PTR [rsp+0x78]
                        if (line_info.column == 0) {
  2047a3:	48 85 c0             	test   rax,rax
  2047a6:	0f 84 1f 01 00 00    	je     2048cb <dumpCurrentStackTrace+0x153b>
  2047ac:	48 83 f8 01          	cmp    rax,0x1
  2047b0:	74 41                	je     2047f3 <dumpCurrentStackTrace+0x1463>
  2047b2:	bb 01 00 00 00       	mov    ebx,0x1
  2047b7:	c6 44 24 10 20       	mov    BYTE PTR [rsp+0x10],0x20
        pub fn write(self: *Self, bytes: []const u8) !void {
            return self.writeFn(self, bytes);
        }

        pub fn writeByte(self: *Self, byte: u8) !void {
            const slice = (*[1]u8)(&byte)[0..];
  2047bc:	48 8d 44 24 10       	lea    rax,[rsp+0x10]
  2047c1:	48 89 44 24 30       	mov    QWORD PTR [rsp+0x30],rax
  2047c6:	48 c7 44 24 38 01 00 	mov    QWORD PTR [rsp+0x38],0x1
  2047cd:	00 00 
            return self.writeFn(self, slice);
  2047cf:	4c 89 e7             	mov    rdi,r12
  2047d2:	48 8d 74 24 30       	lea    rsi,[rsp+0x30]
  2047d7:	41 ff 14 24          	call   QWORD PTR [r12]
  2047db:	41 89 c7             	mov    r15d,eax
                                    try out_stream.writeByte(' ');
  2047de:	66 45 85 ff          	test   r15w,r15w
  2047e2:	0f 85 19 02 00 00    	jne    204a01 <dumpCurrentStackTrace+0x1671>
  2047e8:	48 83 c3 01          	add    rbx,0x1
                                while (col_i < line_info.column) : (col_i += 1) {
  2047ec:	48 3b 5c 24 78       	cmp    rbx,QWORD PTR [rsp+0x78]
  2047f1:	72 c4                	jb     2047b7 <dumpCurrentStackTrace+0x1427>
            return self.writeFn(self, bytes);
  2047f3:	4c 89 e7             	mov    rdi,r12
  2047f6:	48 8d 35 73 fb 00 00 	lea    rsi,[rip+0xfb73]        # 214370 <__unnamed_30>
  2047fd:	41 ff 14 24          	call   QWORD PTR [r12]
  204801:	41 89 c7             	mov    r15d,eax
  204804:	66 45 85 ff          	test   r15w,r15w
  204808:	0f 84 d8 00 00 00    	je     2048e6 <dumpCurrentStackTrace+0x1556>
  20480e:	e9 29 02 00 00       	jmp    204a3c <dumpCurrentStackTrace+0x16ac>
  204813:	48 83 f9 4b          	cmp    rcx,0x4b
  204817:	0f 85 6e f6 ff ff    	jne    203e8b <dumpCurrentStackTrace+0xafb>
  20481d:	e9 5f f6 ff ff       	jmp    203e81 <dumpCurrentStackTrace+0xaf1>
        const bytes = @sliceToBytes(memory);
  204822:	48 8b 84 24 98 00 00 	mov    rax,QWORD PTR [rsp+0x98]
  204829:	00 
        if (bytes.len == 0) return;
  20482a:	48 85 c0             	test   rax,rax
  20482d:	0f 84 2d f5 ff ff    	je     203d60 <dumpCurrentStackTrace+0x9d0>
  204833:	48 8b bc 24 a0 00 00 	mov    rdi,QWORD PTR [rsp+0xa0]
  20483a:	00 
        const bytes = @sliceToBytes(memory);
  20483b:	48 8b 8c 24 90 00 00 	mov    rcx,QWORD PTR [rsp+0x90]
  204842:	00 
        self.freeFn(self, non_const_ptr[0..bytes.len]);
  204843:	48 8b 57 10          	mov    rdx,QWORD PTR [rdi+0x10]
  204847:	48 89 4c 24 30       	mov    QWORD PTR [rsp+0x30],rcx
  20484c:	48 89 44 24 38       	mov    QWORD PTR [rsp+0x38],rax
  204851:	48 8d 74 24 30       	lea    rsi,[rsp+0x30]
  204856:	ff d2                	call   rdx
  204858:	c5 7d 6f a4 24 00 01 	vmovdqa ymm12,YMMWORD PTR [rsp+0x100]
  20485f:	00 00 
  204861:	c5 7d 6f ac 24 e0 00 	vmovdqa ymm13,YMMWORD PTR [rsp+0xe0]
  204868:	00 00 
        try printSourceAtAddress(debug_info, out_stream, return_address, tty_color);
  20486a:	66 45 85 ff          	test   r15w,r15w
  20486e:	0f 84 08 f5 ff ff    	je     203d7c <dumpCurrentStackTrace+0x9ec>
  204874:	e9 fb 00 00 00       	jmp    204974 <dumpCurrentStackTrace+0x15e4>
  204879:	48 8b 4c 24 28       	mov    rcx,QWORD PTR [rsp+0x28]
            var in_file_stream = io.FileInStream.init(&self.self_exe_file);
  20487e:	48 89 8c 24 b8 00 00 	mov    QWORD PTR [rsp+0xb8],rcx
  204885:	00 
  204886:	48 8d 05 33 4e 00 00 	lea    rax,[rip+0x4e33]        # 2096c0 <FileInStream_readFn>
  20488d:	48 89 84 24 c0 00 00 	mov    QWORD PTR [rsp+0xc0],rax
  204894:	00 
  204895:	48 8b b1 a0 00 00 00 	mov    rsi,QWORD PTR [rcx+0xa0]
  20489c:	4c 8d 74 24 30       	lea    r14,[rsp+0x30]
            return readStringRaw(self.allocator(), in_stream);
  2048a1:	4c 89 f7             	mov    rdi,r14
  2048a4:	48 8d 94 24 c0 00 00 	lea    rdx,[rsp+0xc0]
  2048ab:	00 
  2048ac:	4c 89 cb             	mov    rbx,r9
  2048af:	c5 f8 77             	vzeroupper 
  2048b2:	e8 c9 8b 00 00       	call   20d480 <readStringRaw>
  2048b7:	49 89 d9             	mov    r9,rbx
        return switch (form_value.*) {
  2048ba:	4c 89 f1             	mov    rcx,r14
  2048bd:	e9 f2 f5 ff ff       	jmp    203eb4 <dumpCurrentStackTrace+0xb24>
  2048c2:	66 b8 1c 00          	mov    ax,0x1c
  2048c6:	e9 c0 f5 ff ff       	jmp    203e8b <dumpCurrentStackTrace+0xafb>
  2048cb:	4c 89 e7             	mov    rdi,r12
  2048ce:	48 8d 35 8b fa 00 00 	lea    rsi,[rip+0xfa8b]        # 214360 <__unnamed_31>
  2048d5:	41 ff 14 24          	call   QWORD PTR [r12]
  2048d9:	41 89 c7             	mov    r15d,eax
  2048dc:	66 45 85 ff          	test   r15w,r15w
  2048e0:	0f 85 56 01 00 00    	jne    204a3c <dumpCurrentStackTrace+0x16ac>
        const bytes = @sliceToBytes(memory);
  2048e6:	48 8b 84 24 98 00 00 	mov    rax,QWORD PTR [rsp+0x98]
  2048ed:	00 
        if (bytes.len == 0) return;
  2048ee:	48 85 c0             	test   rax,rax
  2048f1:	74 25                	je     204918 <dumpCurrentStackTrace+0x1588>
  2048f3:	48 8b bc 24 a0 00 00 	mov    rdi,QWORD PTR [rsp+0xa0]
  2048fa:	00 
        const bytes = @sliceToBytes(memory);
  2048fb:	48 8b 8c 24 90 00 00 	mov    rcx,QWORD PTR [rsp+0x90]
  204902:	00 
        self.freeFn(self, non_const_ptr[0..bytes.len]);
  204903:	48 8b 57 10          	mov    rdx,QWORD PTR [rdi+0x10]
  204907:	48 89 4c 24 30       	mov    QWORD PTR [rsp+0x30],rcx
  20490c:	48 89 44 24 38       	mov    QWORD PTR [rsp+0x38],rax
  204911:	48 8d 74 24 30       	lea    rsi,[rsp+0x30]
  204916:	ff d2                	call   rdx
  204918:	48 8b 8c 24 a8 00 00 	mov    rcx,QWORD PTR [rsp+0xa8]
  20491f:	00 
  204920:	48 8b 94 24 b0 00 00 	mov    rdx,QWORD PTR [rsp+0xb0]
  204927:	00 
  204928:	c5 7d 6f a4 24 00 01 	vmovdqa ymm12,YMMWORD PTR [rsp+0x100]
  20492f:	00 00 
  204931:	c5 7d 6f ac 24 e0 00 	vmovdqa ymm13,YMMWORD PTR [rsp+0xe0]
  204938:	00 00 
  20493a:	48 8b 74 24 28       	mov    rsi,QWORD PTR [rsp+0x28]
  20493f:	31 c0                	xor    eax,eax
    while (fp != 0) : (fp = @intToPtr(*const usize, fp).*) {
  204941:	48 8b 12             	mov    rdx,QWORD PTR [rdx]
  204944:	48 85 d2             	test   rdx,rdx
  204947:	0f 85 83 ed ff ff    	jne    2036d0 <dumpCurrentStackTrace+0x340>
  20494d:	eb 72                	jmp    2049c1 <dumpCurrentStackTrace+0x1631>
        const form_value = self.getAttr(id) orelse return error.MissingDebugInfo;
  20494f:	48 8b 05 5a c9 ff ff 	mov    rax,QWORD PTR [rip+0xffffffffffffc95a]        # 2012b0 <__unnamed_32+0x10>
  204956:	48 89 84 24 4e 01 00 	mov    QWORD PTR [rsp+0x14e],rax
  20495d:	00 
  20495e:	c5 fa 6f 05 3c c9 ff 	vmovdqu xmm0,XMMWORD PTR [rip+0xffffffffffffc93c]        # 2012a2 <__unnamed_32+0x2>
  204965:	ff 
  204966:	c5 f9 7f 84 24 40 01 	vmovdqa XMMWORD PTR [rsp+0x140],xmm0
  20496d:	00 00 
  20496f:	66 41 bf 22 00       	mov    r15w,0x22
            return std.fmt.format(self, Error, self.writeFn, format, args);
  204974:	49 8b 1c 24          	mov    rbx,QWORD PTR [r12]
                        try output(context, fmt[start_index..i]);
  204978:	48 8d 35 21 fb 00 00 	lea    rsi,[rip+0xfb21]        # 2144a0 <__unnamed_33>
  20497f:	4c 89 e7             	mov    rdi,r12
  204982:	c5 f8 77             	vzeroupper 
  204985:	ff d3                	call   rbx
  204987:	66 85 c0             	test   ax,ax
  20498a:	75 35                	jne    2049c1 <dumpCurrentStackTrace+0x1631>
        stderr.print("Unable to dump stack trace: {}\n", @errorName(err)) catch return;
  20498c:	49 0f bf c7          	movsx  rax,r15w
  204990:	48 c1 e0 04          	shl    rax,0x4
  204994:	48 8d 0d 65 f6 00 00 	lea    rcx,[rip+0xf665]        # 214000 <raw+0xf68>
                const casted_value = ([]const u8)(value);
  20499b:	c5 f8 10 04 08       	vmovups xmm0,XMMWORD PTR [rax+rcx*1]
  2049a0:	c5 f8 29 44 24 30    	vmovaps XMMWORD PTR [rsp+0x30],xmm0
  2049a6:	48 8d 74 24 30       	lea    rsi,[rsp+0x30]
                return output(context, casted_value);
  2049ab:	4c 89 e7             	mov    rdi,r12
  2049ae:	ff d3                	call   rbx
                    try formatType(args[next_arg], fmt[0..0], context, Errors, output);
  2049b0:	66 85 c0             	test   ax,ax
  2049b3:	75 0c                	jne    2049c1 <dumpCurrentStackTrace+0x1631>
        try output(context, fmt[start_index..]);
  2049b5:	48 8d 35 f4 fa 00 00 	lea    rsi,[rip+0xfaf4]        # 2144b0 <__unnamed_34>
  2049bc:	4c 89 e7             	mov    rdi,r12
  2049bf:	ff d3                	call   rbx
    const stderr = getStderrStream() catch return;
  2049c1:	48 8d 65 d8          	lea    rsp,[rbp-0x28]
  2049c5:	5b                   	pop    rbx
  2049c6:	41 5c                	pop    r12
  2049c8:	41 5d                	pop    r13
  2049ca:	41 5e                	pop    r14
  2049cc:	41 5f                	pop    r15
  2049ce:	5d                   	pop    rbp
  2049cf:	c5 f8 77             	vzeroupper 
  2049d2:	c3                   	ret    
  2049d3:	49 89 dc             	mov    r12,rbx
        const bytes = @sliceToBytes(memory);
  2049d6:	48 8b 84 24 98 00 00 	mov    rax,QWORD PTR [rsp+0x98]
  2049dd:	00 
        if (bytes.len == 0) return;
  2049de:	48 85 c0             	test   rax,rax
  2049e1:	75 2f                	jne    204a12 <dumpCurrentStackTrace+0x1682>
  2049e3:	eb 8f                	jmp    204974 <dumpCurrentStackTrace+0x15e4>
  2049e5:	4c 8b 64 24 70       	mov    r12,QWORD PTR [rsp+0x70]
        const bytes = @sliceToBytes(memory);
  2049ea:	48 8b 84 24 98 00 00 	mov    rax,QWORD PTR [rsp+0x98]
  2049f1:	00 
        if (bytes.len == 0) return;
  2049f2:	48 85 c0             	test   rax,rax
  2049f5:	75 1b                	jne    204a12 <dumpCurrentStackTrace+0x1682>
  2049f7:	e9 78 ff ff ff       	jmp    204974 <dumpCurrentStackTrace+0x15e4>
  2049fc:	4c 8b 64 24 70       	mov    r12,QWORD PTR [rsp+0x70]
        const bytes = @sliceToBytes(memory);
  204a01:	48 8b 84 24 98 00 00 	mov    rax,QWORD PTR [rsp+0x98]
  204a08:	00 
        if (bytes.len == 0) return;
  204a09:	48 85 c0             	test   rax,rax
  204a0c:	0f 84 62 ff ff ff    	je     204974 <dumpCurrentStackTrace+0x15e4>
  204a12:	48 8b bc 24 a0 00 00 	mov    rdi,QWORD PTR [rsp+0xa0]
  204a19:	00 
        const bytes = @sliceToBytes(memory);
  204a1a:	48 8b 8c 24 90 00 00 	mov    rcx,QWORD PTR [rsp+0x90]
  204a21:	00 
        self.freeFn(self, non_const_ptr[0..bytes.len]);
  204a22:	48 8b 57 10          	mov    rdx,QWORD PTR [rdi+0x10]
  204a26:	48 89 4c 24 30       	mov    QWORD PTR [rsp+0x30],rcx
  204a2b:	48 89 44 24 38       	mov    QWORD PTR [rsp+0x38],rax
  204a30:	48 8d 74 24 30       	lea    rsi,[rsp+0x30]
  204a35:	ff d2                	call   rdx
  204a37:	e9 38 ff ff ff       	jmp    204974 <dumpCurrentStackTrace+0x15e4>
        const bytes = @sliceToBytes(memory);
  204a3c:	48 8b 84 24 98 00 00 	mov    rax,QWORD PTR [rsp+0x98]
  204a43:	00 
        if (bytes.len == 0) return;
  204a44:	48 85 c0             	test   rax,rax
  204a47:	74 25                	je     204a6e <dumpCurrentStackTrace+0x16de>
  204a49:	48 8b bc 24 a0 00 00 	mov    rdi,QWORD PTR [rsp+0xa0]
  204a50:	00 
        const bytes = @sliceToBytes(memory);
  204a51:	48 8b 8c 24 90 00 00 	mov    rcx,QWORD PTR [rsp+0x90]
  204a58:	00 
        self.freeFn(self, non_const_ptr[0..bytes.len]);
  204a59:	48 8b 57 10          	mov    rdx,QWORD PTR [rdi+0x10]
  204a5d:	48 89 4c 24 30       	mov    QWORD PTR [rsp+0x30],rcx
  204a62:	48 89 44 24 38       	mov    QWORD PTR [rsp+0x38],rax
  204a67:	48 8d 74 24 30       	lea    rsi,[rsp+0x30]
  204a6c:	ff d2                	call   rdx
  204a6e:	4c 8b 64 24 70       	mov    r12,QWORD PTR [rsp+0x70]
  204a73:	e9 fc fe ff ff       	jmp    204974 <dumpCurrentStackTrace+0x15e4>
  204a78:	48 c7 c0 fe ff ff ff 	mov    rax,0xfffffffffffffffe
        const this_key = ptr[0..line_i];
        if (!mem.eql(u8, key, this_key)) continue;

        var end_i: usize = line_i;
        while (ptr[end_i] != 0) : (end_i += 1) {}
  204a7f:	80 7c 06 11 00       	cmp    BYTE PTR [rsi+rax*1+0x11],0x0
  204a84:	48 8d 40 01          	lea    rax,[rax+0x1]
  204a88:	75 f5                	jne    204a7f <dumpCurrentStackTrace+0x16ef>
  204a8a:	c6 44 24 0f 01       	mov    BYTE PTR [rsp+0xf],0x1
        const addr = @ptrToInt(self.buffer.ptr) + self.end_index;
        const rem = @rem(addr, alignment);
        const march_forward_bytes = if (rem == 0) 0 else (alignment - rem);
        const adjusted_index = self.end_index + march_forward_bytes;
        const new_end_index = adjusted_index + n;
        if (new_end_index > self.buffer.len) {
  204a8f:	48 3d 81 00 00 00    	cmp    rax,0x81
        if (n == 0) {
  204a95:	0f 83 b2 eb ff ff    	jae    20364d <dumpCurrentStackTrace+0x2bd>
  204a9b:	e9 cd eb ff ff       	jmp    20366d <dumpCurrentStackTrace+0x2dd>

0000000000204aa0 <FileOutStream_writeFn>:
    fn writeFn(out_stream: *Stream, bytes: []const u8) !void {
  204aa0:	53                   	push   rbx
  204aa1:	49 89 f0             	mov    r8,rsi
    while (index < bytes.len) {
  204aa4:	49 8b 50 08          	mov    rdx,QWORD PTR [r8+0x8]
  204aa8:	48 85 d2             	test   rdx,rdx
  204aab:	0f 84 98 00 00 00    	je     204b49 <FileOutStream_writeFn+0xa9>
        return self.file.write(bytes);
  204ab1:	48 8b 47 f8          	mov    rax,QWORD PTR [rdi-0x8]
  204ab5:	48 63 38             	movsxd rdi,DWORD PTR [rax]
  204ab8:	45 31 c9             	xor    r9d,r9d
  204abb:	41 ba 00 f0 ff 7f    	mov    r10d,0x7ffff000
  204ac1:	48 8d 1d 00 b8 ff ff 	lea    rbx,[rip+0xffffffffffffb800]        # 2002c8 <__unnamed_128+0x80>
  204ac8:	0f 1f 84 00 00 00 00 	nop    DWORD PTR [rax+rax*1+0x0]
  204acf:	00 
        const amt_to_write = math.min(bytes.len - index, usize(max_bytes_len));
  204ad0:	4c 29 ca             	sub    rdx,r9
    return if (x < y) x else y;
  204ad3:	48 81 fa 00 f0 ff 7f 	cmp    rdx,0x7ffff000
  204ada:	49 0f 43 d2          	cmovae rdx,r10
  204ade:	49 8b 30             	mov    rsi,QWORD PTR [r8]
        const rc = posix.write(fd, bytes.ptr + index, amt_to_write);
  204ae1:	4c 01 ce             	add    rsi,r9
  204ae4:	b8 01 00 00 00       	mov    eax,0x1
  204ae9:	0f 05                	syscall 
  204aeb:	48 89 c1             	mov    rcx,rax
  204aee:	48 81 f9 00 f0 ff ff 	cmp    rcx,0xfffffffffffff000
  204af5:	77 39                	ja     204b30 <FileOutStream_writeFn+0x90>
  204af7:	31 d2                	xor    edx,edx
        if (write_err > 0) {
  204af9:	48 83 fa 04          	cmp    rdx,0x4
  204afd:	74 3d                	je     204b3c <FileOutStream_writeFn+0x9c>
  204aff:	48 83 fa 59          	cmp    rdx,0x59
  204b03:	77 48                	ja     204b4d <FileOutStream_writeFn+0xad>
  204b05:	66 b8 06 00          	mov    ax,0x6
  204b09:	48 63 14 93          	movsxd rdx,DWORD PTR [rbx+rdx*4]
  204b0d:	48 01 da             	add    rdx,rbx
  204b10:	ff e2                	jmp    rdx
        index += rc;
  204b12:	49 01 c9             	add    r9,rcx
    while (index < bytes.len) {
  204b15:	49 8b 50 08          	mov    rdx,QWORD PTR [r8+0x8]
  204b19:	31 c0                	xor    eax,eax
  204b1b:	4c 39 ca             	cmp    rdx,r9
  204b1e:	77 b0                	ja     204ad0 <FileOutStream_writeFn+0x30>
  204b20:	eb 25                	jmp    204b47 <FileOutStream_writeFn+0xa7>
  204b22:	66 66 66 66 66 2e 0f 	data16 data16 data16 data16 nop WORD PTR cs:[rax+rax*1+0x0]
  204b29:	1f 84 00 00 00 00 00 
  204b30:	48 89 ca             	mov    rdx,rcx
  204b33:	48 f7 da             	neg    rdx
        if (write_err > 0) {
  204b36:	48 83 fa 04          	cmp    rdx,0x4
  204b3a:	75 c3                	jne    204aff <FileOutStream_writeFn+0x5f>
    while (index < bytes.len) {
  204b3c:	49 8b 50 08          	mov    rdx,QWORD PTR [r8+0x8]
  204b40:	4c 39 ca             	cmp    rdx,r9
  204b43:	77 8b                	ja     204ad0 <FileOutStream_writeFn+0x30>
  204b45:	31 c0                	xor    eax,eax
  204b47:	5b                   	pop    rbx
  204b48:	c3                   	ret    
  204b49:	31 c0                	xor    eax,eax
  204b4b:	5b                   	pop    rbx
  204b4c:	c3                   	ret    
        if (write_err > 0) {
  204b4d:	48 83 fa 7a          	cmp    rdx,0x7a
  204b51:	75 06                	jne    204b59 <FileOutStream_writeFn+0xb9>
  204b53:	66 b8 09 00          	mov    ax,0x9
  204b57:	5b                   	pop    rbx
  204b58:	c3                   	ret    
  204b59:	66 b8 05 00          	mov    ax,0x5
  204b5d:	5b                   	pop    rbx
  204b5e:	c3                   	ret    
  204b5f:	66 b8 0d 00          	mov    ax,0xd
  204b63:	5b                   	pop    rbx
  204b64:	c3                   	ret    
  204b65:	66 b8 0b 00          	mov    ax,0xb
  204b69:	5b                   	pop    rbx
  204b6a:	c3                   	ret    
  204b6b:	66 b8 07 00          	mov    ax,0x7
  204b6f:	5b                   	pop    rbx
  204b70:	c3                   	ret    
  204b71:	66 b8 0a 00          	mov    ax,0xa
  204b75:	5b                   	pop    rbx
  204b76:	c3                   	ret    
  204b77:	66 b8 0c 00          	mov    ax,0xc
  204b7b:	5b                   	pop    rbx
  204b7c:	c3                   	ret    
  204b7d:	66 b8 04 00          	mov    ax,0x4
  204b81:	5b                   	pop    rbx
  204b82:	c3                   	ret    
  204b83:	66 b8 08 00          	mov    ax,0x8
  204b87:	5b                   	pop    rbx
  204b88:	c3                   	ret    
  204b89:	0f 1f 80 00 00 00 00 	nop    DWORD PTR [rax+0x0]

0000000000204b90 <openSelfDebugInfo>:
            return Self{
  204b90:	55                   	push   rbp
  204b91:	41 57                	push   r15
  204b93:	41 56                	push   r14
  204b95:	41 55                	push   r13
  204b97:	41 54                	push   r12
  204b99:	53                   	push   rbx
  204b9a:	48 81 ec 28 05 00 00 	sub    rsp,0x528
  204ba1:	c5 f8 57 c0          	vxorps xmm0,xmm0,xmm0
  204ba5:	c5 f8 29 84 24 90 03 	vmovaps XMMWORD PTR [rsp+0x390],xmm0
  204bac:	00 00 
  204bae:	c5 f8 29 84 24 70 03 	vmovaps XMMWORD PTR [rsp+0x370],xmm0
  204bb5:	00 00 
  204bb7:	49 89 f7             	mov    r15,rsi
  204bba:	49 89 fe             	mov    r14,rdi
            const st = try allocator.create(ElfStackTrace{
  204bbd:	c5 fc 10 05 73 c3 ff 	vmovups ymm0,YMMWORD PTR [rip+0xffffffffffffc373]        # 200f38 <__unnamed_35>
  204bc4:	ff 
  204bc5:	c5 fc 11 84 24 b0 04 	vmovups YMMWORD PTR [rsp+0x4b0],ymm0
  204bcc:	00 00 
  204bce:	48 c7 84 24 a0 03 00 	mov    QWORD PTR [rsp+0x3a0],0x0
  204bd5:	00 00 00 00 00 
  204bda:	c5 fc 10 05 76 c3 ff 	vmovups ymm0,YMMWORD PTR [rip+0xffffffffffffc376]        # 200f58 <__unnamed_35+0x20>
  204be1:	ff 
  204be2:	c5 fc 11 84 24 d0 04 	vmovups YMMWORD PTR [rsp+0x4d0],ymm0
  204be9:	00 00 
  204beb:	48 c7 84 24 80 03 00 	mov    QWORD PTR [rsp+0x380],0x0
  204bf2:	00 00 00 00 00 
  204bf7:	c5 fe 6f 05 71 c3 ff 	vmovdqu ymm0,YMMWORD PTR [rip+0xffffffffffffc371]        # 200f70 <__unnamed_35+0x38>
  204bfe:	ff 
  204bff:	c5 fe 7f 84 24 e8 04 	vmovdqu YMMWORD PTR [rsp+0x4e8],ymm0
  204c06:	00 00 
  204c08:	48 8d bc 24 a0 00 00 	lea    rdi,[rsp+0xa0]
  204c0f:	00 
        const byte_slice = try self.allocFn(self, byte_count, alignment);
  204c10:	ba c8 00 00 00       	mov    edx,0xc8
  204c15:	b9 04 00 00 00       	mov    ecx,0x4
  204c1a:	c5 f8 77             	vzeroupper 
  204c1d:	41 ff 17             	call   QWORD PTR [r15]
  204c20:	0f b7 84 24 a0 00 00 	movzx  eax,WORD PTR [rsp+0xa0]
  204c27:	00 
  204c28:	66 85 c0             	test   ax,ax
  204c2b:	74 19                	je     204c46 <openSelfDebugInfo+0xb6>
  204c2d:	66 41 89 06          	mov    WORD PTR [r14],ax
  204c31:	48 8b 84 24 1a 04 00 	mov    rax,QWORD PTR [rsp+0x41a]
  204c38:	00 
  204c39:	48 8b 8c 24 20 04 00 	mov    rcx,QWORD PTR [rsp+0x420]
  204c40:	00 
  204c41:	e9 40 0c 00 00       	jmp    205886 <openSelfDebugInfo+0xcf6>
        assert(byte_slice.len == byte_count);
  204c46:	48 81 bc 24 b0 00 00 	cmp    QWORD PTR [rsp+0xb0],0xc8
  204c4d:	00 c8 00 00 00 
    if (!ok) {
  204c52:	0f 85 0a 36 00 00    	jne    208262 <openSelfDebugInfo+0x36d2>
  204c58:	48 8b 9c 24 a8 00 00 	mov    rbx,QWORD PTR [rsp+0xa8]
  204c5f:	00 
        ptr.* = init;
  204c60:	c5 fc 10 84 24 a8 04 	vmovups ymm0,YMMWORD PTR [rsp+0x4a8]
  204c67:	00 00 
  204c69:	c5 fe 6f 8c 24 c8 04 	vmovdqu ymm1,YMMWORD PTR [rsp+0x4c8]
  204c70:	00 00 
  204c72:	c5 fe 6f 94 24 e8 04 	vmovdqu ymm2,YMMWORD PTR [rsp+0x4e8]
  204c79:	00 00 
  204c7b:	c5 fe 6f 9c 24 08 05 	vmovdqu ymm3,YMMWORD PTR [rsp+0x508]
  204c82:	00 00 
  204c84:	c5 fe 7f 5b 60       	vmovdqu YMMWORD PTR [rbx+0x60],ymm3
  204c89:	c5 fe 7f 53 40       	vmovdqu YMMWORD PTR [rbx+0x40],ymm2
  204c8e:	c5 fe 7f 4b 20       	vmovdqu YMMWORD PTR [rbx+0x20],ymm1
  204c93:	c5 fc 11 03          	vmovups YMMWORD PTR [rbx],ymm0
  204c97:	48 c7 83 80 00 00 00 	mov    QWORD PTR [rbx+0x80],0x0
  204c9e:	00 00 00 00 
  204ca2:	48 8b 84 24 a0 03 00 	mov    rax,QWORD PTR [rsp+0x3a0]
  204ca9:	00 
  204caa:	48 89 83 98 00 00 00 	mov    QWORD PTR [rbx+0x98],rax
  204cb1:	c5 f8 28 84 24 90 03 	vmovaps xmm0,XMMWORD PTR [rsp+0x390]
  204cb8:	00 00 
  204cba:	c5 f8 11 83 88 00 00 	vmovups XMMWORD PTR [rbx+0x88],xmm0
  204cc1:	00 
  204cc2:	4c 89 bb a0 00 00 00 	mov    QWORD PTR [rbx+0xa0],r15
  204cc9:	48 8b 84 24 80 03 00 	mov    rax,QWORD PTR [rsp+0x380]
  204cd0:	00 
  204cd1:	48 89 83 b8 00 00 00 	mov    QWORD PTR [rbx+0xb8],rax
  204cd8:	c5 f8 28 84 24 70 03 	vmovaps xmm0,XMMWORD PTR [rsp+0x370]
  204cdf:	00 00 
  204ce1:	c5 f8 11 83 a8 00 00 	vmovups XMMWORD PTR [rbx+0xa8],xmm0
  204ce8:	00 
  204ce9:	4c 89 bb c0 00 00 00 	mov    QWORD PTR [rbx+0xc0],r15

pub fn openSelfExe() !os.File {
    switch (builtin.os) {
        Os.linux => {
            const proc_file_path = "/proc/self/exe";
            var fixed_buffer_mem: [proc_file_path.len + 1]u8 = undefined;
  204cf0:	48 8b 05 da c2 ff ff 	mov    rax,QWORD PTR [rip+0xffffffffffffc2da]        # 200fd1 <__unnamed_36+0x7>
  204cf7:	48 89 44 24 67       	mov    QWORD PTR [rsp+0x67],rax
  204cfc:	48 8b 05 c7 c2 ff ff 	mov    rax,QWORD PTR [rip+0xffffffffffffc2c7]        # 200fca <__unnamed_36>
  204d03:	48 89 44 24 60       	mov    QWORD PTR [rsp+0x60],rax
            var fixed_allocator = std.heap.FixedBufferAllocator.init(fixed_buffer_mem[0..]);
  204d08:	c5 fa 6f 05 18 f6 00 	vmovdqu xmm0,XMMWORD PTR [rip+0xf618]        # 214328 <__unnamed_37>
  204d0f:	00 
  204d10:	c5 f9 7f 84 24 a0 00 	vmovdqa XMMWORD PTR [rsp+0xa0],xmm0
  204d17:	00 00 
  204d19:	48 8b 05 18 f6 00 00 	mov    rax,QWORD PTR [rip+0xf618]        # 214338 <__unnamed_37+0x10>
  204d20:	48 89 84 24 b0 00 00 	mov    QWORD PTR [rsp+0xb0],rax
  204d27:	00 
  204d28:	48 c7 84 24 b8 00 00 	mov    QWORD PTR [rsp+0xb8],0x0
  204d2f:	00 00 00 00 00 
  204d34:	48 8d 44 24 60       	lea    rax,[rsp+0x60]
  204d39:	48 89 84 24 c0 00 00 	mov    QWORD PTR [rsp+0xc0],rax
  204d40:	00 
  204d41:	48 c7 84 24 c8 00 00 	mov    QWORD PTR [rsp+0xc8],0xf
  204d48:	00 0f 00 00 00 
            return os.File.openRead(&fixed_allocator.allocator, proc_file_path);
  204d4d:	48 8d 15 c4 f5 00 00 	lea    rdx,[rip+0xf5c4]        # 214318 <__unnamed_38>
  204d54:	48 8d bc 24 b8 02 00 	lea    rdi,[rsp+0x2b8]
  204d5b:	00 
  204d5c:	48 8d b4 24 a0 00 00 	lea    rsi,[rsp+0xa0]
  204d63:	00 
  204d64:	c5 f8 77             	vzeroupper 
  204d67:	e8 64 42 00 00       	call   208fd0 <File_openRead>
  204d6c:	48 8b ac 24 b8 02 00 	mov    rbp,QWORD PTR [rsp+0x2b8]
  204d73:	00 
            st.self_exe_file = try os.openSelfExe();
  204d74:	66 85 ed             	test   bp,bp
  204d77:	74 3e                	je     204db7 <openSelfDebugInfo+0x227>
        self.freeFn(self, non_const_ptr[0..@sizeOf(@typeOf(ptr).Child)]);
  204d79:	49 8b 47 10          	mov    rax,QWORD PTR [r15+0x10]
  204d7d:	48 89 9c 24 a0 00 00 	mov    QWORD PTR [rsp+0xa0],rbx
  204d84:	00 
  204d85:	48 c7 84 24 a8 00 00 	mov    QWORD PTR [rsp+0xa8],0xc8
  204d8c:	00 c8 00 00 00 
  204d91:	48 8d b4 24 a0 00 00 	lea    rsi,[rsp+0xa0]
  204d98:	00 
  204d99:	4c 89 ff             	mov    rdi,r15
  204d9c:	ff d0                	call   rax
  204d9e:	66 41 89 2e          	mov    WORD PTR [r14],bp
  204da2:	48 8b 84 24 0c 04 00 	mov    rax,QWORD PTR [rsp+0x40c]
  204da9:	00 
  204daa:	48 8b 8c 24 12 04 00 	mov    rcx,QWORD PTR [rsp+0x412]
  204db1:	00 
  204db2:	e9 cf 0a 00 00       	jmp    205886 <openSelfDebugInfo+0xcf6>
  204db7:	48 c1 ed 20          	shr    rbp,0x20
  204dbb:	89 2b                	mov    DWORD PTR [rbx],ebp
            try st.elf.openFile(allocator, &st.self_exe_file);
  204dbd:	4c 8d 63 08          	lea    r12,[rbx+0x8]
        elf.auto_close_stream = true;
    }

    /// Call close when done.
    pub fn openFile(elf: *Elf, allocator: *mem.Allocator, file: *os.File) !void {
        elf.allocator = allocator;
  204dc1:	4c 89 7b 50          	mov    QWORD PTR [rbx+0x50],r15
        elf.in_file = file;
  204dc5:	48 89 5b 08          	mov    QWORD PTR [rbx+0x8],rbx
        elf.auto_close_stream = false;
  204dc9:	c6 43 10 00          	mov    BYTE PTR [rbx+0x10],0x0

        var file_stream = io.FileInStream.init(elf.in_file);
  204dcd:	48 89 5c 24 20       	mov    QWORD PTR [rsp+0x20],rbx
  204dd2:	48 8d 05 e7 48 00 00 	lea    rax,[rip+0x48e7]        # 2096c0 <FileInStream_readFn>
  204dd9:	48 89 44 24 28       	mov    QWORD PTR [rsp+0x28],rax
  204dde:	48 8d 84 24 50 01 00 	lea    rax,[rsp+0x150]
  204de5:	00 
        const in = &file_stream.stream;

        var magic: [4]u8 = undefined;
        try in.readNoEof(magic[0..]);
  204de6:	48 89 84 24 b8 02 00 	mov    QWORD PTR [rsp+0x2b8],rax
  204ded:	00 
  204dee:	48 c7 84 24 c0 02 00 	mov    QWORD PTR [rsp+0x2c0],0x4
  204df5:	00 04 00 00 00 
        return self.file.read(buffer);
  204dfa:	48 8b 74 24 20       	mov    rsi,QWORD PTR [rsp+0x20]
  204dff:	4c 8d ac 24 a0 00 00 	lea    r13,[rsp+0xa0]
  204e06:	00 
  204e07:	48 8d 94 24 b8 02 00 	lea    rdx,[rsp+0x2b8]
  204e0e:	00 
  204e0f:	4c 89 ef             	mov    rdi,r13
  204e12:	e8 99 47 00 00       	call   2095b0 <File_read>
  204e17:	0f b7 ac 24 a0 00 00 	movzx  ebp,WORD PTR [rsp+0xa0]
  204e1e:	00 
            const amt_read = try self.read(buf);
  204e1f:	66 85 ed             	test   bp,bp
  204e22:	75 16                	jne    204e3a <openSelfDebugInfo+0x2aa>
  204e24:	48 8b 84 24 a8 00 00 	mov    rax,QWORD PTR [rsp+0xa8]
  204e2b:	00 
  204e2c:	66 bd 1e 00          	mov    bp,0x1e
            if (amt_read < buf.len) return error.EndOfStream;
  204e30:	48 3b 84 24 c0 02 00 	cmp    rax,QWORD PTR [rsp+0x2c0]
  204e37:	00 
  204e38:	73 50                	jae    204e8a <openSelfDebugInfo+0x2fa>
  204e3a:	66 85 ed             	test   bp,bp
  204e3d:	0f 84 77 06 00 00    	je     2054ba <openSelfDebugInfo+0x92a>
  204e43:	48 63 3b             	movsxd rdi,DWORD PTR [rbx]
  204e46:	66 2e 0f 1f 84 00 00 	nop    WORD PTR cs:[rax+rax*1+0x0]
  204e4d:	00 00 00 
    return asm volatile ("syscall"
  204e50:	b8 03 00 00 00       	mov    eax,0x3
  204e55:	0f 05                	syscall 
            switch (err) {
  204e57:	48 83 f8 fc          	cmp    rax,0xfffffffffffffffc
  204e5b:	74 f3                	je     204e50 <openSelfDebugInfo+0x2c0>
        /// Remove and return the first node in the list.
        ///
        /// Returns:
        ///     A pointer to the first node in the list.
        pub fn popFirst(list: *Self) ?*Node {
            const first = list.first orelse return null;
  204e5d:	48 8b 05 bc 01 01 00 	mov    rax,QWORD PTR [rip+0x101bc]        # 215020 <emfile_promise_queue>
  204e64:	48 85 c0             	test   rax,rax
  204e67:	0f 84 2b 01 00 00    	je     204f98 <openSelfDebugInfo+0x408>
            if (node.prev) |prev_node| {
  204e6d:	48 8b 08             	mov    rcx,QWORD PTR [rax]
  204e70:	48 85 c9             	test   rcx,rcx
  204e73:	0f 84 b5 00 00 00    	je     204f2e <openSelfDebugInfo+0x39e>
                prev_node.next = node.next;
  204e79:	48 8b 50 08          	mov    rdx,QWORD PTR [rax+0x8]
  204e7d:	48 89 51 08          	mov    QWORD PTR [rcx+0x8],rdx
            if (node.next) |next_node| {
  204e81:	48 8b 48 08          	mov    rcx,QWORD PTR [rax+0x8]
  204e85:	e9 af 00 00 00       	jmp    204f39 <openSelfDebugInfo+0x3a9>
        if (b[index] != item) return false;
  204e8a:	80 bc 24 50 01 00 00 	cmp    BYTE PTR [rsp+0x150],0x7f
  204e91:	7f 
  204e92:	0f 85 15 06 00 00    	jne    2054ad <openSelfDebugInfo+0x91d>
  204e98:	80 bc 24 51 01 00 00 	cmp    BYTE PTR [rsp+0x151],0x45
  204e9f:	45 
  204ea0:	0f 85 07 06 00 00    	jne    2054ad <openSelfDebugInfo+0x91d>
  204ea6:	80 bc 24 52 01 00 00 	cmp    BYTE PTR [rsp+0x152],0x4c
  204ead:	4c 
  204eae:	0f 85 f9 05 00 00    	jne    2054ad <openSelfDebugInfo+0x91d>
  204eb4:	80 bc 24 53 01 00 00 	cmp    BYTE PTR [rsp+0x153],0x46
  204ebb:	46 
  204ebc:	0f 85 17 01 00 00    	jne    204fd9 <openSelfDebugInfo+0x449>
  204ec2:	48 8d 74 24 28       	lea    rsi,[rsp+0x28]
  204ec7:	48 8d 44 24 07       	lea    rax,[rsp+0x7]
            try self.readNoEof(result[0..]);
  204ecc:	48 89 44 24 60       	mov    QWORD PTR [rsp+0x60],rax
  204ed1:	48 c7 44 24 68 01 00 	mov    QWORD PTR [rsp+0x68],0x1
  204ed8:	00 00 
  204eda:	48 8d bc 24 a0 00 00 	lea    rdi,[rsp+0xa0]
  204ee1:	00 
  204ee2:	48 8d 54 24 60       	lea    rdx,[rsp+0x60]
            return self.readFn(self, buffer);
  204ee7:	ff 54 24 28          	call   QWORD PTR [rsp+0x28]
  204eeb:	0f b7 ac 24 a0 00 00 	movzx  ebp,WORD PTR [rsp+0xa0]
  204ef2:	00 
            const amt_read = try self.read(buf);
  204ef3:	66 85 ed             	test   bp,bp
  204ef6:	0f 85 3e ff ff ff    	jne    204e3a <openSelfDebugInfo+0x2aa>
  204efc:	48 8b 84 24 a8 00 00 	mov    rax,QWORD PTR [rsp+0xa8]
  204f03:	00 
  204f04:	66 bd 1e 00          	mov    bp,0x1e
            if (amt_read < buf.len) return error.EndOfStream;
  204f08:	48 3b 44 24 68       	cmp    rax,QWORD PTR [rsp+0x68]
  204f0d:	0f 82 27 ff ff ff    	jb     204e3a <openSelfDebugInfo+0x2aa>
            return result[0];
  204f13:	8a 44 24 07          	mov    al,BYTE PTR [rsp+0x7]
        if (!mem.eql(u8, magic, "\x7fELF")) return error.InvalidFormat;

        elf.is_64 = switch (try in.readByte()) {
  204f17:	3c 01                	cmp    al,0x1
  204f19:	0f 84 cc 00 00 00    	je     204feb <openSelfDebugInfo+0x45b>
  204f1f:	3c 02                	cmp    al,0x2
  204f21:	0f 85 86 05 00 00    	jne    2054ad <openSelfDebugInfo+0x91d>
  204f27:	b0 01                	mov    al,0x1
  204f29:	e9 bf 00 00 00       	jmp    204fed <openSelfDebugInfo+0x45d>
                list.first = node.next;
  204f2e:	48 8b 48 08          	mov    rcx,QWORD PTR [rax+0x8]
  204f32:	48 89 0d e7 00 01 00 	mov    QWORD PTR [rip+0x100e7],rcx        # 215020 <emfile_promise_queue>
            if (node.next) |next_node| {
  204f39:	48 85 c9             	test   rcx,rcx
  204f3c:	48 8b 10             	mov    rdx,QWORD PTR [rax]
  204f3f:	48 8d 35 e2 00 01 00 	lea    rsi,[rip+0x100e2]        # 215028 <emfile_promise_queue+0x8>
  204f46:	48 0f 45 f1          	cmovne rsi,rcx
  204f4a:	48 89 16             	mov    QWORD PTR [rsi],rdx
            list.len -= 1;
  204f4d:	48 83 05 db 00 01 00 	add    QWORD PTR [rip+0x100db],0xffffffffffffffff        # 215030 <emfile_promise_queue+0x10>
  204f54:	ff 
            assert(list.len == 0 or (list.first != null and list.last != null));
  204f55:	74 1e                	je     204f75 <openSelfDebugInfo+0x3e5>
  204f57:	48 83 3d c1 00 01 00 	cmp    QWORD PTR [rip+0x100c1],0x0        # 215020 <emfile_promise_queue>
  204f5e:	00 
  204f5f:	0f 84 fd 32 00 00    	je     208262 <openSelfDebugInfo+0x36d2>
  204f65:	48 8b 0d bc 00 01 00 	mov    rcx,QWORD PTR [rip+0x100bc]        # 215028 <emfile_promise_queue+0x8>
  204f6c:	48 85 c9             	test   rcx,rcx
  204f6f:	0f 84 ed 32 00 00    	je     208262 <openSelfDebugInfo+0x36d2>
                    if (emfile_promise_queue.popFirst()) |p| resume p.data;
  204f75:	48 8b 78 10          	mov    rdi,QWORD PTR [rax+0x10]
  204f79:	48 8b 47 10          	mov    rax,QWORD PTR [rdi+0x10]
  204f7d:	0f 1f 00             	nop    DWORD PTR [rax]
  204f80:	48 89 c1             	mov    rcx,rax
  204f83:	48 83 e1 fd          	and    rcx,0xfffffffffffffffd
  204f87:	f0 48 0f b1 4f 10    	lock cmpxchg QWORD PTR [rdi+0x10],rcx
  204f8d:	75 f1                	jne    204f80 <openSelfDebugInfo+0x3f0>
  204f8f:	a8 01                	test   al,0x1
  204f91:	75 05                	jne    204f98 <openSelfDebugInfo+0x408>
  204f93:	c5 f8 77             	vzeroupper 
  204f96:	ff 17                	call   QWORD PTR [rdi]
        self.freeFn(self, non_const_ptr[0..@sizeOf(@typeOf(ptr).Child)]);
  204f98:	49 8b 47 10          	mov    rax,QWORD PTR [r15+0x10]
  204f9c:	48 89 9c 24 a0 00 00 	mov    QWORD PTR [rsp+0xa0],rbx
  204fa3:	00 
  204fa4:	48 c7 84 24 a8 00 00 	mov    QWORD PTR [rsp+0xa8],0xc8
  204fab:	00 c8 00 00 00 
  204fb0:	48 8d b4 24 a0 00 00 	lea    rsi,[rsp+0xa0]
  204fb7:	00 
  204fb8:	4c 89 ff             	mov    rdi,r15
  204fbb:	c5 f8 77             	vzeroupper 
  204fbe:	ff d0                	call   rax
  204fc0:	66 41 89 2e          	mov    WORD PTR [r14],bp
  204fc4:	48 8b 84 24 fe 03 00 	mov    rax,QWORD PTR [rsp+0x3fe]
  204fcb:	00 
  204fcc:	48 8b 8c 24 04 04 00 	mov    rcx,QWORD PTR [rsp+0x404]
  204fd3:	00 
  204fd4:	e9 ad 08 00 00       	jmp    205886 <openSelfDebugInfo+0xcf6>
  204fd9:	66 bd 1f 00          	mov    bp,0x1f
  204fdd:	66 85 ed             	test   bp,bp
  204fe0:	0f 85 5d fe ff ff    	jne    204e43 <openSelfDebugInfo+0x2b3>
  204fe6:	e9 cf 04 00 00       	jmp    2054ba <openSelfDebugInfo+0x92a>
  204feb:	31 c0                	xor    eax,eax
  204fed:	88 43 11             	mov    BYTE PTR [rbx+0x11],al
            try self.readNoEof(result[0..]);
  204ff0:	48 8d 44 24 07       	lea    rax,[rsp+0x7]
  204ff5:	48 89 44 24 60       	mov    QWORD PTR [rsp+0x60],rax
  204ffa:	48 c7 44 24 68 01 00 	mov    QWORD PTR [rsp+0x68],0x1
  205001:	00 00 
  205003:	48 8d bc 24 a0 00 00 	lea    rdi,[rsp+0xa0]
  20500a:	00 
  20500b:	48 8d 54 24 60       	lea    rdx,[rsp+0x60]
            return self.readFn(self, buffer);
  205010:	48 8d 74 24 28       	lea    rsi,[rsp+0x28]
  205015:	ff 54 24 28          	call   QWORD PTR [rsp+0x28]
  205019:	0f b7 ac 24 a0 00 00 	movzx  ebp,WORD PTR [rsp+0xa0]
  205020:	00 
            const amt_read = try self.read(buf);
  205021:	66 85 ed             	test   bp,bp
  205024:	0f 85 10 fe ff ff    	jne    204e3a <openSelfDebugInfo+0x2aa>
  20502a:	48 8b 84 24 a8 00 00 	mov    rax,QWORD PTR [rsp+0xa8]
  205031:	00 
  205032:	66 bd 1e 00          	mov    bp,0x1e
            if (amt_read < buf.len) return error.EndOfStream;
  205036:	48 3b 44 24 68       	cmp    rax,QWORD PTR [rsp+0x68]
  20503b:	0f 82 f9 fd ff ff    	jb     204e3a <openSelfDebugInfo+0x2aa>
            return result[0];
  205041:	8a 44 24 07          	mov    al,BYTE PTR [rsp+0x7]
            1 => false,
            2 => true,
            else => return error.InvalidFormat,
        };

        elf.endian = switch (try in.readByte()) {
  205045:	3c 01                	cmp    al,0x1
  205047:	74 0c                	je     205055 <openSelfDebugInfo+0x4c5>
  205049:	3c 02                	cmp    al,0x2
  20504b:	0f 85 5c 04 00 00    	jne    2054ad <openSelfDebugInfo+0x91d>
  205051:	31 c0                	xor    eax,eax
  205053:	eb 02                	jmp    205057 <openSelfDebugInfo+0x4c7>
  205055:	b0 01                	mov    al,0x1
  205057:	48 8d 4b 12          	lea    rcx,[rbx+0x12]
  20505b:	48 89 4c 24 18       	mov    QWORD PTR [rsp+0x18],rcx
  205060:	88 01                	mov    BYTE PTR [rcx],al
            try self.readNoEof(result[0..]);
  205062:	48 8d 44 24 07       	lea    rax,[rsp+0x7]
  205067:	48 89 44 24 60       	mov    QWORD PTR [rsp+0x60],rax
  20506c:	48 c7 44 24 68 01 00 	mov    QWORD PTR [rsp+0x68],0x1
  205073:	00 00 
  205075:	48 8d bc 24 a0 00 00 	lea    rdi,[rsp+0xa0]
  20507c:	00 
  20507d:	48 8d 54 24 60       	lea    rdx,[rsp+0x60]
            return self.readFn(self, buffer);
  205082:	48 8d 74 24 28       	lea    rsi,[rsp+0x28]
  205087:	ff 54 24 28          	call   QWORD PTR [rsp+0x28]
  20508b:	0f b7 ac 24 a0 00 00 	movzx  ebp,WORD PTR [rsp+0xa0]
  205092:	00 
            const amt_read = try self.read(buf);
  205093:	66 85 ed             	test   bp,bp
  205096:	0f 85 9e fd ff ff    	jne    204e3a <openSelfDebugInfo+0x2aa>
  20509c:	48 8b 84 24 a8 00 00 	mov    rax,QWORD PTR [rsp+0xa8]
  2050a3:	00 
  2050a4:	66 bd 1e 00          	mov    bp,0x1e
            if (amt_read < buf.len) return error.EndOfStream;
  2050a8:	48 3b 44 24 68       	cmp    rax,QWORD PTR [rsp+0x68]
  2050ad:	0f 82 87 fd ff ff    	jb     204e3a <openSelfDebugInfo+0x2aa>
            2 => builtin.Endian.Big,
            else => return error.InvalidFormat,
        };

        const version_byte = try in.readByte();
        if (version_byte != 1) return error.InvalidFormat;
  2050b3:	80 7c 24 07 01       	cmp    BYTE PTR [rsp+0x7],0x1
  2050b8:	0f 85 ef 03 00 00    	jne    2054ad <openSelfDebugInfo+0x91d>

        // skip over padding
        try elf.in_file.seekForward(9);
  2050be:	49 8b 04 24          	mov    rax,QWORD PTR [r12]
    return syscall3(SYS_lseek, @intCast(usize, fd), @bitCast(usize, offset), ref_pos);
  2050c2:	48 63 38             	movsxd rdi,DWORD PTR [rax]
    return asm volatile ("syscall"
  2050c5:	b8 08 00 00 00       	mov    eax,0x8
  2050ca:	be 09 00 00 00       	mov    esi,0x9
  2050cf:	ba 01 00 00 00       	mov    edx,0x1
  2050d4:	0f 05                	syscall 
    return if (signed_r > -4096 and signed_r < 0) @intCast(usize, -signed_r) else 0;
  2050d6:	48 89 c2             	mov    rdx,rax
  2050d9:	48 f7 da             	neg    rdx
  2050dc:	31 c9                	xor    ecx,ecx
  2050de:	48 3d 00 f0 ff ff    	cmp    rax,0xfffffffffffff000
  2050e4:	48 0f 47 ca          	cmova  rcx,rdx
                if (err > 0) {
  2050e8:	48 83 f9 1d          	cmp    rcx,0x1d
  2050ec:	0f 87 4b 31 00 00    	ja     20823d <openSelfDebugInfo+0x36ad>
  2050f2:	48 8d 05 37 b3 ff ff 	lea    rax,[rip+0xffffffffffffb337]        # 200430 <__unnamed_128+0x1e8>
  2050f9:	48 63 0c 88          	movsxd rcx,DWORD PTR [rax+rcx*4]
  2050fd:	48 01 c1             	add    rcx,rax
  205100:	66 bd 05 00          	mov    bp,0x5
  205104:	ff e1                	jmp    rcx
  205106:	66 bd 20 00          	mov    bp,0x20
  20510a:	66 85 ed             	test   bp,bp
  20510d:	0f 85 30 fd ff ff    	jne    204e43 <openSelfDebugInfo+0x2b3>
  205113:	e9 a2 03 00 00       	jmp    2054ba <openSelfDebugInfo+0x92a>

        elf.file_type = switch (try in.readInt(elf.endian, u16)) {
  205118:	8a 43 12             	mov    al,BYTE PTR [rbx+0x12]
  20511b:	88 44 24 38          	mov    BYTE PTR [rsp+0x38],al
  20511f:	48 8d 44 24 08       	lea    rax,[rsp+0x8]
            try self.readNoEof(bytes[0..]);
  205124:	48 89 44 24 60       	mov    QWORD PTR [rsp+0x60],rax
  205129:	48 c7 44 24 68 02 00 	mov    QWORD PTR [rsp+0x68],0x2
  205130:	00 00 
  205132:	48 8d bc 24 a0 00 00 	lea    rdi,[rsp+0xa0]
  205139:	00 
  20513a:	48 8d 54 24 60       	lea    rdx,[rsp+0x60]
            return self.readFn(self, buffer);
  20513f:	48 8d 74 24 28       	lea    rsi,[rsp+0x28]
  205144:	ff 54 24 28          	call   QWORD PTR [rsp+0x28]
  205148:	0f b7 ac 24 a0 00 00 	movzx  ebp,WORD PTR [rsp+0xa0]
  20514f:	00 
            const amt_read = try self.read(buf);
  205150:	66 85 ed             	test   bp,bp
  205153:	0f 85 e1 fc ff ff    	jne    204e3a <openSelfDebugInfo+0x2aa>
  205159:	48 8b 84 24 a8 00 00 	mov    rax,QWORD PTR [rsp+0xa8]
  205160:	00 
  205161:	66 bd 1e 00          	mov    bp,0x1e
            if (amt_read < buf.len) return error.EndOfStream;
  205165:	48 3b 44 24 68       	cmp    rax,QWORD PTR [rsp+0x68]
  20516a:	0f 82 ca fc ff ff    	jb     204e3a <openSelfDebugInfo+0x2aa>
  205170:	0f b6 44 24 08       	movzx  eax,BYTE PTR [rsp+0x8]
                result = result | (T(b) << @intCast(ShiftType, index * 8));
  205175:	0f b6 4c 24 09       	movzx  ecx,BYTE PTR [rsp+0x9]
  20517a:	89 ca                	mov    edx,ecx
  20517c:	c1 e2 08             	shl    edx,0x8
  20517f:	09 c2                	or     edx,eax
                result = (result << 8) | b;
  205181:	c1 e0 08             	shl    eax,0x8
  205184:	09 c8                	or     eax,ecx
    switch (endian) {
  205186:	f6 44 24 38 01       	test   BYTE PTR [rsp+0x38],0x1
  20518b:	66 0f 45 c2          	cmovne ax,dx
  20518f:	83 c0 ff             	add    eax,0xffffffff
  205192:	0f b7 c8             	movzx  ecx,ax
  205195:	83 f9 03             	cmp    ecx,0x3
  205198:	0f 87 0f 03 00 00    	ja     2054ad <openSelfDebugInfo+0x91d>
  20519e:	24 03                	and    al,0x3
  2051a0:	88 43 13             	mov    BYTE PTR [rbx+0x13],al
            3 => FileType.Shared,
            4 => FileType.Core,
            else => return error.InvalidFormat,
        };

        elf.arch = switch (try in.readInt(elf.endian, u16)) {
  2051a3:	8a 43 12             	mov    al,BYTE PTR [rbx+0x12]
            try self.readNoEof(bytes[0..]);
  2051a6:	88 44 24 38          	mov    BYTE PTR [rsp+0x38],al
  2051aa:	48 8d 44 24 08       	lea    rax,[rsp+0x8]
  2051af:	48 89 44 24 60       	mov    QWORD PTR [rsp+0x60],rax
  2051b4:	48 c7 44 24 68 02 00 	mov    QWORD PTR [rsp+0x68],0x2
  2051bb:	00 00 
  2051bd:	48 8d bc 24 a0 00 00 	lea    rdi,[rsp+0xa0]
  2051c4:	00 
  2051c5:	48 8d 54 24 60       	lea    rdx,[rsp+0x60]
            return self.readFn(self, buffer);
  2051ca:	48 8d 74 24 28       	lea    rsi,[rsp+0x28]
  2051cf:	ff 54 24 28          	call   QWORD PTR [rsp+0x28]
  2051d3:	0f b7 ac 24 a0 00 00 	movzx  ebp,WORD PTR [rsp+0xa0]
  2051da:	00 
            const amt_read = try self.read(buf);
  2051db:	66 85 ed             	test   bp,bp
  2051de:	0f 85 56 fc ff ff    	jne    204e3a <openSelfDebugInfo+0x2aa>
  2051e4:	48 8b 84 24 a8 00 00 	mov    rax,QWORD PTR [rsp+0xa8]
  2051eb:	00 
  2051ec:	66 bd 1e 00          	mov    bp,0x1e
            if (amt_read < buf.len) return error.EndOfStream;
  2051f0:	48 3b 44 24 68       	cmp    rax,QWORD PTR [rsp+0x68]
  2051f5:	0f 82 3f fc ff ff    	jb     204e3a <openSelfDebugInfo+0x2aa>
  2051fb:	0f b6 44 24 08       	movzx  eax,BYTE PTR [rsp+0x8]
                result = result | (T(b) << @intCast(ShiftType, index * 8));
  205200:	0f b6 4c 24 09       	movzx  ecx,BYTE PTR [rsp+0x9]
  205205:	89 ca                	mov    edx,ecx
  205207:	c1 e2 08             	shl    edx,0x8
  20520a:	09 c2                	or     edx,eax
                result = (result << 8) | b;
  20520c:	c1 e0 08             	shl    eax,0x8
  20520f:	09 c8                	or     eax,ecx
    switch (endian) {
  205211:	f6 44 24 38 01       	test   BYTE PTR [rsp+0x38],0x1
  205216:	66 0f 45 c2          	cmovne ax,dx
  20521a:	8d 48 fe             	lea    ecx,[rax-0x2]
  20521d:	0f b7 c9             	movzx  ecx,cx
  205220:	83 f9 3c             	cmp    ecx,0x3c
  205223:	77 1a                	ja     20523f <openSelfDebugInfo+0x6af>
  205225:	31 c0                	xor    eax,eax
  205227:	48 8d 15 7a b2 ff ff 	lea    rdx,[rip+0xffffffffffffb27a]        # 2004a8 <__unnamed_128+0x260>
  20522e:	48 63 0c 8a          	movsxd rcx,DWORD PTR [rdx+rcx*4]
  205232:	48 01 d1             	add    rcx,rdx
  205235:	66 bd 1f 00          	mov    bp,0x1f
  205239:	ff e1                	jmp    rcx
  20523b:	b0 01                	mov    al,0x1
  20523d:	eb 28                	jmp    205267 <openSelfDebugInfo+0x6d7>
  20523f:	0f b7 c0             	movzx  eax,ax
  205242:	3d b7 00 00 00       	cmp    eax,0xb7
  205247:	0f 85 60 02 00 00    	jne    2054ad <openSelfDebugInfo+0x91d>
  20524d:	b0 08                	mov    al,0x8
  20524f:	eb 16                	jmp    205267 <openSelfDebugInfo+0x6d7>
  205251:	b0 06                	mov    al,0x6
  205253:	eb 12                	jmp    205267 <openSelfDebugInfo+0x6d7>
  205255:	b0 07                	mov    al,0x7
  205257:	eb 0e                	jmp    205267 <openSelfDebugInfo+0x6d7>
  205259:	b0 02                	mov    al,0x2
  20525b:	eb 0a                	jmp    205267 <openSelfDebugInfo+0x6d7>
  20525d:	b0 04                	mov    al,0x4
  20525f:	eb 06                	jmp    205267 <openSelfDebugInfo+0x6d7>
  205261:	b0 03                	mov    al,0x3
  205263:	eb 02                	jmp    205267 <openSelfDebugInfo+0x6d7>
  205265:	b0 05                	mov    al,0x5
  205267:	24 0f                	and    al,0xf
  205269:	88 43 14             	mov    BYTE PTR [rbx+0x14],al
            0x3E => Arch.x86_64,
            0xb7 => Arch.AArch64,
            else => return error.InvalidFormat,
        };

        const elf_version = try in.readInt(elf.endian, u32);
  20526c:	8a 43 12             	mov    al,BYTE PTR [rbx+0x12]
            try self.readNoEof(bytes[0..]);
  20526f:	88 44 24 38          	mov    BYTE PTR [rsp+0x38],al
  205273:	48 8d 44 24 08       	lea    rax,[rsp+0x8]
  205278:	48 89 44 24 60       	mov    QWORD PTR [rsp+0x60],rax
  20527d:	48 c7 44 24 68 04 00 	mov    QWORD PTR [rsp+0x68],0x4
  205284:	00 00 
  205286:	48 8d bc 24 a0 00 00 	lea    rdi,[rsp+0xa0]
  20528d:	00 
  20528e:	48 8d 54 24 60       	lea    rdx,[rsp+0x60]
            return self.readFn(self, buffer);
  205293:	48 8d 74 24 28       	lea    rsi,[rsp+0x28]
  205298:	ff 54 24 28          	call   QWORD PTR [rsp+0x28]
  20529c:	0f b7 ac 24 a0 00 00 	movzx  ebp,WORD PTR [rsp+0xa0]
  2052a3:	00 
            const amt_read = try self.read(buf);
  2052a4:	66 85 ed             	test   bp,bp
  2052a7:	0f 85 8d fb ff ff    	jne    204e3a <openSelfDebugInfo+0x2aa>
  2052ad:	48 8b 84 24 a8 00 00 	mov    rax,QWORD PTR [rsp+0xa8]
  2052b4:	00 
  2052b5:	66 bd 1e 00          	mov    bp,0x1e
            if (amt_read < buf.len) return error.EndOfStream;
  2052b9:	48 3b 44 24 68       	cmp    rax,QWORD PTR [rsp+0x68]
  2052be:	0f 82 76 fb ff ff    	jb     204e3a <openSelfDebugInfo+0x2aa>
  2052c4:	0f b6 44 24 08       	movzx  eax,BYTE PTR [rsp+0x8]
  2052c9:	0f b6 4c 24 09       	movzx  ecx,BYTE PTR [rsp+0x9]
  2052ce:	f6 44 24 38 01       	test   BYTE PTR [rsp+0x38],0x1
  2052d3:	74 23                	je     2052f8 <openSelfDebugInfo+0x768>
                result = result | (T(b) << @intCast(ShiftType, index * 8));
  2052d5:	c1 e1 08             	shl    ecx,0x8
  2052d8:	09 c1                	or     ecx,eax
  2052da:	0f b6 54 24 0a       	movzx  edx,BYTE PTR [rsp+0xa]
  2052df:	c1 e2 10             	shl    edx,0x10
  2052e2:	09 ca                	or     edx,ecx
  2052e4:	0f b6 44 24 0b       	movzx  eax,BYTE PTR [rsp+0xb]
  2052e9:	c1 e0 18             	shl    eax,0x18
  2052ec:	09 d0                	or     eax,edx
        if (elf_version != 1) return error.InvalidFormat;
  2052ee:	83 f8 01             	cmp    eax,0x1
  2052f1:	74 27                	je     20531a <openSelfDebugInfo+0x78a>
  2052f3:	e9 b5 01 00 00       	jmp    2054ad <openSelfDebugInfo+0x91d>
                result = (result << 8) | b;
  2052f8:	c1 e0 08             	shl    eax,0x8
  2052fb:	09 c8                	or     eax,ecx
  2052fd:	c1 e0 08             	shl    eax,0x8
  205300:	0f b6 4c 24 0a       	movzx  ecx,BYTE PTR [rsp+0xa]
  205305:	09 c1                	or     ecx,eax
  205307:	c1 e1 08             	shl    ecx,0x8
  20530a:	0f b6 44 24 0b       	movzx  eax,BYTE PTR [rsp+0xb]
  20530f:	09 c8                	or     eax,ecx
  205311:	83 f8 01             	cmp    eax,0x1
  205314:	0f 85 93 01 00 00    	jne    2054ad <openSelfDebugInfo+0x91d>
  20531a:	8a 43 12             	mov    al,BYTE PTR [rbx+0x12]

        if (elf.is_64) {
  20531d:	88 44 24 38          	mov    BYTE PTR [rsp+0x38],al
  205321:	80 7b 11 01          	cmp    BYTE PTR [rbx+0x11],0x1
  205325:	0f 85 58 23 00 00    	jne    207683 <openSelfDebugInfo+0x2af3>
            elf.entry_addr = try in.readInt(elf.endian, u64);
  20532b:	0f b6 54 24 38       	movzx  edx,BYTE PTR [rsp+0x38]
  205330:	48 8d bc 24 28 04 00 	lea    rdi,[rsp+0x428]
  205337:	00 
  205338:	48 8d 74 24 28       	lea    rsi,[rsp+0x28]
  20533d:	e8 3e 41 00 00       	call   209480 <InStream(ReadError)_readInt.16>
  205342:	0f b7 ac 24 28 04 00 	movzx  ebp,WORD PTR [rsp+0x428]
  205349:	00 
  20534a:	66 85 ed             	test   bp,bp
  20534d:	0f 85 e7 fa ff ff    	jne    204e3a <openSelfDebugInfo+0x2aa>
  205353:	48 8b 84 24 30 04 00 	mov    rax,QWORD PTR [rsp+0x430]
  20535a:	00 
  20535b:	48 89 43 18          	mov    QWORD PTR [rbx+0x18],rax
            elf.program_header_offset = try in.readInt(elf.endian, u64);
  20535f:	0f b6 53 12          	movzx  edx,BYTE PTR [rbx+0x12]
  205363:	48 8d bc 24 10 02 00 	lea    rdi,[rsp+0x210]
  20536a:	00 
  20536b:	48 8d 74 24 28       	lea    rsi,[rsp+0x28]
  205370:	e8 0b 41 00 00       	call   209480 <InStream(ReadError)_readInt.16>
  205375:	0f b7 ac 24 10 02 00 	movzx  ebp,WORD PTR [rsp+0x210]
  20537c:	00 
  20537d:	66 85 ed             	test   bp,bp
  205380:	0f 85 b4 fa ff ff    	jne    204e3a <openSelfDebugInfo+0x2aa>
  205386:	48 8b 84 24 18 02 00 	mov    rax,QWORD PTR [rsp+0x218]
  20538d:	00 
  20538e:	48 89 43 20          	mov    QWORD PTR [rbx+0x20],rax
            elf.section_header_offset = try in.readInt(elf.endian, u64);
  205392:	0f b6 53 12          	movzx  edx,BYTE PTR [rbx+0x12]
  205396:	48 8d bc 24 e0 01 00 	lea    rdi,[rsp+0x1e0]
  20539d:	00 
  20539e:	48 8d 74 24 28       	lea    rsi,[rsp+0x28]
  2053a3:	e8 d8 40 00 00       	call   209480 <InStream(ReadError)_readInt.16>
  2053a8:	0f b7 ac 24 e0 01 00 	movzx  ebp,WORD PTR [rsp+0x1e0]
  2053af:	00 
  2053b0:	66 85 ed             	test   bp,bp
  2053b3:	0f 85 81 fa ff ff    	jne    204e3a <openSelfDebugInfo+0x2aa>
  2053b9:	48 8b 84 24 e8 01 00 	mov    rax,QWORD PTR [rsp+0x1e8]
  2053c0:	00 
  2053c1:	48 89 43 28          	mov    QWORD PTR [rbx+0x28],rax
            elf.program_header_offset = u64(try in.readInt(elf.endian, u32));
            elf.section_header_offset = u64(try in.readInt(elf.endian, u32));
        }

        // skip over flags
        try elf.in_file.seekForward(4);
  2053c5:	49 8b 04 24          	mov    rax,QWORD PTR [r12]
    return syscall3(SYS_lseek, @intCast(usize, fd), @bitCast(usize, offset), ref_pos);
  2053c9:	48 63 38             	movsxd rdi,DWORD PTR [rax]
  2053cc:	b8 08 00 00 00       	mov    eax,0x8
  2053d1:	be 04 00 00 00       	mov    esi,0x4
  2053d6:	ba 01 00 00 00       	mov    edx,0x1
  2053db:	0f 05                	syscall 
    return if (signed_r > -4096 and signed_r < 0) @intCast(usize, -signed_r) else 0;
  2053dd:	48 89 c2             	mov    rdx,rax
  2053e0:	48 f7 da             	neg    rdx
  2053e3:	31 c9                	xor    ecx,ecx
  2053e5:	48 3d 00 f0 ff ff    	cmp    rax,0xfffffffffffff000
  2053eb:	48 0f 47 ca          	cmova  rcx,rdx
  2053ef:	48 83 f9 1d          	cmp    rcx,0x1d
  2053f3:	0f 87 44 2e 00 00    	ja     20823d <openSelfDebugInfo+0x36ad>
  2053f9:	48 8d 05 9c b1 ff ff 	lea    rax,[rip+0xffffffffffffb19c]        # 20059c <__unnamed_128+0x354>
  205400:	48 63 0c 88          	movsxd rcx,DWORD PTR [rax+rcx*4]
  205404:	48 01 c1             	add    rcx,rax
  205407:	66 bd 05 00          	mov    bp,0x5
  20540b:	ff e1                	jmp    rcx

        const header_size = try in.readInt(elf.endian, u16);
  20540d:	48 8b 44 24 18       	mov    rax,QWORD PTR [rsp+0x18]
  205412:	8a 00                	mov    al,BYTE PTR [rax]
            try self.readNoEof(bytes[0..]);
  205414:	88 44 24 38          	mov    BYTE PTR [rsp+0x38],al
  205418:	48 8d 44 24 08       	lea    rax,[rsp+0x8]
  20541d:	48 89 44 24 60       	mov    QWORD PTR [rsp+0x60],rax
  205422:	48 c7 44 24 68 02 00 	mov    QWORD PTR [rsp+0x68],0x2
  205429:	00 00 
  20542b:	48 8d bc 24 a0 00 00 	lea    rdi,[rsp+0xa0]
  205432:	00 
  205433:	48 8d 54 24 60       	lea    rdx,[rsp+0x60]
            return self.readFn(self, buffer);
  205438:	48 8d 74 24 28       	lea    rsi,[rsp+0x28]
  20543d:	ff 54 24 28          	call   QWORD PTR [rsp+0x28]
  205441:	0f b7 ac 24 a0 00 00 	movzx  ebp,WORD PTR [rsp+0xa0]
  205448:	00 
            const amt_read = try self.read(buf);
  205449:	66 85 ed             	test   bp,bp
  20544c:	0f 85 e8 f9 ff ff    	jne    204e3a <openSelfDebugInfo+0x2aa>
  205452:	48 8b 84 24 a8 00 00 	mov    rax,QWORD PTR [rsp+0xa8]
  205459:	00 
  20545a:	66 bd 1e 00          	mov    bp,0x1e
            if (amt_read < buf.len) return error.EndOfStream;
  20545e:	48 3b 44 24 68       	cmp    rax,QWORD PTR [rsp+0x68]
  205463:	0f 82 d1 f9 ff ff    	jb     204e3a <openSelfDebugInfo+0x2aa>
  205469:	0f b6 44 24 08       	movzx  eax,BYTE PTR [rsp+0x8]
                result = result | (T(b) << @intCast(ShiftType, index * 8));
  20546e:	0f b6 4c 24 09       	movzx  ecx,BYTE PTR [rsp+0x9]
  205473:	89 ca                	mov    edx,ecx
  205475:	c1 e2 08             	shl    edx,0x8
  205478:	09 c2                	or     edx,eax
                result = (result << 8) | b;
  20547a:	c1 e0 08             	shl    eax,0x8
  20547d:	09 c8                	or     eax,ecx
    switch (endian) {
  20547f:	f6 44 24 38 01       	test   BYTE PTR [rsp+0x38],0x1
  205484:	66 0f 45 c2          	cmovne ax,dx
        if ((elf.is_64 and header_size != 64) or (!elf.is_64 and header_size != 52)) {
  205488:	8a 4b 11             	mov    cl,BYTE PTR [rbx+0x11]
  20548b:	80 f9 01             	cmp    cl,0x1
  20548e:	75 08                	jne    205498 <openSelfDebugInfo+0x908>
  205490:	0f b7 d0             	movzx  edx,ax
  205493:	83 fa 40             	cmp    edx,0x40
  205496:	75 15                	jne    2054ad <openSelfDebugInfo+0x91d>
  205498:	0f b7 c0             	movzx  eax,ax
  20549b:	83 f8 34             	cmp    eax,0x34
  20549e:	0f 84 c2 23 00 00    	je     207866 <openSelfDebugInfo+0x2cd6>
  2054a4:	80 f1 01             	xor    cl,0x1
  2054a7:	0f 84 b9 23 00 00    	je     207866 <openSelfDebugInfo+0x2cd6>
  2054ad:	66 bd 1f 00          	mov    bp,0x1f
  2054b1:	66 85 ed             	test   bp,bp
  2054b4:	0f 85 89 f9 ff ff    	jne    204e43 <openSelfDebugInfo+0x2b3>
            st.debug_info = (try st.elf.findSection(".debug_info")) orelse return error.MissingDebugInfo;
  2054ba:	48 8d 15 07 ee 00 00 	lea    rdx,[rip+0xee07]        # 2142c8 <__unnamed_39>
  2054c1:	48 8d bc 24 a8 02 00 	lea    rdi,[rsp+0x2a8]
  2054c8:	00 
  2054c9:	4c 89 e6             	mov    rsi,r12
  2054cc:	c5 f8 77             	vzeroupper 
  2054cf:	e8 ac 38 00 00       	call   208d80 <Elf_findSection>
  2054d4:	66 83 bc 24 a8 02 00 	cmp    WORD PTR [rsp+0x2a8],0x0
  2054db:	00 00 
  2054dd:	74 7b                	je     20555a <openSelfDebugInfo+0x9ca>
        const bytes = @sliceToBytes(memory);
  2054df:	48 8b 43 48          	mov    rax,QWORD PTR [rbx+0x48]
  2054e3:	48 c1 e0 06          	shl    rax,0x6
        if (bytes.len == 0) return;
  2054e7:	74 26                	je     20550f <openSelfDebugInfo+0x97f>
  2054e9:	48 8b 7b 50          	mov    rdi,QWORD PTR [rbx+0x50]
        const bytes = @sliceToBytes(memory);
  2054ed:	48 8b 4b 40          	mov    rcx,QWORD PTR [rbx+0x40]
        self.freeFn(self, non_const_ptr[0..bytes.len]);
  2054f1:	48 8b 57 10          	mov    rdx,QWORD PTR [rdi+0x10]
  2054f5:	48 89 8c 24 a0 00 00 	mov    QWORD PTR [rsp+0xa0],rcx
  2054fc:	00 
  2054fd:	48 89 84 24 a8 00 00 	mov    QWORD PTR [rsp+0xa8],rax
  205504:	00 
  205505:	48 8d b4 24 a0 00 00 	lea    rsi,[rsp+0xa0]
  20550c:	00 
  20550d:	ff d2                	call   rdx
    }

    pub fn close(elf: *Elf) void {
        elf.allocator.free(elf.section_headers);

        if (elf.auto_close_stream) elf.in_file.close();
  20550f:	80 7b 10 01          	cmp    BYTE PTR [rbx+0x10],0x1
  205513:	0f 85 8c 02 00 00    	jne    2057a5 <openSelfDebugInfo+0xc15>
  205519:	49 8b 04 24          	mov    rax,QWORD PTR [r12]
  20551d:	48 63 38             	movsxd rdi,DWORD PTR [rax]
    return asm volatile ("syscall"
  205520:	b8 03 00 00 00       	mov    eax,0x3
  205525:	0f 05                	syscall 
            switch (err) {
  205527:	48 83 f8 fc          	cmp    rax,0xfffffffffffffffc
  20552b:	74 f3                	je     205520 <openSelfDebugInfo+0x990>
            const first = list.first orelse return null;
  20552d:	48 8b 05 ec fa 00 00 	mov    rax,QWORD PTR [rip+0xfaec]        # 215020 <emfile_promise_queue>
  205534:	48 85 c0             	test   rax,rax
  205537:	0f 84 68 02 00 00    	je     2057a5 <openSelfDebugInfo+0xc15>
            if (node.prev) |prev_node| {
  20553d:	48 8b 08             	mov    rcx,QWORD PTR [rax]
  205540:	48 85 c9             	test   rcx,rcx
  205543:	0f 84 f8 01 00 00    	je     205741 <openSelfDebugInfo+0xbb1>
                prev_node.next = node.next;
  205549:	48 8b 50 08          	mov    rdx,QWORD PTR [rax+0x8]
  20554d:	48 89 51 08          	mov    QWORD PTR [rcx+0x8],rdx
            if (node.next) |next_node| {
  205551:	48 8b 48 08          	mov    rcx,QWORD PTR [rax+0x8]
  205555:	e9 f2 01 00 00       	jmp    20574c <openSelfDebugInfo+0xbbc>
  20555a:	48 8b 84 24 b0 02 00 	mov    rax,QWORD PTR [rsp+0x2b0]
  205561:	00 
  205562:	48 85 c0             	test   rax,rax
  205565:	0f 84 a5 00 00 00    	je     205610 <openSelfDebugInfo+0xa80>
  20556b:	48 89 43 60          	mov    QWORD PTR [rbx+0x60],rax
            st.debug_abbrev = (try st.elf.findSection(".debug_abbrev")) orelse return error.MissingDebugInfo;
  20556f:	48 8d 15 62 ed 00 00 	lea    rdx,[rip+0xed62]        # 2142d8 <__unnamed_40>
  205576:	48 8d bc 24 98 02 00 	lea    rdi,[rsp+0x298]
  20557d:	00 
  20557e:	4c 89 e6             	mov    rsi,r12
  205581:	e8 fa 37 00 00       	call   208d80 <Elf_findSection>
  205586:	66 83 bc 24 98 02 00 	cmp    WORD PTR [rsp+0x298],0x0
  20558d:	00 00 
  20558f:	0f 84 f6 00 00 00    	je     20568b <openSelfDebugInfo+0xafb>
        const bytes = @sliceToBytes(memory);
  205595:	48 8b 43 48          	mov    rax,QWORD PTR [rbx+0x48]
  205599:	48 c1 e0 06          	shl    rax,0x6
        if (bytes.len == 0) return;
  20559d:	74 26                	je     2055c5 <openSelfDebugInfo+0xa35>
  20559f:	48 8b 7b 50          	mov    rdi,QWORD PTR [rbx+0x50]
        const bytes = @sliceToBytes(memory);
  2055a3:	48 8b 4b 40          	mov    rcx,QWORD PTR [rbx+0x40]
        self.freeFn(self, non_const_ptr[0..bytes.len]);
  2055a7:	48 8b 57 10          	mov    rdx,QWORD PTR [rdi+0x10]
  2055ab:	48 89 8c 24 a0 00 00 	mov    QWORD PTR [rsp+0xa0],rcx
  2055b2:	00 
  2055b3:	48 89 84 24 a8 00 00 	mov    QWORD PTR [rsp+0xa8],rax
  2055ba:	00 
  2055bb:	48 8d b4 24 a0 00 00 	lea    rsi,[rsp+0xa0]
  2055c2:	00 
  2055c3:	ff d2                	call   rdx
  2055c5:	80 7b 10 01          	cmp    BYTE PTR [rbx+0x10],0x1
  2055c9:	0f 85 69 04 00 00    	jne    205a38 <openSelfDebugInfo+0xea8>
  2055cf:	49 8b 04 24          	mov    rax,QWORD PTR [r12]
  2055d3:	48 63 38             	movsxd rdi,DWORD PTR [rax]
  2055d6:	b8 03 00 00 00       	mov    eax,0x3
  2055db:	0f 05                	syscall 
  2055dd:	48 83 f8 fc          	cmp    rax,0xfffffffffffffffc
  2055e1:	74 f3                	je     2055d6 <openSelfDebugInfo+0xa46>
            const first = list.first orelse return null;
  2055e3:	48 8b 05 36 fa 00 00 	mov    rax,QWORD PTR [rip+0xfa36]        # 215020 <emfile_promise_queue>
  2055ea:	48 85 c0             	test   rax,rax
  2055ed:	0f 84 45 04 00 00    	je     205a38 <openSelfDebugInfo+0xea8>
            if (node.prev) |prev_node| {
  2055f3:	48 8b 08             	mov    rcx,QWORD PTR [rax]
  2055f6:	48 85 c9             	test   rcx,rcx
  2055f9:	0f 84 d5 03 00 00    	je     2059d4 <openSelfDebugInfo+0xe44>
                prev_node.next = node.next;
  2055ff:	48 8b 50 08          	mov    rdx,QWORD PTR [rax+0x8]
  205603:	48 89 51 08          	mov    QWORD PTR [rcx+0x8],rdx
            if (node.next) |next_node| {
  205607:	48 8b 48 08          	mov    rcx,QWORD PTR [rax+0x8]
  20560b:	e9 cf 03 00 00       	jmp    2059df <openSelfDebugInfo+0xe4f>
        const bytes = @sliceToBytes(memory);
  205610:	48 8b 43 48          	mov    rax,QWORD PTR [rbx+0x48]
  205614:	48 c1 e0 06          	shl    rax,0x6
        if (bytes.len == 0) return;
  205618:	74 26                	je     205640 <openSelfDebugInfo+0xab0>
  20561a:	48 8b 7b 50          	mov    rdi,QWORD PTR [rbx+0x50]
        const bytes = @sliceToBytes(memory);
  20561e:	48 8b 4b 40          	mov    rcx,QWORD PTR [rbx+0x40]
        self.freeFn(self, non_const_ptr[0..bytes.len]);
  205622:	48 8b 57 10          	mov    rdx,QWORD PTR [rdi+0x10]
  205626:	48 89 8c 24 a0 00 00 	mov    QWORD PTR [rsp+0xa0],rcx
  20562d:	00 
  20562e:	48 89 84 24 a8 00 00 	mov    QWORD PTR [rsp+0xa8],rax
  205635:	00 
  205636:	48 8d b4 24 a0 00 00 	lea    rsi,[rsp+0xa0]
  20563d:	00 
  20563e:	ff d2                	call   rdx
  205640:	80 7b 10 01          	cmp    BYTE PTR [rbx+0x10],0x1
  205644:	0f 85 33 05 00 00    	jne    205b7d <openSelfDebugInfo+0xfed>
  20564a:	49 8b 04 24          	mov    rax,QWORD PTR [r12]
  20564e:	48 63 38             	movsxd rdi,DWORD PTR [rax]
  205651:	b8 03 00 00 00       	mov    eax,0x3
  205656:	0f 05                	syscall 
  205658:	48 83 f8 fc          	cmp    rax,0xfffffffffffffffc
  20565c:	74 f3                	je     205651 <openSelfDebugInfo+0xac1>
            const first = list.first orelse return null;
  20565e:	48 8b 05 bb f9 00 00 	mov    rax,QWORD PTR [rip+0xf9bb]        # 215020 <emfile_promise_queue>
  205665:	48 85 c0             	test   rax,rax
  205668:	0f 84 0f 05 00 00    	je     205b7d <openSelfDebugInfo+0xfed>
            if (node.prev) |prev_node| {
  20566e:	48 8b 08             	mov    rcx,QWORD PTR [rax]
  205671:	48 85 c9             	test   rcx,rcx
  205674:	0f 84 9f 04 00 00    	je     205b19 <openSelfDebugInfo+0xf89>
                prev_node.next = node.next;
  20567a:	48 8b 50 08          	mov    rdx,QWORD PTR [rax+0x8]
  20567e:	48 89 51 08          	mov    QWORD PTR [rcx+0x8],rdx
            if (node.next) |next_node| {
  205682:	48 8b 48 08          	mov    rcx,QWORD PTR [rax+0x8]
  205686:	e9 99 04 00 00       	jmp    205b24 <openSelfDebugInfo+0xf94>
  20568b:	48 8b 84 24 a0 02 00 	mov    rax,QWORD PTR [rsp+0x2a0]
  205692:	00 
  205693:	48 85 c0             	test   rax,rax
  205696:	0f 84 07 02 00 00    	je     2058a3 <openSelfDebugInfo+0xd13>
  20569c:	48 89 43 68          	mov    QWORD PTR [rbx+0x68],rax
            st.debug_str = (try st.elf.findSection(".debug_str")) orelse return error.MissingDebugInfo;
  2056a0:	48 8d 15 41 ec 00 00 	lea    rdx,[rip+0xec41]        # 2142e8 <__unnamed_41>
  2056a7:	48 8d bc 24 88 02 00 	lea    rdi,[rsp+0x288]
  2056ae:	00 
  2056af:	4c 89 e6             	mov    rsi,r12
  2056b2:	e8 c9 36 00 00       	call   208d80 <Elf_findSection>
  2056b7:	66 83 bc 24 88 02 00 	cmp    WORD PTR [rsp+0x288],0x0
  2056be:	00 00 
  2056c0:	0f 84 58 02 00 00    	je     20591e <openSelfDebugInfo+0xd8e>
        const bytes = @sliceToBytes(memory);
  2056c6:	48 8b 43 48          	mov    rax,QWORD PTR [rbx+0x48]
  2056ca:	48 c1 e0 06          	shl    rax,0x6
        if (bytes.len == 0) return;
  2056ce:	74 26                	je     2056f6 <openSelfDebugInfo+0xb66>
  2056d0:	48 8b 7b 50          	mov    rdi,QWORD PTR [rbx+0x50]
        const bytes = @sliceToBytes(memory);
  2056d4:	48 8b 4b 40          	mov    rcx,QWORD PTR [rbx+0x40]
        self.freeFn(self, non_const_ptr[0..bytes.len]);
  2056d8:	48 8b 57 10          	mov    rdx,QWORD PTR [rdi+0x10]
  2056dc:	48 89 8c 24 a0 00 00 	mov    QWORD PTR [rsp+0xa0],rcx
  2056e3:	00 
  2056e4:	48 89 84 24 a8 00 00 	mov    QWORD PTR [rsp+0xa8],rax
  2056eb:	00 
  2056ec:	48 8d b4 24 a0 00 00 	lea    rsi,[rsp+0xa0]
  2056f3:	00 
  2056f4:	ff d2                	call   rdx
  2056f6:	80 7b 10 01          	cmp    BYTE PTR [rbx+0x10],0x1
  2056fa:	0f 85 df 06 00 00    	jne    205ddf <openSelfDebugInfo+0x124f>
  205700:	49 8b 04 24          	mov    rax,QWORD PTR [r12]
  205704:	48 63 38             	movsxd rdi,DWORD PTR [rax]
  205707:	b8 03 00 00 00       	mov    eax,0x3
  20570c:	0f 05                	syscall 
  20570e:	48 83 f8 fc          	cmp    rax,0xfffffffffffffffc
  205712:	74 f3                	je     205707 <openSelfDebugInfo+0xb77>
            const first = list.first orelse return null;
  205714:	48 8b 05 05 f9 00 00 	mov    rax,QWORD PTR [rip+0xf905]        # 215020 <emfile_promise_queue>
  20571b:	48 85 c0             	test   rax,rax
  20571e:	0f 84 bb 06 00 00    	je     205ddf <openSelfDebugInfo+0x124f>
            if (node.prev) |prev_node| {
  205724:	48 8b 08             	mov    rcx,QWORD PTR [rax]
  205727:	48 85 c9             	test   rcx,rcx
  20572a:	0f 84 4b 06 00 00    	je     205d7b <openSelfDebugInfo+0x11eb>
                prev_node.next = node.next;
  205730:	48 8b 50 08          	mov    rdx,QWORD PTR [rax+0x8]
  205734:	48 89 51 08          	mov    QWORD PTR [rcx+0x8],rdx
            if (node.next) |next_node| {
  205738:	48 8b 48 08          	mov    rcx,QWORD PTR [rax+0x8]
  20573c:	e9 45 06 00 00       	jmp    205d86 <openSelfDebugInfo+0x11f6>
                list.first = node.next;
  205741:	48 8b 48 08          	mov    rcx,QWORD PTR [rax+0x8]
  205745:	48 89 0d d4 f8 00 00 	mov    QWORD PTR [rip+0xf8d4],rcx        # 215020 <emfile_promise_queue>
            if (node.next) |next_node| {
  20574c:	48 85 c9             	test   rcx,rcx
  20574f:	48 8b 10             	mov    rdx,QWORD PTR [rax]
  205752:	48 8d 35 cf f8 00 00 	lea    rsi,[rip+0xf8cf]        # 215028 <emfile_promise_queue+0x8>
  205759:	48 0f 45 f1          	cmovne rsi,rcx
  20575d:	48 89 16             	mov    QWORD PTR [rsi],rdx
            list.len -= 1;
  205760:	48 83 05 c8 f8 00 00 	add    QWORD PTR [rip+0xf8c8],0xffffffffffffffff        # 215030 <emfile_promise_queue+0x10>
  205767:	ff 
            assert(list.len == 0 or (list.first != null and list.last != null));
  205768:	74 1e                	je     205788 <openSelfDebugInfo+0xbf8>
  20576a:	48 83 3d ae f8 00 00 	cmp    QWORD PTR [rip+0xf8ae],0x0        # 215020 <emfile_promise_queue>
  205771:	00 
  205772:	0f 84 ea 2a 00 00    	je     208262 <openSelfDebugInfo+0x36d2>
  205778:	48 8b 0d a9 f8 00 00 	mov    rcx,QWORD PTR [rip+0xf8a9]        # 215028 <emfile_promise_queue+0x8>
  20577f:	48 85 c9             	test   rcx,rcx
  205782:	0f 84 da 2a 00 00    	je     208262 <openSelfDebugInfo+0x36d2>
                    if (emfile_promise_queue.popFirst()) |p| resume p.data;
  205788:	48 8b 78 10          	mov    rdi,QWORD PTR [rax+0x10]
  20578c:	48 8b 47 10          	mov    rax,QWORD PTR [rdi+0x10]
  205790:	48 89 c1             	mov    rcx,rax
  205793:	48 83 e1 fd          	and    rcx,0xfffffffffffffffd
  205797:	f0 48 0f b1 4f 10    	lock cmpxchg QWORD PTR [rdi+0x10],rcx
  20579d:	75 f1                	jne    205790 <openSelfDebugInfo+0xc00>
  20579f:	a8 01                	test   al,0x1
  2057a1:	75 02                	jne    2057a5 <openSelfDebugInfo+0xc15>
  2057a3:	ff 17                	call   QWORD PTR [rdi]
  2057a5:	48 63 3b             	movsxd rdi,DWORD PTR [rbx]
  2057a8:	0f 1f 84 00 00 00 00 	nop    DWORD PTR [rax+rax*1+0x0]
  2057af:	00 
  2057b0:	b8 03 00 00 00       	mov    eax,0x3
  2057b5:	0f 05                	syscall 
            switch (err) {
  2057b7:	48 83 f8 fc          	cmp    rax,0xfffffffffffffffc
  2057bb:	74 f3                	je     2057b0 <openSelfDebugInfo+0xc20>
            const first = list.first orelse return null;
  2057bd:	48 8b 05 5c f8 00 00 	mov    rax,QWORD PTR [rip+0xf85c]        # 215020 <emfile_promise_queue>
  2057c4:	48 85 c0             	test   rax,rax
  2057c7:	74 7c                	je     205845 <openSelfDebugInfo+0xcb5>
            if (node.prev) |prev_node| {
  2057c9:	48 8b 08             	mov    rcx,QWORD PTR [rax]
  2057cc:	48 85 c9             	test   rcx,rcx
  2057cf:	74 0e                	je     2057df <openSelfDebugInfo+0xc4f>
                prev_node.next = node.next;
  2057d1:	48 8b 50 08          	mov    rdx,QWORD PTR [rax+0x8]
  2057d5:	48 89 51 08          	mov    QWORD PTR [rcx+0x8],rdx
            if (node.next) |next_node| {
  2057d9:	48 8b 48 08          	mov    rcx,QWORD PTR [rax+0x8]
  2057dd:	eb 0b                	jmp    2057ea <openSelfDebugInfo+0xc5a>
                list.first = node.next;
  2057df:	48 8b 48 08          	mov    rcx,QWORD PTR [rax+0x8]
  2057e3:	48 89 0d 36 f8 00 00 	mov    QWORD PTR [rip+0xf836],rcx        # 215020 <emfile_promise_queue>
            if (node.next) |next_node| {
  2057ea:	48 85 c9             	test   rcx,rcx
  2057ed:	48 8b 10             	mov    rdx,QWORD PTR [rax]
  2057f0:	48 8d 35 31 f8 00 00 	lea    rsi,[rip+0xf831]        # 215028 <emfile_promise_queue+0x8>
  2057f7:	48 0f 45 f1          	cmovne rsi,rcx
  2057fb:	48 89 16             	mov    QWORD PTR [rsi],rdx
            list.len -= 1;
  2057fe:	48 83 05 2a f8 00 00 	add    QWORD PTR [rip+0xf82a],0xffffffffffffffff        # 215030 <emfile_promise_queue+0x10>
  205805:	ff 
            assert(list.len == 0 or (list.first != null and list.last != null));
  205806:	74 1e                	je     205826 <openSelfDebugInfo+0xc96>
  205808:	48 83 3d 10 f8 00 00 	cmp    QWORD PTR [rip+0xf810],0x0        # 215020 <emfile_promise_queue>
  20580f:	00 
  205810:	0f 84 4c 2a 00 00    	je     208262 <openSelfDebugInfo+0x36d2>
  205816:	48 8b 0d 0b f8 00 00 	mov    rcx,QWORD PTR [rip+0xf80b]        # 215028 <emfile_promise_queue+0x8>
  20581d:	48 85 c9             	test   rcx,rcx
  205820:	0f 84 3c 2a 00 00    	je     208262 <openSelfDebugInfo+0x36d2>
                    if (emfile_promise_queue.popFirst()) |p| resume p.data;
  205826:	48 8b 78 10          	mov    rdi,QWORD PTR [rax+0x10]
  20582a:	48 8b 47 10          	mov    rax,QWORD PTR [rdi+0x10]
  20582e:	66 90                	xchg   ax,ax
  205830:	48 89 c1             	mov    rcx,rax
  205833:	48 83 e1 fd          	and    rcx,0xfffffffffffffffd
  205837:	f0 48 0f b1 4f 10    	lock cmpxchg QWORD PTR [rdi+0x10],rcx
  20583d:	75 f1                	jne    205830 <openSelfDebugInfo+0xca0>
  20583f:	a8 01                	test   al,0x1
  205841:	75 02                	jne    205845 <openSelfDebugInfo+0xcb5>
  205843:	ff 17                	call   QWORD PTR [rdi]
        self.freeFn(self, non_const_ptr[0..@sizeOf(@typeOf(ptr).Child)]);
  205845:	49 8b 47 10          	mov    rax,QWORD PTR [r15+0x10]
  205849:	48 89 9c 24 a0 00 00 	mov    QWORD PTR [rsp+0xa0],rbx
  205850:	00 
  205851:	48 c7 84 24 a8 00 00 	mov    QWORD PTR [rsp+0xa8],0xc8
  205858:	00 c8 00 00 00 
  20585d:	48 8d b4 24 a0 00 00 	lea    rsi,[rsp+0xa0]
  205864:	00 
  205865:	4c 89 ff             	mov    rdi,r15
  205868:	ff d0                	call   rax
            st.debug_info = (try st.elf.findSection(".debug_info")) orelse return error.MissingDebugInfo;
  20586a:	0f b7 84 24 a8 02 00 	movzx  eax,WORD PTR [rsp+0x2a8]
  205871:	00 
  205872:	66 41 89 06          	mov    WORD PTR [r14],ax
  205876:	48 8b 84 24 f0 03 00 	mov    rax,QWORD PTR [rsp+0x3f0]
  20587d:	00 
  20587e:	48 8b 8c 24 f6 03 00 	mov    rcx,QWORD PTR [rsp+0x3f6]
  205885:	00 
  205886:	49 89 4e 08          	mov    QWORD PTR [r14+0x8],rcx
  20588a:	49 89 46 02          	mov    QWORD PTR [r14+0x2],rax
  20588e:	48 81 c4 28 05 00 00 	add    rsp,0x528
  205895:	5b                   	pop    rbx
  205896:	41 5c                	pop    r12
  205898:	41 5d                	pop    r13
  20589a:	41 5e                	pop    r14
  20589c:	41 5f                	pop    r15
  20589e:	5d                   	pop    rbp
  20589f:	c5 f8 77             	vzeroupper 
  2058a2:	c3                   	ret    
        const bytes = @sliceToBytes(memory);
  2058a3:	48 8b 43 48          	mov    rax,QWORD PTR [rbx+0x48]
  2058a7:	48 c1 e0 06          	shl    rax,0x6
        if (bytes.len == 0) return;
  2058ab:	74 26                	je     2058d3 <openSelfDebugInfo+0xd43>
  2058ad:	48 8b 7b 50          	mov    rdi,QWORD PTR [rbx+0x50]
        const bytes = @sliceToBytes(memory);
  2058b1:	48 8b 4b 40          	mov    rcx,QWORD PTR [rbx+0x40]
        self.freeFn(self, non_const_ptr[0..bytes.len]);
  2058b5:	48 8b 57 10          	mov    rdx,QWORD PTR [rdi+0x10]
  2058b9:	48 89 8c 24 a0 00 00 	mov    QWORD PTR [rsp+0xa0],rcx
  2058c0:	00 
  2058c1:	48 89 84 24 a8 00 00 	mov    QWORD PTR [rsp+0xa8],rax
  2058c8:	00 
  2058c9:	48 8d b4 24 a0 00 00 	lea    rsi,[rsp+0xa0]
  2058d0:	00 
  2058d1:	ff d2                	call   rdx
  2058d3:	80 7b 10 01          	cmp    BYTE PTR [rbx+0x10],0x1
  2058d7:	0f 85 42 06 00 00    	jne    205f1f <openSelfDebugInfo+0x138f>
  2058dd:	49 8b 04 24          	mov    rax,QWORD PTR [r12]
  2058e1:	48 63 38             	movsxd rdi,DWORD PTR [rax]
  2058e4:	b8 03 00 00 00       	mov    eax,0x3
  2058e9:	0f 05                	syscall 
            switch (err) {
  2058eb:	48 83 f8 fc          	cmp    rax,0xfffffffffffffffc
  2058ef:	74 f3                	je     2058e4 <openSelfDebugInfo+0xd54>
            const first = list.first orelse return null;
  2058f1:	48 8b 05 28 f7 00 00 	mov    rax,QWORD PTR [rip+0xf728]        # 215020 <emfile_promise_queue>
  2058f8:	48 85 c0             	test   rax,rax
  2058fb:	0f 84 1e 06 00 00    	je     205f1f <openSelfDebugInfo+0x138f>
            if (node.prev) |prev_node| {
  205901:	48 8b 08             	mov    rcx,QWORD PTR [rax]
  205904:	48 85 c9             	test   rcx,rcx
  205907:	0f 84 ae 05 00 00    	je     205ebb <openSelfDebugInfo+0x132b>
                prev_node.next = node.next;
  20590d:	48 8b 50 08          	mov    rdx,QWORD PTR [rax+0x8]
  205911:	48 89 51 08          	mov    QWORD PTR [rcx+0x8],rdx
            if (node.next) |next_node| {
  205915:	48 8b 48 08          	mov    rcx,QWORD PTR [rax+0x8]
  205919:	e9 a8 05 00 00       	jmp    205ec6 <openSelfDebugInfo+0x1336>
            st.debug_str = (try st.elf.findSection(".debug_str")) orelse return error.MissingDebugInfo;
  20591e:	48 8b 84 24 90 02 00 	mov    rax,QWORD PTR [rsp+0x290]
  205925:	00 
  205926:	48 85 c0             	test   rax,rax
  205929:	0f 84 1b 03 00 00    	je     205c4a <openSelfDebugInfo+0x10ba>
  20592f:	48 89 43 70          	mov    QWORD PTR [rbx+0x70],rax
            st.debug_line = (try st.elf.findSection(".debug_line")) orelse return error.MissingDebugInfo;
  205933:	48 8d 15 be e9 00 00 	lea    rdx,[rip+0xe9be]        # 2142f8 <__unnamed_42>
  20593a:	48 8d bc 24 78 02 00 	lea    rdi,[rsp+0x278]
  205941:	00 
  205942:	4c 89 e6             	mov    rsi,r12
  205945:	e8 36 34 00 00       	call   208d80 <Elf_findSection>
  20594a:	66 83 bc 24 78 02 00 	cmp    WORD PTR [rsp+0x278],0x0
  205951:	00 00 
  205953:	0f 84 6c 03 00 00    	je     205cc5 <openSelfDebugInfo+0x1135>
        const bytes = @sliceToBytes(memory);
  205959:	48 8b 43 48          	mov    rax,QWORD PTR [rbx+0x48]
  20595d:	48 c1 e0 06          	shl    rax,0x6
        if (bytes.len == 0) return;
  205961:	74 26                	je     205989 <openSelfDebugInfo+0xdf9>
  205963:	48 8b 7b 50          	mov    rdi,QWORD PTR [rbx+0x50]
        const bytes = @sliceToBytes(memory);
  205967:	48 8b 4b 40          	mov    rcx,QWORD PTR [rbx+0x40]
        self.freeFn(self, non_const_ptr[0..bytes.len]);
  20596b:	48 8b 57 10          	mov    rdx,QWORD PTR [rdi+0x10]
  20596f:	48 89 8c 24 a0 00 00 	mov    QWORD PTR [rsp+0xa0],rcx
  205976:	00 
  205977:	48 89 84 24 a8 00 00 	mov    QWORD PTR [rsp+0xa8],rax
  20597e:	00 
  20597f:	48 8d b4 24 a0 00 00 	lea    rsi,[rsp+0xa0]
  205986:	00 
  205987:	ff d2                	call   rdx
  205989:	80 7b 10 01          	cmp    BYTE PTR [rbx+0x10],0x1
  20598d:	0f 85 d8 14 00 00    	jne    206e6b <openSelfDebugInfo+0x22db>
  205993:	49 8b 04 24          	mov    rax,QWORD PTR [r12]
  205997:	48 63 38             	movsxd rdi,DWORD PTR [rax]
  20599a:	b8 03 00 00 00       	mov    eax,0x3
  20599f:	0f 05                	syscall 
  2059a1:	48 83 f8 fc          	cmp    rax,0xfffffffffffffffc
  2059a5:	74 f3                	je     20599a <openSelfDebugInfo+0xe0a>
            const first = list.first orelse return null;
  2059a7:	48 8b 05 72 f6 00 00 	mov    rax,QWORD PTR [rip+0xf672]        # 215020 <emfile_promise_queue>
  2059ae:	48 85 c0             	test   rax,rax
  2059b1:	0f 84 b4 14 00 00    	je     206e6b <openSelfDebugInfo+0x22db>
            if (node.prev) |prev_node| {
  2059b7:	48 8b 08             	mov    rcx,QWORD PTR [rax]
  2059ba:	48 85 c9             	test   rcx,rcx
  2059bd:	0f 84 44 14 00 00    	je     206e07 <openSelfDebugInfo+0x2277>
                prev_node.next = node.next;
  2059c3:	48 8b 50 08          	mov    rdx,QWORD PTR [rax+0x8]
  2059c7:	48 89 51 08          	mov    QWORD PTR [rcx+0x8],rdx
            if (node.next) |next_node| {
  2059cb:	48 8b 48 08          	mov    rcx,QWORD PTR [rax+0x8]
  2059cf:	e9 3e 14 00 00       	jmp    206e12 <openSelfDebugInfo+0x2282>
                list.first = node.next;
  2059d4:	48 8b 48 08          	mov    rcx,QWORD PTR [rax+0x8]
  2059d8:	48 89 0d 41 f6 00 00 	mov    QWORD PTR [rip+0xf641],rcx        # 215020 <emfile_promise_queue>
            if (node.next) |next_node| {
  2059df:	48 85 c9             	test   rcx,rcx
  2059e2:	48 8b 10             	mov    rdx,QWORD PTR [rax]
  2059e5:	48 8d 35 3c f6 00 00 	lea    rsi,[rip+0xf63c]        # 215028 <emfile_promise_queue+0x8>
  2059ec:	48 0f 45 f1          	cmovne rsi,rcx
  2059f0:	48 89 16             	mov    QWORD PTR [rsi],rdx
            list.len -= 1;
  2059f3:	48 83 05 35 f6 00 00 	add    QWORD PTR [rip+0xf635],0xffffffffffffffff        # 215030 <emfile_promise_queue+0x10>
  2059fa:	ff 
            assert(list.len == 0 or (list.first != null and list.last != null));
  2059fb:	74 1e                	je     205a1b <openSelfDebugInfo+0xe8b>
  2059fd:	48 83 3d 1b f6 00 00 	cmp    QWORD PTR [rip+0xf61b],0x0        # 215020 <emfile_promise_queue>
  205a04:	00 
  205a05:	0f 84 57 28 00 00    	je     208262 <openSelfDebugInfo+0x36d2>
  205a0b:	48 8b 0d 16 f6 00 00 	mov    rcx,QWORD PTR [rip+0xf616]        # 215028 <emfile_promise_queue+0x8>
  205a12:	48 85 c9             	test   rcx,rcx
  205a15:	0f 84 47 28 00 00    	je     208262 <openSelfDebugInfo+0x36d2>
                    if (emfile_promise_queue.popFirst()) |p| resume p.data;
  205a1b:	48 8b 78 10          	mov    rdi,QWORD PTR [rax+0x10]
  205a1f:	48 8b 47 10          	mov    rax,QWORD PTR [rdi+0x10]
  205a23:	48 89 c1             	mov    rcx,rax
  205a26:	48 83 e1 fd          	and    rcx,0xfffffffffffffffd
  205a2a:	f0 48 0f b1 4f 10    	lock cmpxchg QWORD PTR [rdi+0x10],rcx
  205a30:	75 f1                	jne    205a23 <openSelfDebugInfo+0xe93>
  205a32:	a8 01                	test   al,0x1
  205a34:	75 02                	jne    205a38 <openSelfDebugInfo+0xea8>
  205a36:	ff 17                	call   QWORD PTR [rdi]
  205a38:	48 63 3b             	movsxd rdi,DWORD PTR [rbx]
  205a3b:	0f 1f 44 00 00       	nop    DWORD PTR [rax+rax*1+0x0]
  205a40:	b8 03 00 00 00       	mov    eax,0x3
  205a45:	0f 05                	syscall 
            switch (err) {
  205a47:	48 83 f8 fc          	cmp    rax,0xfffffffffffffffc
  205a4b:	74 f3                	je     205a40 <openSelfDebugInfo+0xeb0>
            const first = list.first orelse return null;
  205a4d:	48 8b 05 cc f5 00 00 	mov    rax,QWORD PTR [rip+0xf5cc]        # 215020 <emfile_promise_queue>
  205a54:	48 85 c0             	test   rax,rax
  205a57:	74 7a                	je     205ad3 <openSelfDebugInfo+0xf43>
            if (node.prev) |prev_node| {
  205a59:	48 8b 08             	mov    rcx,QWORD PTR [rax]
  205a5c:	48 85 c9             	test   rcx,rcx
  205a5f:	74 0e                	je     205a6f <openSelfDebugInfo+0xedf>
                prev_node.next = node.next;
  205a61:	48 8b 50 08          	mov    rdx,QWORD PTR [rax+0x8]
  205a65:	48 89 51 08          	mov    QWORD PTR [rcx+0x8],rdx
            if (node.next) |next_node| {
  205a69:	48 8b 48 08          	mov    rcx,QWORD PTR [rax+0x8]
  205a6d:	eb 0b                	jmp    205a7a <openSelfDebugInfo+0xeea>
                list.first = node.next;
  205a6f:	48 8b 48 08          	mov    rcx,QWORD PTR [rax+0x8]
  205a73:	48 89 0d a6 f5 00 00 	mov    QWORD PTR [rip+0xf5a6],rcx        # 215020 <emfile_promise_queue>
            if (node.next) |next_node| {
  205a7a:	48 85 c9             	test   rcx,rcx
  205a7d:	48 8b 10             	mov    rdx,QWORD PTR [rax]
  205a80:	48 8d 35 a1 f5 00 00 	lea    rsi,[rip+0xf5a1]        # 215028 <emfile_promise_queue+0x8>
  205a87:	48 0f 45 f1          	cmovne rsi,rcx
  205a8b:	48 89 16             	mov    QWORD PTR [rsi],rdx
            list.len -= 1;
  205a8e:	48 83 05 9a f5 00 00 	add    QWORD PTR [rip+0xf59a],0xffffffffffffffff        # 215030 <emfile_promise_queue+0x10>
  205a95:	ff 
            assert(list.len == 0 or (list.first != null and list.last != null));
  205a96:	74 1e                	je     205ab6 <openSelfDebugInfo+0xf26>
  205a98:	48 83 3d 80 f5 00 00 	cmp    QWORD PTR [rip+0xf580],0x0        # 215020 <emfile_promise_queue>
  205a9f:	00 
  205aa0:	0f 84 bc 27 00 00    	je     208262 <openSelfDebugInfo+0x36d2>
  205aa6:	48 8b 0d 7b f5 00 00 	mov    rcx,QWORD PTR [rip+0xf57b]        # 215028 <emfile_promise_queue+0x8>
  205aad:	48 85 c9             	test   rcx,rcx
  205ab0:	0f 84 ac 27 00 00    	je     208262 <openSelfDebugInfo+0x36d2>
                    if (emfile_promise_queue.popFirst()) |p| resume p.data;
  205ab6:	48 8b 78 10          	mov    rdi,QWORD PTR [rax+0x10]
  205aba:	48 8b 47 10          	mov    rax,QWORD PTR [rdi+0x10]
  205abe:	48 89 c1             	mov    rcx,rax
  205ac1:	48 83 e1 fd          	and    rcx,0xfffffffffffffffd
  205ac5:	f0 48 0f b1 4f 10    	lock cmpxchg QWORD PTR [rdi+0x10],rcx
  205acb:	75 f1                	jne    205abe <openSelfDebugInfo+0xf2e>
  205acd:	a8 01                	test   al,0x1
  205acf:	75 02                	jne    205ad3 <openSelfDebugInfo+0xf43>
  205ad1:	ff 17                	call   QWORD PTR [rdi]
        self.freeFn(self, non_const_ptr[0..@sizeOf(@typeOf(ptr).Child)]);
  205ad3:	49 8b 47 10          	mov    rax,QWORD PTR [r15+0x10]
  205ad7:	48 89 9c 24 a0 00 00 	mov    QWORD PTR [rsp+0xa0],rbx
  205ade:	00 
  205adf:	48 c7 84 24 a8 00 00 	mov    QWORD PTR [rsp+0xa8],0xc8
  205ae6:	00 c8 00 00 00 
  205aeb:	48 8d b4 24 a0 00 00 	lea    rsi,[rsp+0xa0]
  205af2:	00 
  205af3:	4c 89 ff             	mov    rdi,r15
  205af6:	ff d0                	call   rax
            st.debug_abbrev = (try st.elf.findSection(".debug_abbrev")) orelse return error.MissingDebugInfo;
  205af8:	0f b7 84 24 98 02 00 	movzx  eax,WORD PTR [rsp+0x298]
  205aff:	00 
  205b00:	66 41 89 06          	mov    WORD PTR [r14],ax
  205b04:	48 8b 84 24 e2 03 00 	mov    rax,QWORD PTR [rsp+0x3e2]
  205b0b:	00 
  205b0c:	48 8b 8c 24 e8 03 00 	mov    rcx,QWORD PTR [rsp+0x3e8]
  205b13:	00 
  205b14:	e9 6d fd ff ff       	jmp    205886 <openSelfDebugInfo+0xcf6>
                list.first = node.next;
  205b19:	48 8b 48 08          	mov    rcx,QWORD PTR [rax+0x8]
  205b1d:	48 89 0d fc f4 00 00 	mov    QWORD PTR [rip+0xf4fc],rcx        # 215020 <emfile_promise_queue>
            if (node.next) |next_node| {
  205b24:	48 85 c9             	test   rcx,rcx
  205b27:	48 8b 10             	mov    rdx,QWORD PTR [rax]
  205b2a:	48 8d 35 f7 f4 00 00 	lea    rsi,[rip+0xf4f7]        # 215028 <emfile_promise_queue+0x8>
  205b31:	48 0f 45 f1          	cmovne rsi,rcx
  205b35:	48 89 16             	mov    QWORD PTR [rsi],rdx
            list.len -= 1;
  205b38:	48 83 05 f0 f4 00 00 	add    QWORD PTR [rip+0xf4f0],0xffffffffffffffff        # 215030 <emfile_promise_queue+0x10>
  205b3f:	ff 
            assert(list.len == 0 or (list.first != null and list.last != null));
  205b40:	74 1e                	je     205b60 <openSelfDebugInfo+0xfd0>
  205b42:	48 83 3d d6 f4 00 00 	cmp    QWORD PTR [rip+0xf4d6],0x0        # 215020 <emfile_promise_queue>
  205b49:	00 
  205b4a:	0f 84 12 27 00 00    	je     208262 <openSelfDebugInfo+0x36d2>
  205b50:	48 8b 0d d1 f4 00 00 	mov    rcx,QWORD PTR [rip+0xf4d1]        # 215028 <emfile_promise_queue+0x8>
  205b57:	48 85 c9             	test   rcx,rcx
  205b5a:	0f 84 02 27 00 00    	je     208262 <openSelfDebugInfo+0x36d2>
  205b60:	48 8b 78 10          	mov    rdi,QWORD PTR [rax+0x10]
  205b64:	48 8b 47 10          	mov    rax,QWORD PTR [rdi+0x10]
  205b68:	48 89 c1             	mov    rcx,rax
  205b6b:	48 83 e1 fd          	and    rcx,0xfffffffffffffffd
  205b6f:	f0 48 0f b1 4f 10    	lock cmpxchg QWORD PTR [rdi+0x10],rcx
  205b75:	75 f1                	jne    205b68 <openSelfDebugInfo+0xfd8>
  205b77:	a8 01                	test   al,0x1
  205b79:	75 02                	jne    205b7d <openSelfDebugInfo+0xfed>
  205b7b:	ff 17                	call   QWORD PTR [rdi]
  205b7d:	48 63 3b             	movsxd rdi,DWORD PTR [rbx]
  205b80:	b8 03 00 00 00       	mov    eax,0x3
  205b85:	0f 05                	syscall 
            switch (err) {
  205b87:	48 83 f8 fc          	cmp    rax,0xfffffffffffffffc
  205b8b:	74 f3                	je     205b80 <openSelfDebugInfo+0xff0>
            const first = list.first orelse return null;
  205b8d:	48 8b 05 8c f4 00 00 	mov    rax,QWORD PTR [rip+0xf48c]        # 215020 <emfile_promise_queue>
  205b94:	48 85 c0             	test   rax,rax
  205b97:	74 7a                	je     205c13 <openSelfDebugInfo+0x1083>
            if (node.prev) |prev_node| {
  205b99:	48 8b 08             	mov    rcx,QWORD PTR [rax]
  205b9c:	48 85 c9             	test   rcx,rcx
  205b9f:	74 0e                	je     205baf <openSelfDebugInfo+0x101f>
                prev_node.next = node.next;
  205ba1:	48 8b 50 08          	mov    rdx,QWORD PTR [rax+0x8]
  205ba5:	48 89 51 08          	mov    QWORD PTR [rcx+0x8],rdx
            if (node.next) |next_node| {
  205ba9:	48 8b 48 08          	mov    rcx,QWORD PTR [rax+0x8]
  205bad:	eb 0b                	jmp    205bba <openSelfDebugInfo+0x102a>
                list.first = node.next;
  205baf:	48 8b 48 08          	mov    rcx,QWORD PTR [rax+0x8]
  205bb3:	48 89 0d 66 f4 00 00 	mov    QWORD PTR [rip+0xf466],rcx        # 215020 <emfile_promise_queue>
            if (node.next) |next_node| {
  205bba:	48 85 c9             	test   rcx,rcx
  205bbd:	48 8b 10             	mov    rdx,QWORD PTR [rax]
  205bc0:	48 8d 35 61 f4 00 00 	lea    rsi,[rip+0xf461]        # 215028 <emfile_promise_queue+0x8>
  205bc7:	48 0f 45 f1          	cmovne rsi,rcx
  205bcb:	48 89 16             	mov    QWORD PTR [rsi],rdx
            list.len -= 1;
  205bce:	48 83 05 5a f4 00 00 	add    QWORD PTR [rip+0xf45a],0xffffffffffffffff        # 215030 <emfile_promise_queue+0x10>
  205bd5:	ff 
            assert(list.len == 0 or (list.first != null and list.last != null));
  205bd6:	74 1e                	je     205bf6 <openSelfDebugInfo+0x1066>
  205bd8:	48 83 3d 40 f4 00 00 	cmp    QWORD PTR [rip+0xf440],0x0        # 215020 <emfile_promise_queue>
  205bdf:	00 
  205be0:	0f 84 7c 26 00 00    	je     208262 <openSelfDebugInfo+0x36d2>
  205be6:	48 8b 0d 3b f4 00 00 	mov    rcx,QWORD PTR [rip+0xf43b]        # 215028 <emfile_promise_queue+0x8>
  205bed:	48 85 c9             	test   rcx,rcx
  205bf0:	0f 84 6c 26 00 00    	je     208262 <openSelfDebugInfo+0x36d2>
                    if (emfile_promise_queue.popFirst()) |p| resume p.data;
  205bf6:	48 8b 78 10          	mov    rdi,QWORD PTR [rax+0x10]
  205bfa:	48 8b 47 10          	mov    rax,QWORD PTR [rdi+0x10]
  205bfe:	48 89 c1             	mov    rcx,rax
  205c01:	48 83 e1 fd          	and    rcx,0xfffffffffffffffd
  205c05:	f0 48 0f b1 4f 10    	lock cmpxchg QWORD PTR [rdi+0x10],rcx
  205c0b:	75 f1                	jne    205bfe <openSelfDebugInfo+0x106e>
  205c0d:	a8 01                	test   al,0x1
  205c0f:	75 02                	jne    205c13 <openSelfDebugInfo+0x1083>
  205c11:	ff 17                	call   QWORD PTR [rdi]
  205c13:	49 8b 47 10          	mov    rax,QWORD PTR [r15+0x10]
  205c17:	48 89 9c 24 a0 00 00 	mov    QWORD PTR [rsp+0xa0],rbx
  205c1e:	00 
  205c1f:	48 c7 84 24 a8 00 00 	mov    QWORD PTR [rsp+0xa8],0xc8
  205c26:	00 c8 00 00 00 
  205c2b:	48 8d b4 24 a0 00 00 	lea    rsi,[rsp+0xa0]
  205c32:	00 
  205c33:	4c 89 ff             	mov    rdi,r15
  205c36:	ff d0                	call   rax
  205c38:	c5 fa 6f 05 70 c9 ff 	vmovdqu xmm0,XMMWORD PTR [rip+0xffffffffffffc970]        # 2025b0 <__unnamed_43>
  205c3f:	ff 
  205c40:	c4 c1 7a 7f 06       	vmovdqu XMMWORD PTR [r14],xmm0
  205c45:	e9 44 fc ff ff       	jmp    20588e <openSelfDebugInfo+0xcfe>
        const bytes = @sliceToBytes(memory);
  205c4a:	48 8b 43 48          	mov    rax,QWORD PTR [rbx+0x48]
  205c4e:	48 c1 e0 06          	shl    rax,0x6
        if (bytes.len == 0) return;
  205c52:	74 26                	je     205c7a <openSelfDebugInfo+0x10ea>
  205c54:	48 8b 7b 50          	mov    rdi,QWORD PTR [rbx+0x50]
        const bytes = @sliceToBytes(memory);
  205c58:	48 8b 4b 40          	mov    rcx,QWORD PTR [rbx+0x40]
        self.freeFn(self, non_const_ptr[0..bytes.len]);
  205c5c:	48 8b 57 10          	mov    rdx,QWORD PTR [rdi+0x10]
  205c60:	48 89 8c 24 a0 00 00 	mov    QWORD PTR [rsp+0xa0],rcx
  205c67:	00 
  205c68:	48 89 84 24 a8 00 00 	mov    QWORD PTR [rsp+0xa8],rax
  205c6f:	00 
  205c70:	48 8d b4 24 a0 00 00 	lea    rsi,[rsp+0xa0]
  205c77:	00 
  205c78:	ff d2                	call   rdx
  205c7a:	80 7b 10 01          	cmp    BYTE PTR [rbx+0x10],0x1
  205c7e:	0f 85 27 13 00 00    	jne    206fab <openSelfDebugInfo+0x241b>
  205c84:	49 8b 04 24          	mov    rax,QWORD PTR [r12]
  205c88:	48 63 38             	movsxd rdi,DWORD PTR [rax]
  205c8b:	b8 03 00 00 00       	mov    eax,0x3
  205c90:	0f 05                	syscall 
            switch (err) {
  205c92:	48 83 f8 fc          	cmp    rax,0xfffffffffffffffc
  205c96:	74 f3                	je     205c8b <openSelfDebugInfo+0x10fb>
            const first = list.first orelse return null;
  205c98:	48 8b 05 81 f3 00 00 	mov    rax,QWORD PTR [rip+0xf381]        # 215020 <emfile_promise_queue>
  205c9f:	48 85 c0             	test   rax,rax
  205ca2:	0f 84 03 13 00 00    	je     206fab <openSelfDebugInfo+0x241b>
            if (node.prev) |prev_node| {
  205ca8:	48 8b 08             	mov    rcx,QWORD PTR [rax]
  205cab:	48 85 c9             	test   rcx,rcx
  205cae:	0f 84 93 12 00 00    	je     206f47 <openSelfDebugInfo+0x23b7>
                prev_node.next = node.next;
  205cb4:	48 8b 50 08          	mov    rdx,QWORD PTR [rax+0x8]
  205cb8:	48 89 51 08          	mov    QWORD PTR [rcx+0x8],rdx
            if (node.next) |next_node| {
  205cbc:	48 8b 48 08          	mov    rcx,QWORD PTR [rax+0x8]
  205cc0:	e9 8d 12 00 00       	jmp    206f52 <openSelfDebugInfo+0x23c2>
            st.debug_line = (try st.elf.findSection(".debug_line")) orelse return error.MissingDebugInfo;
  205cc5:	48 8b 84 24 80 02 00 	mov    rax,QWORD PTR [rsp+0x280]
  205ccc:	00 
  205ccd:	48 85 c0             	test   rax,rax
  205cd0:	0f 84 e2 02 00 00    	je     205fb8 <openSelfDebugInfo+0x1428>
  205cd6:	48 89 43 78          	mov    QWORD PTR [rbx+0x78],rax
            st.debug_ranges = (try st.elf.findSection(".debug_ranges"));
  205cda:	48 8d 15 27 e6 00 00 	lea    rdx,[rip+0xe627]        # 214308 <__unnamed_44>
  205ce1:	48 8d bc 24 68 02 00 	lea    rdi,[rsp+0x268]
  205ce8:	00 
  205ce9:	4c 89 e6             	mov    rsi,r12
  205cec:	e8 8f 30 00 00       	call   208d80 <Elf_findSection>
  205cf1:	66 83 bc 24 68 02 00 	cmp    WORD PTR [rsp+0x268],0x0
  205cf8:	00 00 
  205cfa:	0f 84 33 03 00 00    	je     206033 <openSelfDebugInfo+0x14a3>
        const bytes = @sliceToBytes(memory);
  205d00:	48 8b 43 48          	mov    rax,QWORD PTR [rbx+0x48]
  205d04:	48 c1 e0 06          	shl    rax,0x6
        if (bytes.len == 0) return;
  205d08:	74 26                	je     205d30 <openSelfDebugInfo+0x11a0>
  205d0a:	48 8b 7b 50          	mov    rdi,QWORD PTR [rbx+0x50]
        const bytes = @sliceToBytes(memory);
  205d0e:	48 8b 4b 40          	mov    rcx,QWORD PTR [rbx+0x40]
        self.freeFn(self, non_const_ptr[0..bytes.len]);
  205d12:	48 8b 57 10          	mov    rdx,QWORD PTR [rdi+0x10]
  205d16:	48 89 8c 24 a0 00 00 	mov    QWORD PTR [rsp+0xa0],rcx
  205d1d:	00 
  205d1e:	48 89 84 24 a8 00 00 	mov    QWORD PTR [rsp+0xa8],rax
  205d25:	00 
  205d26:	48 8d b4 24 a0 00 00 	lea    rsi,[rsp+0xa0]
  205d2d:	00 
  205d2e:	ff d2                	call   rdx
  205d30:	80 7b 10 01          	cmp    BYTE PTR [rbx+0x10],0x1
  205d34:	0f 85 a2 13 00 00    	jne    2070dc <openSelfDebugInfo+0x254c>
  205d3a:	49 8b 04 24          	mov    rax,QWORD PTR [r12]
  205d3e:	48 63 38             	movsxd rdi,DWORD PTR [rax]
  205d41:	b8 03 00 00 00       	mov    eax,0x3
  205d46:	0f 05                	syscall 
  205d48:	48 83 f8 fc          	cmp    rax,0xfffffffffffffffc
  205d4c:	74 f3                	je     205d41 <openSelfDebugInfo+0x11b1>
            const first = list.first orelse return null;
  205d4e:	48 8b 05 cb f2 00 00 	mov    rax,QWORD PTR [rip+0xf2cb]        # 215020 <emfile_promise_queue>
  205d55:	48 85 c0             	test   rax,rax
  205d58:	0f 84 7e 13 00 00    	je     2070dc <openSelfDebugInfo+0x254c>
            if (node.prev) |prev_node| {
  205d5e:	48 8b 08             	mov    rcx,QWORD PTR [rax]
  205d61:	48 85 c9             	test   rcx,rcx
  205d64:	0f 84 0e 13 00 00    	je     207078 <openSelfDebugInfo+0x24e8>
                prev_node.next = node.next;
  205d6a:	48 8b 50 08          	mov    rdx,QWORD PTR [rax+0x8]
  205d6e:	48 89 51 08          	mov    QWORD PTR [rcx+0x8],rdx
            if (node.next) |next_node| {
  205d72:	48 8b 48 08          	mov    rcx,QWORD PTR [rax+0x8]
  205d76:	e9 08 13 00 00       	jmp    207083 <openSelfDebugInfo+0x24f3>
                list.first = node.next;
  205d7b:	48 8b 48 08          	mov    rcx,QWORD PTR [rax+0x8]
  205d7f:	48 89 0d 9a f2 00 00 	mov    QWORD PTR [rip+0xf29a],rcx        # 215020 <emfile_promise_queue>
            if (node.next) |next_node| {
  205d86:	48 85 c9             	test   rcx,rcx
  205d89:	48 8b 10             	mov    rdx,QWORD PTR [rax]
  205d8c:	48 8d 35 95 f2 00 00 	lea    rsi,[rip+0xf295]        # 215028 <emfile_promise_queue+0x8>
  205d93:	48 0f 45 f1          	cmovne rsi,rcx
  205d97:	48 89 16             	mov    QWORD PTR [rsi],rdx
            list.len -= 1;
  205d9a:	48 83 05 8e f2 00 00 	add    QWORD PTR [rip+0xf28e],0xffffffffffffffff        # 215030 <emfile_promise_queue+0x10>
  205da1:	ff 
            assert(list.len == 0 or (list.first != null and list.last != null));
  205da2:	74 1e                	je     205dc2 <openSelfDebugInfo+0x1232>
  205da4:	48 83 3d 74 f2 00 00 	cmp    QWORD PTR [rip+0xf274],0x0        # 215020 <emfile_promise_queue>
  205dab:	00 
  205dac:	0f 84 b0 24 00 00    	je     208262 <openSelfDebugInfo+0x36d2>
  205db2:	48 8b 0d 6f f2 00 00 	mov    rcx,QWORD PTR [rip+0xf26f]        # 215028 <emfile_promise_queue+0x8>
  205db9:	48 85 c9             	test   rcx,rcx
  205dbc:	0f 84 a0 24 00 00    	je     208262 <openSelfDebugInfo+0x36d2>
                    if (emfile_promise_queue.popFirst()) |p| resume p.data;
  205dc2:	48 8b 78 10          	mov    rdi,QWORD PTR [rax+0x10]
  205dc6:	48 8b 47 10          	mov    rax,QWORD PTR [rdi+0x10]
  205dca:	48 89 c1             	mov    rcx,rax
  205dcd:	48 83 e1 fd          	and    rcx,0xfffffffffffffffd
  205dd1:	f0 48 0f b1 4f 10    	lock cmpxchg QWORD PTR [rdi+0x10],rcx
  205dd7:	75 f1                	jne    205dca <openSelfDebugInfo+0x123a>
  205dd9:	a8 01                	test   al,0x1
  205ddb:	75 02                	jne    205ddf <openSelfDebugInfo+0x124f>
  205ddd:	ff 17                	call   QWORD PTR [rdi]
  205ddf:	48 63 3b             	movsxd rdi,DWORD PTR [rbx]
  205de2:	b8 03 00 00 00       	mov    eax,0x3
  205de7:	0f 05                	syscall 
            switch (err) {
  205de9:	48 83 f8 fc          	cmp    rax,0xfffffffffffffffc
  205ded:	74 f3                	je     205de2 <openSelfDebugInfo+0x1252>
            const first = list.first orelse return null;
  205def:	48 8b 05 2a f2 00 00 	mov    rax,QWORD PTR [rip+0xf22a]        # 215020 <emfile_promise_queue>
  205df6:	48 85 c0             	test   rax,rax
  205df9:	74 7a                	je     205e75 <openSelfDebugInfo+0x12e5>
            if (node.prev) |prev_node| {
  205dfb:	48 8b 08             	mov    rcx,QWORD PTR [rax]
  205dfe:	48 85 c9             	test   rcx,rcx
  205e01:	74 0e                	je     205e11 <openSelfDebugInfo+0x1281>
                prev_node.next = node.next;
  205e03:	48 8b 50 08          	mov    rdx,QWORD PTR [rax+0x8]
  205e07:	48 89 51 08          	mov    QWORD PTR [rcx+0x8],rdx
            if (node.next) |next_node| {
  205e0b:	48 8b 48 08          	mov    rcx,QWORD PTR [rax+0x8]
  205e0f:	eb 0b                	jmp    205e1c <openSelfDebugInfo+0x128c>
                list.first = node.next;
  205e11:	48 8b 48 08          	mov    rcx,QWORD PTR [rax+0x8]
  205e15:	48 89 0d 04 f2 00 00 	mov    QWORD PTR [rip+0xf204],rcx        # 215020 <emfile_promise_queue>
            if (node.next) |next_node| {
  205e1c:	48 85 c9             	test   rcx,rcx
  205e1f:	48 8b 10             	mov    rdx,QWORD PTR [rax]
  205e22:	48 8d 35 ff f1 00 00 	lea    rsi,[rip+0xf1ff]        # 215028 <emfile_promise_queue+0x8>
  205e29:	48 0f 45 f1          	cmovne rsi,rcx
  205e2d:	48 89 16             	mov    QWORD PTR [rsi],rdx
            list.len -= 1;
  205e30:	48 83 05 f8 f1 00 00 	add    QWORD PTR [rip+0xf1f8],0xffffffffffffffff        # 215030 <emfile_promise_queue+0x10>
  205e37:	ff 
            assert(list.len == 0 or (list.first != null and list.last != null));
  205e38:	74 1e                	je     205e58 <openSelfDebugInfo+0x12c8>
  205e3a:	48 83 3d de f1 00 00 	cmp    QWORD PTR [rip+0xf1de],0x0        # 215020 <emfile_promise_queue>
  205e41:	00 
  205e42:	0f 84 1a 24 00 00    	je     208262 <openSelfDebugInfo+0x36d2>
  205e48:	48 8b 0d d9 f1 00 00 	mov    rcx,QWORD PTR [rip+0xf1d9]        # 215028 <emfile_promise_queue+0x8>
  205e4f:	48 85 c9             	test   rcx,rcx
  205e52:	0f 84 0a 24 00 00    	je     208262 <openSelfDebugInfo+0x36d2>
                    if (emfile_promise_queue.popFirst()) |p| resume p.data;
  205e58:	48 8b 78 10          	mov    rdi,QWORD PTR [rax+0x10]
  205e5c:	48 8b 47 10          	mov    rax,QWORD PTR [rdi+0x10]
  205e60:	48 89 c1             	mov    rcx,rax
  205e63:	48 83 e1 fd          	and    rcx,0xfffffffffffffffd
  205e67:	f0 48 0f b1 4f 10    	lock cmpxchg QWORD PTR [rdi+0x10],rcx
  205e6d:	75 f1                	jne    205e60 <openSelfDebugInfo+0x12d0>
  205e6f:	a8 01                	test   al,0x1
  205e71:	75 02                	jne    205e75 <openSelfDebugInfo+0x12e5>
  205e73:	ff 17                	call   QWORD PTR [rdi]
        self.freeFn(self, non_const_ptr[0..@sizeOf(@typeOf(ptr).Child)]);
  205e75:	49 8b 47 10          	mov    rax,QWORD PTR [r15+0x10]
  205e79:	48 89 9c 24 a0 00 00 	mov    QWORD PTR [rsp+0xa0],rbx
  205e80:	00 
  205e81:	48 c7 84 24 a8 00 00 	mov    QWORD PTR [rsp+0xa8],0xc8
  205e88:	00 c8 00 00 00 
  205e8d:	48 8d b4 24 a0 00 00 	lea    rsi,[rsp+0xa0]
  205e94:	00 
  205e95:	4c 89 ff             	mov    rdi,r15
  205e98:	ff d0                	call   rax
            st.debug_str = (try st.elf.findSection(".debug_str")) orelse return error.MissingDebugInfo;
  205e9a:	0f b7 84 24 88 02 00 	movzx  eax,WORD PTR [rsp+0x288]
  205ea1:	00 
  205ea2:	66 41 89 06          	mov    WORD PTR [r14],ax
  205ea6:	48 8b 84 24 d4 03 00 	mov    rax,QWORD PTR [rsp+0x3d4]
  205ead:	00 
  205eae:	48 8b 8c 24 da 03 00 	mov    rcx,QWORD PTR [rsp+0x3da]
  205eb5:	00 
  205eb6:	e9 cb f9 ff ff       	jmp    205886 <openSelfDebugInfo+0xcf6>
                list.first = node.next;
  205ebb:	48 8b 48 08          	mov    rcx,QWORD PTR [rax+0x8]
  205ebf:	48 89 0d 5a f1 00 00 	mov    QWORD PTR [rip+0xf15a],rcx        # 215020 <emfile_promise_queue>
            if (node.next) |next_node| {
  205ec6:	48 85 c9             	test   rcx,rcx
  205ec9:	48 8b 10             	mov    rdx,QWORD PTR [rax]
  205ecc:	48 8d 35 55 f1 00 00 	lea    rsi,[rip+0xf155]        # 215028 <emfile_promise_queue+0x8>
  205ed3:	48 0f 45 f1          	cmovne rsi,rcx
  205ed7:	48 89 16             	mov    QWORD PTR [rsi],rdx
            list.len -= 1;
  205eda:	48 83 05 4e f1 00 00 	add    QWORD PTR [rip+0xf14e],0xffffffffffffffff        # 215030 <emfile_promise_queue+0x10>
  205ee1:	ff 
            assert(list.len == 0 or (list.first != null and list.last != null));
  205ee2:	74 1e                	je     205f02 <openSelfDebugInfo+0x1372>
  205ee4:	48 83 3d 34 f1 00 00 	cmp    QWORD PTR [rip+0xf134],0x0        # 215020 <emfile_promise_queue>
  205eeb:	00 
  205eec:	0f 84 70 23 00 00    	je     208262 <openSelfDebugInfo+0x36d2>
  205ef2:	48 8b 0d 2f f1 00 00 	mov    rcx,QWORD PTR [rip+0xf12f]        # 215028 <emfile_promise_queue+0x8>
  205ef9:	48 85 c9             	test   rcx,rcx
  205efc:	0f 84 60 23 00 00    	je     208262 <openSelfDebugInfo+0x36d2>
  205f02:	48 8b 78 10          	mov    rdi,QWORD PTR [rax+0x10]
  205f06:	48 8b 47 10          	mov    rax,QWORD PTR [rdi+0x10]
  205f0a:	48 89 c1             	mov    rcx,rax
  205f0d:	48 83 e1 fd          	and    rcx,0xfffffffffffffffd
  205f11:	f0 48 0f b1 4f 10    	lock cmpxchg QWORD PTR [rdi+0x10],rcx
  205f17:	75 f1                	jne    205f0a <openSelfDebugInfo+0x137a>
  205f19:	a8 01                	test   al,0x1
  205f1b:	75 02                	jne    205f1f <openSelfDebugInfo+0x138f>
  205f1d:	ff 17                	call   QWORD PTR [rdi]
  205f1f:	48 63 3b             	movsxd rdi,DWORD PTR [rbx]
  205f22:	b8 03 00 00 00       	mov    eax,0x3
  205f27:	0f 05                	syscall 
            switch (err) {
  205f29:	48 83 f8 fc          	cmp    rax,0xfffffffffffffffc
  205f2d:	74 f3                	je     205f22 <openSelfDebugInfo+0x1392>
            const first = list.first orelse return null;
  205f2f:	48 8b 05 ea f0 00 00 	mov    rax,QWORD PTR [rip+0xf0ea]        # 215020 <emfile_promise_queue>
  205f36:	48 85 c0             	test   rax,rax
  205f39:	0f 84 d4 fc ff ff    	je     205c13 <openSelfDebugInfo+0x1083>
            if (node.prev) |prev_node| {
  205f3f:	48 8b 08             	mov    rcx,QWORD PTR [rax]
  205f42:	48 85 c9             	test   rcx,rcx
  205f45:	74 0e                	je     205f55 <openSelfDebugInfo+0x13c5>
                prev_node.next = node.next;
  205f47:	48 8b 50 08          	mov    rdx,QWORD PTR [rax+0x8]
  205f4b:	48 89 51 08          	mov    QWORD PTR [rcx+0x8],rdx
            if (node.next) |next_node| {
  205f4f:	48 8b 48 08          	mov    rcx,QWORD PTR [rax+0x8]
  205f53:	eb 0b                	jmp    205f60 <openSelfDebugInfo+0x13d0>
                list.first = node.next;
  205f55:	48 8b 48 08          	mov    rcx,QWORD PTR [rax+0x8]
  205f59:	48 89 0d c0 f0 00 00 	mov    QWORD PTR [rip+0xf0c0],rcx        # 215020 <emfile_promise_queue>
            if (node.next) |next_node| {
  205f60:	48 85 c9             	test   rcx,rcx
  205f63:	48 8b 10             	mov    rdx,QWORD PTR [rax]
  205f66:	48 8d 35 bb f0 00 00 	lea    rsi,[rip+0xf0bb]        # 215028 <emfile_promise_queue+0x8>
  205f6d:	48 0f 45 f1          	cmovne rsi,rcx
  205f71:	48 89 16             	mov    QWORD PTR [rsi],rdx
            list.len -= 1;
  205f74:	48 83 05 b4 f0 00 00 	add    QWORD PTR [rip+0xf0b4],0xffffffffffffffff        # 215030 <emfile_promise_queue+0x10>
  205f7b:	ff 
            assert(list.len == 0 or (list.first != null and list.last != null));
  205f7c:	74 1e                	je     205f9c <openSelfDebugInfo+0x140c>
  205f7e:	48 83 3d 9a f0 00 00 	cmp    QWORD PTR [rip+0xf09a],0x0        # 215020 <emfile_promise_queue>
  205f85:	00 
  205f86:	0f 84 d6 22 00 00    	je     208262 <openSelfDebugInfo+0x36d2>
  205f8c:	48 8b 0d 95 f0 00 00 	mov    rcx,QWORD PTR [rip+0xf095]        # 215028 <emfile_promise_queue+0x8>
  205f93:	48 85 c9             	test   rcx,rcx
  205f96:	0f 84 c6 22 00 00    	je     208262 <openSelfDebugInfo+0x36d2>
                    if (emfile_promise_queue.popFirst()) |p| resume p.data;
  205f9c:	48 8b 78 10          	mov    rdi,QWORD PTR [rax+0x10]
  205fa0:	48 8b 47 10          	mov    rax,QWORD PTR [rdi+0x10]
  205fa4:	48 89 c1             	mov    rcx,rax
  205fa7:	48 83 e1 fd          	and    rcx,0xfffffffffffffffd
  205fab:	f0 48 0f b1 4f 10    	lock cmpxchg QWORD PTR [rdi+0x10],rcx
  205fb1:	75 f1                	jne    205fa4 <openSelfDebugInfo+0x1414>
  205fb3:	e9 55 fc ff ff       	jmp    205c0d <openSelfDebugInfo+0x107d>
        const bytes = @sliceToBytes(memory);
  205fb8:	48 8b 43 48          	mov    rax,QWORD PTR [rbx+0x48]
  205fbc:	48 c1 e0 06          	shl    rax,0x6
        if (bytes.len == 0) return;
  205fc0:	74 26                	je     205fe8 <openSelfDebugInfo+0x1458>
  205fc2:	48 8b 7b 50          	mov    rdi,QWORD PTR [rbx+0x50]
        const bytes = @sliceToBytes(memory);
  205fc6:	48 8b 4b 40          	mov    rcx,QWORD PTR [rbx+0x40]
        self.freeFn(self, non_const_ptr[0..bytes.len]);
  205fca:	48 8b 57 10          	mov    rdx,QWORD PTR [rdi+0x10]
  205fce:	48 89 8c 24 a0 00 00 	mov    QWORD PTR [rsp+0xa0],rcx
  205fd5:	00 
  205fd6:	48 89 84 24 a8 00 00 	mov    QWORD PTR [rsp+0xa8],rax
  205fdd:	00 
  205fde:	48 8d b4 24 a0 00 00 	lea    rsi,[rsp+0xa0]
  205fe5:	00 
  205fe6:	ff d2                	call   rdx
  205fe8:	80 7b 10 01          	cmp    BYTE PTR [rbx+0x10],0x1
  205fec:	0f 85 2a 12 00 00    	jne    20721c <openSelfDebugInfo+0x268c>
  205ff2:	49 8b 04 24          	mov    rax,QWORD PTR [r12]
  205ff6:	48 63 38             	movsxd rdi,DWORD PTR [rax]
  205ff9:	b8 03 00 00 00       	mov    eax,0x3
  205ffe:	0f 05                	syscall 
            switch (err) {
  206000:	48 83 f8 fc          	cmp    rax,0xfffffffffffffffc
  206004:	74 f3                	je     205ff9 <openSelfDebugInfo+0x1469>
            const first = list.first orelse return null;
  206006:	48 8b 05 13 f0 00 00 	mov    rax,QWORD PTR [rip+0xf013]        # 215020 <emfile_promise_queue>
  20600d:	48 85 c0             	test   rax,rax
  206010:	0f 84 06 12 00 00    	je     20721c <openSelfDebugInfo+0x268c>
            if (node.prev) |prev_node| {
  206016:	48 8b 08             	mov    rcx,QWORD PTR [rax]
  206019:	48 85 c9             	test   rcx,rcx
  20601c:	0f 84 96 11 00 00    	je     2071b8 <openSelfDebugInfo+0x2628>
                prev_node.next = node.next;
  206022:	48 8b 50 08          	mov    rdx,QWORD PTR [rax+0x8]
  206026:	48 89 51 08          	mov    QWORD PTR [rcx+0x8],rdx
            if (node.next) |next_node| {
  20602a:	48 8b 48 08          	mov    rcx,QWORD PTR [rax+0x8]
  20602e:	e9 90 11 00 00       	jmp    2071c3 <openSelfDebugInfo+0x2633>
            st.debug_ranges = (try st.elf.findSection(".debug_ranges"));
  206033:	48 8b 84 24 70 02 00 	mov    rax,QWORD PTR [rsp+0x270]
  20603a:	00 
  20603b:	48 89 83 80 00 00 00 	mov    QWORD PTR [rbx+0x80],rax
    const debug_info_end = st.debug_info.offset + st.debug_info.size;
  206042:	48 8b 43 60          	mov    rax,QWORD PTR [rbx+0x60]
  206046:	48 8b 48 18          	mov    rcx,QWORD PTR [rax+0x18]
  20604a:	48 89 4c 24 38       	mov    QWORD PTR [rsp+0x38],rcx
  20604f:	48 8b 48 20          	mov    rcx,QWORD PTR [rax+0x20]
    var in_file_stream = io.FileInStream.init(&st.self_exe_file);
  206053:	48 89 9c 24 40 01 00 	mov    QWORD PTR [rsp+0x140],rbx
  20605a:	00 
  20605b:	48 8d 05 5e 36 00 00 	lea    rax,[rip+0x365e]        # 2096c0 <FileInStream_readFn>
  206062:	48 89 84 24 48 01 00 	mov    QWORD PTR [rsp+0x148],rax
  206069:	00 
  20606a:	48 89 4c 24 50       	mov    QWORD PTR [rsp+0x50],rcx
    while (this_unit_offset < debug_info_end) {
  20606f:	48 85 c9             	test   rcx,rcx
  206072:	0f 84 cc 0f 00 00    	je     207044 <openSelfDebugInfo+0x24b4>
  206078:	48 8d 83 88 00 00 00 	lea    rax,[rbx+0x88]
  20607f:	48 89 44 24 58       	mov    QWORD PTR [rsp+0x58],rax
  206084:	48 8d 83 a8 00 00 00 	lea    rax,[rbx+0xa8]
  20608b:	48 89 84 24 78 01 00 	mov    QWORD PTR [rsp+0x178],rax
  206092:	00 
  206093:	48 8b 44 24 38       	mov    rax,QWORD PTR [rsp+0x38]
  206098:	48 01 44 24 50       	add    QWORD PTR [rsp+0x50],rax
  20609d:	66 c7 84 24 9e 00 00 	mov    WORD PTR [rsp+0x9e],0x1c
  2060a4:	00 1c 00 
  2060a7:	c4 e2 7d 19 05 58 a1 	vbroadcastsd ymm0,QWORD PTR [rip+0xffffffffffffa158]        # 200208 <app_mask-0x18>
  2060ae:	ff ff 
  2060b0:	c5 fc 11 84 24 80 04 	vmovups YMMWORD PTR [rsp+0x480],ymm0
  2060b7:	00 00 
  2060b9:	c4 e2 7d 59 05 7e a1 	vpbroadcastq ymm0,QWORD PTR [rip+0xffffffffffffa17e]        # 200240 <app_mask+0x20>
  2060c0:	ff ff 
  2060c2:	c5 fe 7f 84 24 60 04 	vmovdqu YMMWORD PTR [rsp+0x460],ymm0
  2060c9:	00 00 
  2060cb:	66 c7 44 24 04 05 00 	mov    WORD PTR [rsp+0x4],0x5
  2060d2:	31 c0                	xor    eax,eax
  2060d4:	48 89 84 24 80 01 00 	mov    QWORD PTR [rsp+0x180],rax
  2060db:	00 
    if (@maxValue(@typeOf(x)) > @maxValue(T) and x > @maxValue(T)) {
  2060dc:	48 83 7c 24 38 00    	cmp    QWORD PTR [rsp+0x38],0x0
  2060e2:	0f 88 08 14 00 00    	js     2074f0 <openSelfDebugInfo+0x2960>
    return syscall3(SYS_lseek, @intCast(usize, fd), @bitCast(usize, offset), ref_pos);
  2060e8:	48 63 3b             	movsxd rdi,DWORD PTR [rbx]
    return asm volatile ("syscall"
  2060eb:	b8 08 00 00 00       	mov    eax,0x8
  2060f0:	31 d2                	xor    edx,edx
  2060f2:	48 8b 74 24 38       	mov    rsi,QWORD PTR [rsp+0x38]
  2060f7:	0f 05                	syscall 
    return if (signed_r > -4096 and signed_r < 0) @intCast(usize, -signed_r) else 0;
  2060f9:	48 89 c1             	mov    rcx,rax
  2060fc:	48 f7 d9             	neg    rcx
  2060ff:	48 3d 00 f0 ff ff    	cmp    rax,0xfffffffffffff000
  206105:	b8 00 00 00 00       	mov    eax,0x0
  20610a:	48 0f 46 c8          	cmovbe rcx,rax
                if (err > 0) {
  20610e:	48 85 c9             	test   rcx,rcx
  206111:	0f 85 01 14 00 00    	jne    207518 <openSelfDebugInfo+0x2988>
            try self.readNoEof(bytes[0..]);
  206117:	48 8d 44 24 08       	lea    rax,[rsp+0x8]
  20611c:	48 89 44 24 60       	mov    QWORD PTR [rsp+0x60],rax
  206121:	48 c7 44 24 68 04 00 	mov    QWORD PTR [rsp+0x68],0x4
  206128:	00 00 
            return self.readFn(self, buffer);
  20612a:	4c 89 ef             	mov    rdi,r13
  20612d:	48 8d b4 24 48 01 00 	lea    rsi,[rsp+0x148]
  206134:	00 
  206135:	48 8d 54 24 60       	lea    rdx,[rsp+0x60]
  20613a:	c5 f8 77             	vzeroupper 
  20613d:	ff 94 24 48 01 00 00 	call   QWORD PTR [rsp+0x148]
  206144:	0f b7 8c 24 a0 00 00 	movzx  ecx,WORD PTR [rsp+0xa0]
  20614b:	00 
  20614c:	89 c8                	mov    eax,ecx
            const amt_read = try self.read(buf);
  20614e:	66 85 c9             	test   cx,cx
  206151:	0f 85 51 13 00 00    	jne    2074a8 <openSelfDebugInfo+0x2918>
  206157:	48 8b 84 24 a8 00 00 	mov    rax,QWORD PTR [rsp+0xa8]
  20615e:	00 
            if (amt_read < buf.len) return error.EndOfStream;
  20615f:	48 3b 44 24 68       	cmp    rax,QWORD PTR [rsp+0x68]
  206164:	0f 82 3a 13 00 00    	jb     2074a4 <openSelfDebugInfo+0x2914>
  20616a:	0f b6 44 24 08       	movzx  eax,BYTE PTR [rsp+0x8]
                result = result | (T(b) << @intCast(ShiftType, index * 8));
  20616f:	0f b6 4c 24 09       	movzx  ecx,BYTE PTR [rsp+0x9]
  206174:	48 c1 e1 08          	shl    rcx,0x8
  206178:	48 09 c1             	or     rcx,rax
  20617b:	0f b6 44 24 0a       	movzx  eax,BYTE PTR [rsp+0xa]
  206180:	48 c1 e0 10          	shl    rax,0x10
  206184:	48 09 c8             	or     rax,rcx
  206187:	0f b6 4c 24 0b       	movzx  ecx,BYTE PTR [rsp+0xb]
  20618c:	48 c1 e1 18          	shl    rcx,0x18
  206190:	48 09 c1             	or     rcx,rax
  206193:	48 89 4c 24 48       	mov    QWORD PTR [rsp+0x48],rcx
    is_64.* = (first_32_bits == 0xffffffff);
  206198:	83 f9 ff             	cmp    ecx,0xffffffff
    if (is_64.*) {
  20619b:	74 20                	je     2061bd <openSelfDebugInfo+0x162d>
        if (first_32_bits >= 0xfffffff0) return error.InvalidDebugInfo;
  20619d:	83 7c 24 48 ef       	cmp    DWORD PTR [rsp+0x48],0xffffffef
  2061a2:	0f 87 5c 13 00 00    	ja     207504 <openSelfDebugInfo+0x2974>
  2061a8:	c7 44 24 40 00 00 00 	mov    DWORD PTR [rsp+0x40],0x0
  2061af:	00 
        if (unit_length == 0) return;
  2061b0:	48 83 7c 24 48 00    	cmp    QWORD PTR [rsp+0x48],0x0
  2061b6:	75 77                	jne    20622f <openSelfDebugInfo+0x169f>
  2061b8:	e9 87 0e 00 00       	jmp    207044 <openSelfDebugInfo+0x24b4>
            try self.readNoEof(bytes[0..]);
  2061bd:	48 8d 84 24 b8 02 00 	lea    rax,[rsp+0x2b8]
  2061c4:	00 
  2061c5:	48 89 44 24 60       	mov    QWORD PTR [rsp+0x60],rax
  2061ca:	48 c7 44 24 68 08 00 	mov    QWORD PTR [rsp+0x68],0x8
  2061d1:	00 00 
            return self.readFn(self, buffer);
  2061d3:	4c 89 ef             	mov    rdi,r13
  2061d6:	48 8d b4 24 48 01 00 	lea    rsi,[rsp+0x148]
  2061dd:	00 
  2061de:	48 8d 54 24 60       	lea    rdx,[rsp+0x60]
  2061e3:	ff 94 24 48 01 00 00 	call   QWORD PTR [rsp+0x148]
  2061ea:	0f b7 8c 24 a0 00 00 	movzx  ecx,WORD PTR [rsp+0xa0]
  2061f1:	00 
  2061f2:	89 c8                	mov    eax,ecx
            const amt_read = try self.read(buf);
  2061f4:	66 85 c9             	test   cx,cx
  2061f7:	0f 85 ab 12 00 00    	jne    2074a8 <openSelfDebugInfo+0x2918>
  2061fd:	48 8b 84 24 a8 00 00 	mov    rax,QWORD PTR [rsp+0xa8]
  206204:	00 
            if (amt_read < buf.len) return error.EndOfStream;
  206205:	48 3b 44 24 68       	cmp    rax,QWORD PTR [rsp+0x68]
  20620a:	0f 82 94 12 00 00    	jb     2074a4 <openSelfDebugInfo+0x2914>
  206210:	48 8b 84 24 b8 02 00 	mov    rax,QWORD PTR [rsp+0x2b8]
  206217:	00 
  206218:	48 89 44 24 48       	mov    QWORD PTR [rsp+0x48],rax
  20621d:	b0 01                	mov    al,0x1
        const unit_length = try readInitialLength(@typeOf(in_stream.readFn).ReturnType.ErrorSet, in_stream, &is_64);
  20621f:	89 44 24 40          	mov    DWORD PTR [rsp+0x40],eax
        if (unit_length == 0) return;
  206223:	48 83 7c 24 48 00    	cmp    QWORD PTR [rsp+0x48],0x0
  206229:	0f 84 15 0e 00 00    	je     207044 <openSelfDebugInfo+0x24b4>
        const version = try in_stream.readInt(st.elf.endian, u16);
  20622f:	40 8a 6b 12          	mov    bpl,BYTE PTR [rbx+0x12]
            try self.readNoEof(bytes[0..]);
  206233:	48 8d 44 24 08       	lea    rax,[rsp+0x8]
  206238:	48 89 44 24 60       	mov    QWORD PTR [rsp+0x60],rax
  20623d:	48 c7 44 24 68 02 00 	mov    QWORD PTR [rsp+0x68],0x2
  206244:	00 00 
            return self.readFn(self, buffer);
  206246:	4c 89 ef             	mov    rdi,r13
  206249:	48 8d b4 24 48 01 00 	lea    rsi,[rsp+0x148]
  206250:	00 
  206251:	48 8d 54 24 60       	lea    rdx,[rsp+0x60]
  206256:	ff 94 24 48 01 00 00 	call   QWORD PTR [rsp+0x148]
  20625d:	0f b7 8c 24 a0 00 00 	movzx  ecx,WORD PTR [rsp+0xa0]
  206264:	00 
  206265:	89 c8                	mov    eax,ecx
            const amt_read = try self.read(buf);
  206267:	66 85 c9             	test   cx,cx
  20626a:	0f 85 38 12 00 00    	jne    2074a8 <openSelfDebugInfo+0x2918>
  206270:	48 8b 84 24 a8 00 00 	mov    rax,QWORD PTR [rsp+0xa8]
  206277:	00 
            if (amt_read < buf.len) return error.EndOfStream;
  206278:	48 3b 44 24 68       	cmp    rax,QWORD PTR [rsp+0x68]
  20627d:	0f 82 21 12 00 00    	jb     2074a4 <openSelfDebugInfo+0x2914>
  206283:	0f b6 54 24 08       	movzx  edx,BYTE PTR [rsp+0x8]
  206288:	0f b6 44 24 09       	movzx  eax,BYTE PTR [rsp+0x9]
  20628d:	89 c1                	mov    ecx,eax
  20628f:	c1 e1 08             	shl    ecx,0x8
  206292:	09 d1                	or     ecx,edx
                result = (result << 8) | b;
  206294:	c1 e2 08             	shl    edx,0x8
  206297:	09 c2                	or     edx,eax
    switch (endian) {
  206299:	40 f6 c5 01          	test   bpl,0x1
  20629d:	66 0f 45 d1          	cmovne dx,cx
  2062a1:	48 89 94 24 60 02 00 	mov    QWORD PTR [rsp+0x260],rdx
  2062a8:	00 
        if (version < 2 or version > 5) return error.InvalidDebugInfo;
  2062a9:	8d 42 fe             	lea    eax,[rdx-0x2]
  2062ac:	0f b7 c0             	movzx  eax,ax
  2062af:	83 f8 03             	cmp    eax,0x3
  2062b2:	0f 87 4c 12 00 00    	ja     207504 <openSelfDebugInfo+0x2974>
  2062b8:	40 8a 6b 12          	mov    bpl,BYTE PTR [rbx+0x12]
        const debug_abbrev_offset = if (is_64) try in_stream.readInt(st.elf.endian, u64) else try in_stream.readInt(st.elf.endian, u32);
  2062bc:	80 7c 24 40 00       	cmp    BYTE PTR [rsp+0x40],0x0
  2062c1:	74 37                	je     2062fa <openSelfDebugInfo+0x176a>
  2062c3:	40 0f b6 d5          	movzx  edx,bpl
  2062c7:	48 8d bc 24 38 03 00 	lea    rdi,[rsp+0x338]
  2062ce:	00 
  2062cf:	48 8d b4 24 48 01 00 	lea    rsi,[rsp+0x148]
  2062d6:	00 
  2062d7:	e8 a4 31 00 00       	call   209480 <InStream(ReadError)_readInt.16>
  2062dc:	0f b7 bc 24 38 03 00 	movzx  edi,WORD PTR [rsp+0x338]
  2062e3:	00 
  2062e4:	66 85 ff             	test   di,di
  2062e7:	0f 85 f8 0f 00 00    	jne    2072e5 <openSelfDebugInfo+0x2755>
  2062ed:	48 8b 84 24 40 03 00 	mov    rax,QWORD PTR [rsp+0x340]
  2062f4:	00 
  2062f5:	e9 96 00 00 00       	jmp    206390 <openSelfDebugInfo+0x1800>
            try self.readNoEof(bytes[0..]);
  2062fa:	48 8d 44 24 08       	lea    rax,[rsp+0x8]
  2062ff:	48 89 44 24 60       	mov    QWORD PTR [rsp+0x60],rax
  206304:	48 c7 44 24 68 04 00 	mov    QWORD PTR [rsp+0x68],0x4
  20630b:	00 00 
            return self.readFn(self, buffer);
  20630d:	4c 89 ef             	mov    rdi,r13
  206310:	48 8d b4 24 48 01 00 	lea    rsi,[rsp+0x148]
  206317:	00 
  206318:	48 8d 54 24 60       	lea    rdx,[rsp+0x60]
  20631d:	ff 94 24 48 01 00 00 	call   QWORD PTR [rsp+0x148]
  206324:	0f b7 8c 24 a0 00 00 	movzx  ecx,WORD PTR [rsp+0xa0]
  20632b:	00 
  20632c:	89 c8                	mov    eax,ecx
            const amt_read = try self.read(buf);
  20632e:	66 85 c9             	test   cx,cx
  206331:	0f 85 71 11 00 00    	jne    2074a8 <openSelfDebugInfo+0x2918>
  206337:	48 8b 84 24 a8 00 00 	mov    rax,QWORD PTR [rsp+0xa8]
  20633e:	00 
            if (amt_read < buf.len) return error.EndOfStream;
  20633f:	48 3b 44 24 68       	cmp    rax,QWORD PTR [rsp+0x68]
  206344:	0f 82 5a 11 00 00    	jb     2074a4 <openSelfDebugInfo+0x2914>
  20634a:	0f b6 44 24 08       	movzx  eax,BYTE PTR [rsp+0x8]
  20634f:	0f b6 4c 24 09       	movzx  ecx,BYTE PTR [rsp+0x9]
  206354:	40 f6 c5 01          	test   bpl,0x1
  206358:	74 1b                	je     206375 <openSelfDebugInfo+0x17e5>
                result = result | (T(b) << @intCast(ShiftType, index * 8));
  20635a:	c1 e1 08             	shl    ecx,0x8
  20635d:	09 c1                	or     ecx,eax
  20635f:	0f b6 54 24 0a       	movzx  edx,BYTE PTR [rsp+0xa]
  206364:	c1 e2 10             	shl    edx,0x10
  206367:	09 ca                	or     edx,ecx
  206369:	0f b6 44 24 0b       	movzx  eax,BYTE PTR [rsp+0xb]
  20636e:	c1 e0 18             	shl    eax,0x18
  206371:	09 d0                	or     eax,edx
  206373:	eb 19                	jmp    20638e <openSelfDebugInfo+0x17fe>
                result = (result << 8) | b;
  206375:	c1 e0 08             	shl    eax,0x8
  206378:	09 c8                	or     eax,ecx
  20637a:	c1 e0 08             	shl    eax,0x8
  20637d:	0f b6 4c 24 0a       	movzx  ecx,BYTE PTR [rsp+0xa]
  206382:	09 c1                	or     ecx,eax
  206384:	c1 e1 08             	shl    ecx,0x8
  206387:	0f b6 44 24 0b       	movzx  eax,BYTE PTR [rsp+0xb]
  20638c:	09 c8                	or     eax,ecx
  20638e:	89 c0                	mov    eax,eax
  206390:	48 89 44 24 30       	mov    QWORD PTR [rsp+0x30],rax
            try self.readNoEof(result[0..]);
  206395:	48 8d 44 24 07       	lea    rax,[rsp+0x7]
  20639a:	48 89 44 24 60       	mov    QWORD PTR [rsp+0x60],rax
  20639f:	48 c7 44 24 68 01 00 	mov    QWORD PTR [rsp+0x68],0x1
  2063a6:	00 00 
            return self.readFn(self, buffer);
  2063a8:	4c 89 ef             	mov    rdi,r13
  2063ab:	48 8d b4 24 48 01 00 	lea    rsi,[rsp+0x148]
  2063b2:	00 
  2063b3:	48 8d 54 24 60       	lea    rdx,[rsp+0x60]
  2063b8:	ff 94 24 48 01 00 00 	call   QWORD PTR [rsp+0x148]
  2063bf:	0f b7 8c 24 a0 00 00 	movzx  ecx,WORD PTR [rsp+0xa0]
  2063c6:	00 
  2063c7:	89 c8                	mov    eax,ecx
            const amt_read = try self.read(buf);
  2063c9:	66 85 c9             	test   cx,cx
  2063cc:	0f 85 d6 10 00 00    	jne    2074a8 <openSelfDebugInfo+0x2918>
  2063d2:	48 8b 84 24 a8 00 00 	mov    rax,QWORD PTR [rsp+0xa8]
  2063d9:	00 
            if (amt_read < buf.len) return error.EndOfStream;
  2063da:	48 3b 44 24 68       	cmp    rax,QWORD PTR [rsp+0x68]
  2063df:	0f 82 bf 10 00 00    	jb     2074a4 <openSelfDebugInfo+0x2914>
        if (address_size != @sizeOf(usize)) return error.InvalidDebugInfo;
  2063e5:	80 7c 24 07 08       	cmp    BYTE PTR [rsp+0x7],0x8
  2063ea:	66 bf 23 00          	mov    di,0x23
  2063ee:	0f 85 f1 0e 00 00    	jne    2072e5 <openSelfDebugInfo+0x2755>
    return syscall3(SYS_lseek, @intCast(usize, fd), @bitCast(usize, offset), ref_pos);
  2063f4:	48 63 3b             	movsxd rdi,DWORD PTR [rbx]
  2063f7:	b8 08 00 00 00       	mov    eax,0x8
  2063fc:	be 00 00 00 00       	mov    esi,0x0
  206401:	ba 01 00 00 00       	mov    edx,0x1
  206406:	0f 05                	syscall 
    return if (signed_r > -4096 and signed_r < 0) @intCast(usize, -signed_r) else 0;
  206408:	48 89 c2             	mov    rdx,rax
  20640b:	48 f7 da             	neg    rdx
  20640e:	48 89 44 24 18       	mov    QWORD PTR [rsp+0x18],rax
  206413:	48 3d 00 f0 ff ff    	cmp    rax,0xfffffffffffff000
  206419:	b9 00 00 00 00       	mov    ecx,0x0
  20641e:	48 0f 46 d1          	cmovbe rdx,rcx
    pub fn getPos(self: *File) !usize {
        switch (builtin.os) {
            Os.linux, Os.macosx, Os.ios => {
                const result = posix.lseek(self.handle, 0, posix.SEEK_CUR);
                const err = posix.getErrno(result);
                if (err > 0) {
  206422:	48 85 d2             	test   rdx,rdx
  206425:	0f 85 16 11 00 00    	jne    207541 <openSelfDebugInfo+0x29b1>
            return self.items[0..self.len];
  20642b:	48 8b 83 98 00 00 00 	mov    rax,QWORD PTR [rbx+0x98]
    for (st.abbrev_table_list.toSlice()) |*header| {
  206432:	48 85 c0             	test   rax,rax
  206435:	48 8b 54 24 30       	mov    rdx,QWORD PTR [rsp+0x30]
  20643a:	74 24                	je     206460 <openSelfDebugInfo+0x18d0>
  20643c:	48 8b b3 88 00 00 00 	mov    rsi,QWORD PTR [rbx+0x88]
        if (header.offset == abbrev_offset) {
  206443:	48 83 c6 08          	add    rsi,0x8
  206447:	31 c9                	xor    ecx,ecx
  206449:	48 39 56 f8          	cmp    QWORD PTR [rsi-0x8],rdx
  20644d:	0f 84 48 01 00 00    	je     20659b <openSelfDebugInfo+0x1a0b>
    for (st.abbrev_table_list.toSlice()) |*header| {
  206453:	48 83 c1 01          	add    rcx,0x1
  206457:	48 83 c6 28          	add    rsi,0x28
  20645b:	48 39 c1             	cmp    rcx,rax
  20645e:	72 e9                	jb     206449 <openSelfDebugInfo+0x18b9>
    try st.self_exe_file.seekTo(st.debug_abbrev.offset + abbrev_offset);
  206460:	48 8b 43 68          	mov    rax,QWORD PTR [rbx+0x68]
  206464:	48 8b 70 18          	mov    rsi,QWORD PTR [rax+0x18]
  206468:	48 01 d6             	add    rsi,rdx
  20646b:	0f 88 7f 10 00 00    	js     2074f0 <openSelfDebugInfo+0x2960>
    return syscall3(SYS_lseek, @intCast(usize, fd), @bitCast(usize, offset), ref_pos);
  206471:	48 63 3b             	movsxd rdi,DWORD PTR [rbx]
  206474:	b8 08 00 00 00       	mov    eax,0x8
  206479:	31 d2                	xor    edx,edx
  20647b:	0f 05                	syscall 
    return if (signed_r > -4096 and signed_r < 0) @intCast(usize, -signed_r) else 0;
  20647d:	48 89 c1             	mov    rcx,rax
  206480:	48 f7 d9             	neg    rcx
  206483:	48 3d 00 f0 ff ff    	cmp    rax,0xfffffffffffff000
  206489:	b8 00 00 00 00       	mov    eax,0x0
  20648e:	48 0f 46 c8          	cmovbe rcx,rax
                if (err > 0) {
  206492:	48 85 c9             	test   rcx,rcx
  206495:	0f 85 2d 11 00 00    	jne    2075c8 <openSelfDebugInfo+0x2a38>
        .table = try parseAbbrevTable(st),
  20649b:	4c 89 ef             	mov    rdi,r13
  20649e:	48 89 de             	mov    rsi,rbx
  2064a1:	e8 4a 32 00 00       	call   2096f0 <parseAbbrevTable>
  2064a6:	0f b7 8c 24 a0 00 00 	movzx  ecx,WORD PTR [rsp+0xa0]
  2064ad:	00 
  2064ae:	89 c8                	mov    eax,ecx
  2064b0:	66 85 c9             	test   cx,cx
  2064b3:	0f 85 ef 0f 00 00    	jne    2074a8 <openSelfDebugInfo+0x2918>
    try st.abbrev_table_list.append(AbbrevTableHeader{
  2064b9:	48 8d 84 24 a8 00 00 	lea    rax,[rsp+0xa8]
  2064c0:	00 
  2064c1:	c5 fe 6f 00          	vmovdqu ymm0,YMMWORD PTR [rax]
  2064c5:	c5 fe 7f 44 24 60    	vmovdqu YMMWORD PTR [rsp+0x60],ymm0
            }
            self.items = try self.allocator.alignedRealloc(T, A, self.items, better_capacity);
        }

        pub fn addOne(self: *Self) !*T {
            const new_length = self.len + 1;
  2064cb:	48 8b ab 98 00 00 00 	mov    rbp,QWORD PTR [rbx+0x98]
            var better_capacity = self.items.len;
  2064d2:	48 8b 8b 90 00 00 00 	mov    rcx,QWORD PTR [rbx+0x90]
            if (better_capacity >= new_capacity) return;
  2064d9:	48 39 e9             	cmp    rcx,rbp
  2064dc:	76 05                	jbe    2064e3 <openSelfDebugInfo+0x1953>
            try self.ensureCapacity(new_length);
            const result = &self.items[self.len];
  2064de:	48 89 e8             	mov    rax,rbp
  2064e1:	eb 5d                	jmp    206540 <openSelfDebugInfo+0x19b0>
                better_capacity += better_capacity / 2 + 8;
  2064e3:	48 89 c8             	mov    rax,rcx
  2064e6:	48 d1 e8             	shr    rax,1
  2064e9:	48 01 c1             	add    rcx,rax
  2064ec:	48 83 c1 08          	add    rcx,0x8
                if (better_capacity >= new_capacity) break;
  2064f0:	48 39 e9             	cmp    rcx,rbp
  2064f3:	76 ee                	jbe    2064e3 <openSelfDebugInfo+0x1953>
            self.items = try self.allocator.alignedRealloc(T, A, self.items, better_capacity);
  2064f5:	48 8b b3 a0 00 00 00 	mov    rsi,QWORD PTR [rbx+0xa0]
  2064fc:	48 8d bc 24 b8 02 00 	lea    rdi,[rsp+0x2b8]
  206503:	00 
  206504:	48 8b 54 24 58       	mov    rdx,QWORD PTR [rsp+0x58]
  206509:	c5 f8 77             	vzeroupper 
  20650c:	e8 0f 3e 00 00       	call   20a320 <Allocator_alignedRealloc.27>
  206511:	0f b7 8c 24 b8 02 00 	movzx  ecx,WORD PTR [rsp+0x2b8]
  206518:	00 
  206519:	89 c8                	mov    eax,ecx
  20651b:	66 85 c9             	test   cx,cx
  20651e:	0f 85 84 0f 00 00    	jne    2074a8 <openSelfDebugInfo+0x2918>
  206524:	48 8d 84 24 c0 02 00 	lea    rax,[rsp+0x2c0]
  20652b:	00 
  20652c:	c5 fa 6f 00          	vmovdqu xmm0,XMMWORD PTR [rax]
  206530:	48 8b 44 24 58       	mov    rax,QWORD PTR [rsp+0x58]
  206535:	c5 fa 7f 00          	vmovdqu XMMWORD PTR [rax],xmm0
            const result = &self.items[self.len];
  206539:	48 8b 83 98 00 00 00 	mov    rax,QWORD PTR [rbx+0x98]
  206540:	48 83 c5 01          	add    rbp,0x1
  206544:	48 8b 8b 88 00 00 00 	mov    rcx,QWORD PTR [rbx+0x88]
            self.len = new_length;
  20654b:	48 89 ab 98 00 00 00 	mov    QWORD PTR [rbx+0x98],rbp
            new_item_ptr.* = item;
  206552:	48 8d 04 80          	lea    rax,[rax+rax*4]
  206556:	48 8b 54 24 30       	mov    rdx,QWORD PTR [rsp+0x30]
  20655b:	48 89 14 c1          	mov    QWORD PTR [rcx+rax*8],rdx
  20655f:	c5 fe 6f 44 24 60    	vmovdqu ymm0,YMMWORD PTR [rsp+0x60]
  206565:	c5 fe 7f 44 c1 08    	vmovdqu YMMWORD PTR [rcx+rax*8+0x8],ymm0
    return &st.abbrev_table_list.items[st.abbrev_table_list.len - 1].table;
  20656b:	48 8b 83 88 00 00 00 	mov    rax,QWORD PTR [rbx+0x88]
  206572:	48 8b 8b 98 00 00 00 	mov    rcx,QWORD PTR [rbx+0x98]
  206579:	48 8d 0c 89          	lea    rcx,[rcx+rcx*4]
  20657d:	48 8d 04 c8          	lea    rax,[rax+rcx*8]
  206581:	48 83 c0 e0          	add    rax,0xffffffffffffffe0
  206585:	48 89 44 24 30       	mov    QWORD PTR [rsp+0x30],rax
  20658a:	66 bf 21 00          	mov    di,0x21
  20658e:	48 83 7c 24 18 00    	cmp    QWORD PTR [rsp+0x18],0x0
  206594:	79 1a                	jns    2065b0 <openSelfDebugInfo+0x1a20>
  206596:	e9 4a 0d 00 00       	jmp    2072e5 <openSelfDebugInfo+0x2755>
  20659b:	48 89 74 24 30       	mov    QWORD PTR [rsp+0x30],rsi
  2065a0:	66 bf 21 00          	mov    di,0x21
  2065a4:	48 83 7c 24 18 00    	cmp    QWORD PTR [rsp+0x18],0x0
  2065aa:	0f 88 35 0d 00 00    	js     2072e5 <openSelfDebugInfo+0x2755>
    return syscall3(SYS_lseek, @intCast(usize, fd), @bitCast(usize, offset), ref_pos);
  2065b0:	48 63 3b             	movsxd rdi,DWORD PTR [rbx]
  2065b3:	b8 08 00 00 00       	mov    eax,0x8
  2065b8:	31 d2                	xor    edx,edx
  2065ba:	48 8b 74 24 18       	mov    rsi,QWORD PTR [rsp+0x18]
  2065bf:	0f 05                	syscall 
    return if (signed_r > -4096 and signed_r < 0) @intCast(usize, -signed_r) else 0;
  2065c1:	48 89 c1             	mov    rcx,rax
  2065c4:	48 f7 d9             	neg    rcx
  2065c7:	48 3d 00 f0 ff ff    	cmp    rax,0xfffffffffffff000
  2065cd:	b8 00 00 00 00       	mov    eax,0x0
  2065d2:	48 0f 46 c8          	cmovbe rcx,rax
  2065d6:	48 85 c9             	test   rcx,rcx
  2065d9:	0f 85 c4 0f 00 00    	jne    2075a3 <openSelfDebugInfo+0x2a13>
  2065df:	48 8b 83 a0 00 00 00 	mov    rax,QWORD PTR [rbx+0xa0]
    var in_file_stream = io.FileInStream.init(in_file);
  2065e6:	48 89 84 24 58 02 00 	mov    QWORD PTR [rsp+0x258],rax
  2065ed:	00 
  2065ee:	48 89 9c 24 50 01 00 	mov    QWORD PTR [rsp+0x150],rbx
  2065f5:	00 
  2065f6:	48 8d 05 c3 30 00 00 	lea    rax,[rip+0x30c3]        # 2096c0 <FileInStream_readFn>
  2065fd:	48 89 84 24 58 01 00 	mov    QWORD PTR [rsp+0x158],rax
  206604:	00 
            try self.readNoEof(result[0..]);
  206605:	48 8d 44 24 07       	lea    rax,[rsp+0x7]
  20660a:	48 89 44 24 08       	mov    QWORD PTR [rsp+0x8],rax
  20660f:	48 c7 44 24 10 01 00 	mov    QWORD PTR [rsp+0x10],0x1
  206616:	00 00 
        return self.file.read(buffer);
  206618:	48 8b b4 24 50 01 00 	mov    rsi,QWORD PTR [rsp+0x150]
  20661f:	00 
  206620:	48 8d bc 24 88 01 00 	lea    rdi,[rsp+0x188]
  206627:	00 
  206628:	48 8d 54 24 08       	lea    rdx,[rsp+0x8]
  20662d:	c5 f8 77             	vzeroupper 
  206630:	e8 7b 2f 00 00       	call   2095b0 <File_read>
  206635:	c5 fa 6f 84 24 88 01 	vmovdqu xmm0,XMMWORD PTR [rsp+0x188]
  20663c:	00 00 
  20663e:	c5 f9 7f 44 24 20    	vmovdqa XMMWORD PTR [rsp+0x20],xmm0
            return self.readFn(self, buffer);
  206644:	0f b7 4c 24 20       	movzx  ecx,WORD PTR [rsp+0x20]
            const amt_read = try self.read(buf);
  206649:	66 85 c9             	test   cx,cx
  20664c:	0f 85 67 0c 00 00    	jne    2072b9 <openSelfDebugInfo+0x2729>
  206652:	0f b6 44 24 40       	movzx  eax,BYTE PTR [rsp+0x40]
  206657:	48 89 84 24 38 01 00 	mov    QWORD PTR [rsp+0x138],rax
  20665e:	00 
  20665f:	48 8d 04 c5 04 00 00 	lea    rax,[rax*8+0x4]
  206666:	00 
  206667:	48 89 84 24 50 02 00 	mov    QWORD PTR [rsp+0x250],rax
  20666e:	00 
  20666f:	48 8b 44 24 28       	mov    rax,QWORD PTR [rsp+0x28]
  206674:	31 c9                	xor    ecx,ecx
  206676:	48 89 4c 24 18       	mov    QWORD PTR [rsp+0x18],rcx
  20667b:	31 ed                	xor    ebp,ebp
            if (amt_read < buf.len) return error.EndOfStream;
  20667d:	48 3b 44 24 10       	cmp    rax,QWORD PTR [rsp+0x10]
  206682:	0f 82 2d 0c 00 00    	jb     2072b5 <openSelfDebugInfo+0x2725>
            return result[0];
  206688:	0f b6 44 24 07       	movzx  eax,BYTE PTR [rsp+0x7]
        if (@shlWithOverflow(u64, byte & 0b01111111, @intCast(u6, shift), &operand)) return error.InvalidDebugInfo;
  20668d:	89 c2                	mov    edx,eax
  20668f:	83 e2 7f             	and    edx,0x7f
  206692:	89 ee                	mov    esi,ebp
  206694:	83 e6 3f             	and    esi,0x3f
  206697:	c4 e2 c9 f7 ca       	shlx   rcx,rdx,rsi
  20669c:	c4 e2 cb f7 f1       	shrx   rsi,rcx,rsi
  2066a1:	48 39 d6             	cmp    rsi,rdx
  2066a4:	0f 85 13 0c 00 00    	jne    2072bd <openSelfDebugInfo+0x272d>
        result |= operand;
  2066aa:	48 09 4c 24 18       	or     QWORD PTR [rsp+0x18],rcx
        if ((byte & 0b10000000) == 0) return result;
  2066af:	84 c0                	test   al,al
  2066b1:	79 44                	jns    2066f7 <openSelfDebugInfo+0x1b67>
        shift += 7;
  2066b3:	48 83 c5 07          	add    rbp,0x7
            try self.readNoEof(result[0..]);
  2066b7:	48 8d 44 24 07       	lea    rax,[rsp+0x7]
  2066bc:	48 89 44 24 08       	mov    QWORD PTR [rsp+0x8],rax
  2066c1:	48 c7 44 24 10 01 00 	mov    QWORD PTR [rsp+0x10],0x1
  2066c8:	00 00 
            return self.readFn(self, buffer);
  2066ca:	48 8d 7c 24 20       	lea    rdi,[rsp+0x20]
  2066cf:	48 8d b4 24 58 01 00 	lea    rsi,[rsp+0x158]
  2066d6:	00 
  2066d7:	48 8d 54 24 08       	lea    rdx,[rsp+0x8]
  2066dc:	ff 94 24 58 01 00 00 	call   QWORD PTR [rsp+0x158]
  2066e3:	0f b7 4c 24 20       	movzx  ecx,WORD PTR [rsp+0x20]
  2066e8:	48 8b 44 24 28       	mov    rax,QWORD PTR [rsp+0x28]
            const amt_read = try self.read(buf);
  2066ed:	66 85 c9             	test   cx,cx
  2066f0:	74 8b                	je     20667d <openSelfDebugInfo+0x1aed>
  2066f2:	e9 c2 0b 00 00       	jmp    2072b9 <openSelfDebugInfo+0x2729>
            return self.items[0..self.len];
  2066f7:	48 8b 44 24 30       	mov    rax,QWORD PTR [rsp+0x30]
  2066fc:	48 8b 40 10          	mov    rax,QWORD PTR [rax+0x10]
    for (abbrev_table.toSliceConst()) |*table_entry| {
  206700:	48 85 c0             	test   rax,rax
  206703:	0f 84 b1 0d 00 00    	je     2074ba <openSelfDebugInfo+0x292a>
  206709:	48 8b 4c 24 30       	mov    rcx,QWORD PTR [rsp+0x30]
  20670e:	48 8b 29             	mov    rbp,QWORD PTR [rcx]
  206711:	31 c9                	xor    ecx,ecx
        if (table_entry.abbrev_code == abbrev_code) return table_entry;
  206713:	48 8b 54 24 18       	mov    rdx,QWORD PTR [rsp+0x18]
  206718:	48 39 55 08          	cmp    QWORD PTR [rbp+0x8],rdx
  20671c:	74 12                	je     206730 <openSelfDebugInfo+0x1ba0>
    for (abbrev_table.toSliceConst()) |*table_entry| {
  20671e:	48 83 c1 01          	add    rcx,0x1
  206722:	48 83 c5 38          	add    rbp,0x38
  206726:	48 39 c1             	cmp    rcx,rax
  206729:	72 e8                	jb     206713 <openSelfDebugInfo+0x1b83>
  20672b:	e9 8a 0d 00 00       	jmp    2074ba <openSelfDebugInfo+0x292a>
    const table_entry = getAbbrevTableEntry(abbrev_table, abbrev_code) orelse return error.InvalidDebugInfo;
  206730:	48 85 ed             	test   rbp,rbp
  206733:	0f 84 81 0d 00 00    	je     2074ba <openSelfDebugInfo+0x292a>
        .tag_id = table_entry.tag_id,
  206739:	48 8b 45 10          	mov    rax,QWORD PTR [rbp+0x10]
        .has_children = table_entry.has_children,
  20673d:	8a 4d 00             	mov    cl,BYTE PTR [rbp+0x0]
  206740:	48 8b b3 a0 00 00 00 	mov    rsi,QWORD PTR [rbx+0xa0]
  206747:	48 8d 94 24 f7 02 00 	lea    rdx,[rsp+0x2f7]
  20674e:	00 
    var result = Die{
  20674f:	c5 f9 ef c0          	vpxor  xmm0,xmm0,xmm0
  206753:	c5 fa 7f 02          	vmovdqu XMMWORD PTR [rdx],xmm0
  206757:	48 c7 42 10 00 00 00 	mov    QWORD PTR [rdx+0x10],0x0
  20675e:	00 
  20675f:	48 89 84 24 e0 01 00 	mov    QWORD PTR [rsp+0x1e0],rax
  206766:	00 
  206767:	88 8c 24 e8 01 00 00 	mov    BYTE PTR [rsp+0x1e8],cl
  20676e:	c5 fa 6f 84 24 f0 02 	vmovdqu xmm0,XMMWORD PTR [rsp+0x2f0]
  206775:	00 00 
  206777:	c5 fa 6f 8c 24 ff 02 	vmovdqu xmm1,XMMWORD PTR [rsp+0x2ff]
  20677e:	00 00 
  206780:	48 8d 84 24 e9 01 00 	lea    rax,[rsp+0x1e9]
  206787:	00 
  206788:	c5 fa 7f 48 0f       	vmovdqu XMMWORD PTR [rax+0xf],xmm1
  20678d:	c5 fa 7f 00          	vmovdqu XMMWORD PTR [rax],xmm0
  206791:	48 89 b4 24 08 02 00 	mov    QWORD PTR [rsp+0x208],rsi
  206798:	00 
    try result.attrs.resize(table_entry.attrs.len);
  206799:	48 8b 45 28          	mov    rax,QWORD PTR [rbp+0x28]
            var better_capacity = self.items.len;
  20679d:	48 8b 8c 24 f8 01 00 	mov    rcx,QWORD PTR [rsp+0x1f8]
  2067a4:	00 
  2067a5:	48 89 44 24 18       	mov    QWORD PTR [rsp+0x18],rax
            if (better_capacity >= new_capacity) return;
  2067aa:	48 39 c1             	cmp    rcx,rax
  2067ad:	73 5a                	jae    206809 <openSelfDebugInfo+0x1c79>
                better_capacity += better_capacity / 2 + 8;
  2067af:	48 89 c8             	mov    rax,rcx
  2067b2:	48 d1 e8             	shr    rax,1
  2067b5:	48 01 c1             	add    rcx,rax
  2067b8:	48 83 c1 08          	add    rcx,0x8
                if (better_capacity >= new_capacity) break;
  2067bc:	48 3b 4c 24 18       	cmp    rcx,QWORD PTR [rsp+0x18]
  2067c1:	72 ec                	jb     2067af <openSelfDebugInfo+0x1c1f>
            self.items = try self.allocator.alignedRealloc(T, A, self.items, better_capacity);
  2067c3:	48 8d bc 24 88 01 00 	lea    rdi,[rsp+0x188]
  2067ca:	00 
  2067cb:	48 8d 94 24 f0 01 00 	lea    rdx,[rsp+0x1f0]
  2067d2:	00 
  2067d3:	e8 d8 68 00 00       	call   20d0b0 <Allocator_alignedRealloc.30>
  2067d8:	0f b7 8c 24 88 01 00 	movzx  ecx,WORD PTR [rsp+0x188]
  2067df:	00 
  2067e0:	89 c8                	mov    eax,ecx
  2067e2:	66 85 c9             	test   cx,cx
  2067e5:	0f 85 87 0e 00 00    	jne    207672 <openSelfDebugInfo+0x2ae2>
  2067eb:	48 8d 84 24 90 01 00 	lea    rax,[rsp+0x190]
  2067f2:	00 
  2067f3:	c5 fa 6f 00          	vmovdqu xmm0,XMMWORD PTR [rax]
  2067f7:	48 8d 84 24 f0 01 00 	lea    rax,[rsp+0x1f0]
  2067fe:	00 
  2067ff:	c5 fa 7f 00          	vmovdqu XMMWORD PTR [rax],xmm0
            return self.items[0..self.len];
  206803:	48 8b 45 28          	mov    rax,QWORD PTR [rbp+0x28]
  206807:	eb 05                	jmp    20680e <openSelfDebugInfo+0x1c7e>
  206809:	48 8b 44 24 18       	mov    rax,QWORD PTR [rsp+0x18]
  20680e:	48 89 84 24 68 01 00 	mov    QWORD PTR [rsp+0x168],rax
  206815:	00 
            self.len = new_len;
  206816:	48 8b 44 24 18       	mov    rax,QWORD PTR [rsp+0x18]
  20681b:	48 89 84 24 00 02 00 	mov    QWORD PTR [rsp+0x200],rax
  206822:	00 
    for (table_entry.attrs.toSliceConst()) |attr, i| {
  206823:	48 83 bc 24 68 01 00 	cmp    QWORD PTR [rsp+0x168],0x0
  20682a:	00 00 
  20682c:	0f 84 c9 00 00 00    	je     2068fb <openSelfDebugInfo+0x1d6b>
  206832:	48 8b 45 18          	mov    rax,QWORD PTR [rbp+0x18]
  206836:	48 8b ac 24 f0 01 00 	mov    rbp,QWORD PTR [rsp+0x1f0]
  20683d:	00 
  20683e:	48 83 c0 08          	add    rax,0x8
  206842:	48 89 44 24 18       	mov    QWORD PTR [rsp+0x18],rax
  206847:	48 83 c5 08          	add    rbp,0x8
  20684b:	31 c0                	xor    eax,eax
  20684d:	48 89 44 24 30       	mov    QWORD PTR [rsp+0x30],rax
  206852:	48 8b 44 24 18       	mov    rax,QWORD PTR [rsp+0x18]
  206857:	48 8b 48 f8          	mov    rcx,QWORD PTR [rax-0x8]
  20685b:	48 89 8c 24 60 01 00 	mov    QWORD PTR [rsp+0x160],rcx
  206862:	00 
  206863:	48 8b 08             	mov    rcx,QWORD PTR [rax]
  206866:	48 8b b3 a0 00 00 00 	mov    rsi,QWORD PTR [rbx+0xa0]
            .value = try parseFormValue(st.allocator(), in_stream, attr.form_id, is_64),
  20686d:	48 8d bc 24 48 03 00 	lea    rdi,[rsp+0x348]
  206874:	00 
  206875:	48 8d 94 24 58 01 00 	lea    rdx,[rsp+0x158]
  20687c:	00 
  20687d:	4c 8b 84 24 38 01 00 	mov    r8,QWORD PTR [rsp+0x138]
  206884:	00 
  206885:	c5 f8 77             	vzeroupper 
  206888:	e8 23 3d 00 00       	call   20a5b0 <parseFormValue>
  20688d:	0f b7 8c 24 48 03 00 	movzx  ecx,WORD PTR [rsp+0x348]
  206894:	00 
  206895:	89 c8                	mov    eax,ecx
  206897:	66 85 c9             	test   cx,cx
  20689a:	0f 85 cd 0c 00 00    	jne    20756d <openSelfDebugInfo+0x29dd>
        result.attrs.items[i] = Die.Attr{
  2068a0:	48 8d 84 24 50 03 00 	lea    rax,[rsp+0x350]
  2068a7:	00 
  2068a8:	c5 fc 10 00          	vmovups ymm0,YMMWORD PTR [rax]
  2068ac:	c5 fc 11 84 24 10 03 	vmovups YMMWORD PTR [rsp+0x310],ymm0
  2068b3:	00 00 
  2068b5:	48 8b 84 24 60 01 00 	mov    rax,QWORD PTR [rsp+0x160]
  2068bc:	00 
  2068bd:	48 89 45 f8          	mov    QWORD PTR [rbp-0x8],rax
  2068c1:	c5 fe 6f 84 24 10 03 	vmovdqu ymm0,YMMWORD PTR [rsp+0x310]
  2068c8:	00 00 
  2068ca:	c5 fe 7f 45 00       	vmovdqu YMMWORD PTR [rbp+0x0],ymm0
  2068cf:	48 8b 44 24 30       	mov    rax,QWORD PTR [rsp+0x30]
  2068d4:	48 89 c1             	mov    rcx,rax
    for (table_entry.attrs.toSliceConst()) |attr, i| {
  2068d7:	48 83 c1 01          	add    rcx,0x1
  2068db:	48 83 44 24 18 10    	add    QWORD PTR [rsp+0x18],0x10
  2068e1:	48 83 c5 28          	add    rbp,0x28
  2068e5:	48 89 c8             	mov    rax,rcx
  2068e8:	48 89 44 24 30       	mov    QWORD PTR [rsp+0x30],rax
  2068ed:	48 3b 8c 24 68 01 00 	cmp    rcx,QWORD PTR [rsp+0x168]
  2068f4:	00 
  2068f5:	0f 82 57 ff ff ff    	jb     206852 <openSelfDebugInfo+0x1cc2>
    return result;
  2068fb:	c5 fc 10 84 24 e0 01 	vmovups ymm0,YMMWORD PTR [rsp+0x1e0]
  206902:	00 00 
  206904:	c5 fc 10 8c 24 f0 01 	vmovups ymm1,YMMWORD PTR [rsp+0x1f0]
  20690b:	00 00 
  20690d:	48 8d 84 24 2e 04 00 	lea    rax,[rsp+0x42e]
  206914:	00 
  206915:	c5 fc 11 48 10       	vmovups YMMWORD PTR [rax+0x10],ymm1
  20691a:	c5 fc 11 00          	vmovups YMMWORD PTR [rax],ymm0
  20691e:	c5 fc 10 84 24 28 04 	vmovups ymm0,YMMWORD PTR [rsp+0x428]
  206925:	00 00 
  206927:	c5 fc 10 8c 24 3e 04 	vmovups ymm1,YMMWORD PTR [rsp+0x43e]
  20692e:	00 00 
  206930:	c5 fc 11 84 24 10 02 	vmovups YMMWORD PTR [rsp+0x210],ymm0
  206937:	00 00 
  206939:	c5 fc 11 8c 24 26 02 	vmovups YMMWORD PTR [rsp+0x226],ymm1
  206940:	00 00 
        const byte_slice = try self.allocFn(self, byte_count, alignment);
  206942:	ba 30 00 00 00       	mov    edx,0x30
  206947:	b9 08 00 00 00       	mov    ecx,0x8
  20694c:	4c 89 ef             	mov    rdi,r13
  20694f:	48 8b b4 24 58 02 00 	mov    rsi,QWORD PTR [rsp+0x258]
  206956:	00 
  206957:	c5 f8 77             	vzeroupper 
